
========================================================================

** ELF Header Information

    File Name: .\output\Switchbot.axf

    Machine class: ELFCLASS32 (32-bit)
    Data encoding: ELFDATA2LSB (Little endian)
    Header version: EV_CURRENT (Current version)
    Operating System ABI: none
    ABI Version: 0
    File Type: ET_EXEC (Executable) (2)
    Machine: EM_ARM (ARM)

    Image Entry point: 0x00001075
    Flags: EF_ARM_HASENTRY (0x05000002)

    ARM ELF revision: 5 (ABI version 2)

    Built with
    ARM C/C++ Compiler, 5.03 [Build 76]
    ARM Assembler, 5.03 [Build 76]
    ARM Linker, 5.03 [Build 76] 

    Header size: 52 bytes (0x34)
    Program header entry size: 32 bytes (0x20)
    Section header entry size: 40 bytes (0x28)

    Program header entries: 1
    Section header entries: 16

    Program header offset: 94652 (0x000171bc)
    Section header offset: 94684 (0x000171dc)

    Section header string table index: 15

========================================================================

** Program header #0 (PT_LOAD) [PF_X + PF_W + PF_R + PF_ARM_ENTRY]
    Size : 28648 bytes (26616 bytes in file)
    Virtual address: 0x00000000 (Alignment 8)


========================================================================

** Section #1 'ER_RO' (SHT_PROGBITS) [SHF_ALLOC + SHF_EXECINSTR]
    Size   : 26560 bytes (alignment 8)
    Address: 0x00000000

    $d.realdata
    RESET
    __Vectors
        0x00000000:    20000828    (..     DCD    536873000
        0x00000004:    00001075    u...    DCD    4213
        0x00000008:    00001095    ....    DCD    4245
        0x0000000c:    00001097    ....    DCD    4247
        0x00000010:    00000000    ....    DCD    0
        0x00000014:    00000000    ....    DCD    0
        0x00000018:    00000000    ....    DCD    0
        0x0000001c:    00000000    ....    DCD    0
        0x00000020:    00000000    ....    DCD    0
        0x00000024:    00000000    ....    DCD    0
        0x00000028:    00000000    ....    DCD    0
        0x0000002c:    00001099    ....    DCD    4249
        0x00000030:    00000000    ....    DCD    0
        0x00000034:    00000000    ....    DCD    0
        0x00000038:    0000109b    ....    DCD    4251
        0x0000003c:    000011cb    ....    DCD    4555
        0x00000040:    0000109f    ....    DCD    4255
        0x00000044:    0000109f    ....    DCD    4255
        0x00000048:    0000109f    ....    DCD    4255
        0x0000004c:    0000109f    ....    DCD    4255
        0x00000050:    00002d33    3-..    DCD    11571
        0x00000054:    00002e0b    ....    DCD    11787
        0x00000058:    0000109f    ....    DCD    4255
        0x0000005c:    0000109f    ....    DCD    4255
        0x00000060:    0000109f    ....    DCD    4255
        0x00000064:    0000109f    ....    DCD    4255
        0x00000068:    00000e39    9...    DCD    3641
        0x0000006c:    0000109f    ....    DCD    4255
        0x00000070:    000017e3    ....    DCD    6115
        0x00000074:    0000194b    K...    DCD    6475
        0x00000078:    0000109f    ....    DCD    4255
        0x0000007c:    0000109f    ....    DCD    4255
        0x00000080:    0000109f    ....    DCD    4255
        0x00000084:    0000109f    ....    DCD    4255
        0x00000088:    0000109f    ....    DCD    4255
        0x0000008c:    0000109f    ....    DCD    4255
        0x00000090:    0000109f    ....    DCD    4255
        0x00000094:    0000109f    ....    DCD    4255
        0x00000098:    0000109f    ....    DCD    4255
        0x0000009c:    0000109f    ....    DCD    4255
        0x000000a0:    0000109f    ....    DCD    4255
        0x000000a4:    0000109f    ....    DCD    4255
        0x000000a8:    0000109f    ....    DCD    4255
        0x000000ac:    0000109f    ....    DCD    4255
        0x000000b0:    0000109f    ....    DCD    4255
        0x000000b4:    0000109f    ....    DCD    4255
        0x000000b8:    0000109f    ....    DCD    4255
        0x000000bc:    0000109f    ....    DCD    4255
    $t
    !!!main
    __main
        0x000000c0:    f000f802    ....    BL       __scatterload ; 0xc8
        0x000000c4:    f000f847    ..G.    BL       __rt_entry ; 0x156
    !!!scatter
    __scatterload
    __scatterload_rt2
    __scatterload_rt2_thumb_only
        0x000000c8:    a00c        ..      ADR      r0,{pc}+0x34 ; 0xfc
        0x000000ca:    c830        0.      LDM      r0!,{r4,r5}
        0x000000cc:    3808        .8      SUBS     r0,r0,#8
        0x000000ce:    1824        $.      ADDS     r4,r4,r0
        0x000000d0:    182d        -.      ADDS     r5,r5,r0
        0x000000d2:    46a2        .F      MOV      r10,r4
        0x000000d4:    1e67        g.      SUBS     r7,r4,#1
        0x000000d6:    46ab        .F      MOV      r11,r5
    __scatterload_null
        0x000000d8:    4654        TF      MOV      r4,r10
        0x000000da:    465d        ]F      MOV      r5,r11
        0x000000dc:    42ac        .B      CMP      r4,r5
        0x000000de:    d101        ..      BNE      0xe4 ; __scatterload_null + 12
        0x000000e0:    f000f839    ..9.    BL       __rt_entry ; 0x156
        0x000000e4:    467e        ~F      MOV      r6,pc
        0x000000e6:    3e0f        .>      SUBS     r6,r6,#0xf
        0x000000e8:    cc0f        ..      LDM      r4!,{r0-r3}
        0x000000ea:    46b6        .F      MOV      lr,r6
        0x000000ec:    2601        .&      MOVS     r6,#1
        0x000000ee:    4233        3B      TST      r3,r6
        0x000000f0:    d000        ..      BEQ      0xf4 ; __scatterload_null + 28
        0x000000f2:    1afb        ..      SUBS     r3,r7,r3
        0x000000f4:    46a2        .F      MOV      r10,r4
        0x000000f6:    46ab        .F      MOV      r11,r5
        0x000000f8:    4333        3C      ORRS     r3,r3,r6
        0x000000fa:    4718        .G      BX       r3
    $d
        0x000000fc:    00006688    .f..    DCD    26248
        0x00000100:    000066a8    .f..    DCD    26280
    $t
    !!handler_zi
    __scatterload_zeroinit
        0x00000104:    2300        .#      MOVS     r3,#0
        0x00000106:    2400        .$      MOVS     r4,#0
        0x00000108:    2500        .%      MOVS     r5,#0
        0x0000010a:    2600        .&      MOVS     r6,#0
        0x0000010c:    3a10        .:      SUBS     r2,r2,#0x10
        0x0000010e:    d301        ..      BCC      0x114 ; __scatterload_zeroinit + 16
        0x00000110:    c178        x.      STM      r1!,{r3-r6}
        0x00000112:    d8fb        ..      BHI      0x10c ; __scatterload_zeroinit + 8
        0x00000114:    0752        R.      LSLS     r2,r2,#29
        0x00000116:    d300        ..      BCC      0x11a ; __scatterload_zeroinit + 22
        0x00000118:    c130        0.      STM      r1!,{r4,r5}
        0x0000011a:    d500        ..      BPL      0x11e ; __scatterload_zeroinit + 26
        0x0000011c:    600b        .`      STR      r3,[r1,#0]
        0x0000011e:    4770        pG      BX       lr
    .ARM.Collect$$_printf_percent$$00000000
    _printf_percent
        0x00000120:    b510        ..      PUSH     {r4,lr}
    .ARM.Collect$$_printf_percent$$00000003
    _printf_f
        0x00000122:    2966        f)      CMP      r1,#0x66
        0x00000124:    d102        ..      BNE      _printf_d ; 0x12c
        0x00000126:    f006f981    ....    BL       _printf_fp_dec ; 0x642c
        0x0000012a:    bd10        ..      POP      {r4,pc}
    .ARM.Collect$$_printf_percent$$00000009
    _printf_d
        0x0000012c:    2964        d)      CMP      r1,#0x64
        0x0000012e:    d102        ..      BNE      _printf_percent_end ; 0x136
        0x00000130:    f003fa18    ....    BL       _printf_int_dec ; 0x3564
        0x00000134:    bd10        ..      POP      {r4,pc}
    .ARM.Collect$$_printf_percent$$00000017
    _printf_percent_end
        0x00000136:    2000        .       MOVS     r0,#0
        0x00000138:    bd10        ..      POP      {r4,pc}
    .ARM.Collect$$libinit$$00000000
    __rt_lib_init
        0x0000013a:    b51f        ..      PUSH     {r0-r4,lr}
    .ARM.Collect$$libinit$$00000001
    __rt_lib_init_fp_1
        0x0000013c:    46c0        .F      MOV      r8,r8
        0x0000013e:    46c0        .F      MOV      r8,r8
    .ARM.Collect$$libinit$$00000008
    .ARM.Collect$$libinit$$0000000A
    .ARM.Collect$$libinit$$0000000C
    .ARM.Collect$$libinit$$0000000D
    __rt_lib_init_heap_1
    __rt_lib_init_lc_common
    __rt_lib_init_rand_1
    __rt_lib_init_user_alloc_1
        0x00000140:    f004fd76    ..v.    BL       __rt_locale ; 0x4c30
        0x00000144:    0004        ..      MOVS     r4,r0
    .ARM.Collect$$libinit$$0000000F
    .ARM.Collect$$libinit$$00000011
    .ARM.Collect$$libinit$$00000013
    .ARM.Collect$$libinit$$00000014
    __rt_lib_init_lc_collate_1
    __rt_lib_init_lc_ctype_1
    __rt_lib_init_lc_monetary_1
    __rt_lib_init_lc_numeric_2
        0x00000146:    2000        .       MOVS     r0,#0
        0x00000148:    2100        .!      MOVS     r1,#0
        0x0000014a:    f005ff6d    ..m.    BL       _get_lc_numeric ; 0x6028
        0x0000014e:    60e0        .`      STR      r0,[r4,#0xc]
    .ARM.Collect$$libinit$$00000015
    .ARM.Collect$$libinit$$00000017
    .ARM.Collect$$libinit$$00000019
    .ARM.Collect$$libinit$$0000001B
    .ARM.Collect$$libinit$$0000001D
    .ARM.Collect$$libinit$$0000001F
    .ARM.Collect$$libinit$$00000021
    .ARM.Collect$$libinit$$00000023
    .ARM.Collect$$libinit$$0000002A
    .ARM.Collect$$libinit$$0000002C
    .ARM.Collect$$libinit$$0000002E
    .ARM.Collect$$libinit$$00000030
    .ARM.Collect$$libinit$$00000031
    __rt_lib_init_alloca_1
    __rt_lib_init_argv_1
    __rt_lib_init_atexit_1
    __rt_lib_init_clock_1
    __rt_lib_init_cpp_1
    __rt_lib_init_exceptions_1
    __rt_lib_init_fp_trap_1
    __rt_lib_init_getenv_1
    __rt_lib_init_lc_numeric_1
    __rt_lib_init_lc_time_1
    __rt_lib_init_return
    __rt_lib_init_signal_1
    __rt_lib_init_stdio_1
        0x00000150:    bd1f        ..      POP      {r0-r4,pc}
    .ARM.Collect$$libshutdown$$00000000
    __rt_lib_shutdown
        0x00000152:    b510        ..      PUSH     {r4,lr}
    .ARM.Collect$$libshutdown$$00000003
    .ARM.Collect$$libshutdown$$00000006
    .ARM.Collect$$libshutdown$$00000009
    .ARM.Collect$$libshutdown$$0000000B
    .ARM.Collect$$libshutdown$$0000000E
    .ARM.Collect$$libshutdown$$0000000F
    __rt_lib_shutdown_fp_trap_1
    __rt_lib_shutdown_heap_1
    __rt_lib_shutdown_return
    __rt_lib_shutdown_signal_1
    __rt_lib_shutdown_stdio_1
    __rt_lib_shutdown_user_alloc_1
        0x00000154:    bd10        ..      POP      {r4,pc}
    .ARM.Collect$$rtentry$$00000000
    .ARM.Collect$$rtentry$$00000002
    .ARM.Collect$$rtentry$$00000004
    __rt_entry
    __rt_entry_presh_1
    __rt_entry_sh
        0x00000156:    f005f92b    ..+.    BL       __user_setup_stackheap ; 0x53b0
        0x0000015a:    4611        .F      MOV      r1,r2
    .ARM.Collect$$rtentry$$00000009
    .ARM.Collect$$rtentry$$0000000A
    __rt_entry_li
    __rt_entry_postsh_1
        0x0000015c:    f7ffffed    ....    BL       __rt_lib_init ; 0x13a
    .ARM.Collect$$rtentry$$0000000C
    .ARM.Collect$$rtentry$$0000000D
    __rt_entry_main
    __rt_entry_postli_1
        0x00000160:    f000fdda    ....    BL       main ; 0xd18
        0x00000164:    f005f943    ..C.    BL       exit ; 0x53ee
    .ARM.Collect$$rtexit$$00000000
    __rt_exit
        0x00000168:    b403        ..      PUSH     {r0,r1}
    .ARM.Collect$$rtexit$$00000002
    .ARM.Collect$$rtexit$$00000003
    __rt_exit_ls
    __rt_exit_prels_1
        0x0000016a:    f7fffff2    ....    BL       __rt_lib_shutdown ; 0x152
    .ARM.Collect$$rtexit$$00000004
    __rt_exit_exit
        0x0000016e:    bc03        ..      POP      {r0,r1}
        0x00000170:    f005f9b8    ....    BL       _sys_exit ; 0x54e4
    .text
    delay_ms
        0x00000174:    b5f8        ..      PUSH     {r3-r7,lr}
        0x00000176:    4604        .F      MOV      r4,r0
        0x00000178:    f001f80a    ....    BL       millis ; 0x1190
        0x0000017c:    4605        .F      MOV      r5,r0
        0x0000017e:    bf00        ..      NOP      
        0x00000180:    f001f806    ....    BL       millis ; 0x1190
        0x00000184:    4607        .F      MOV      r7,r0
        0x00000186:    4629        )F      MOV      r1,r5
        0x00000188:    f006f8e8    ....    BL       __aeabi_fsub ; 0x635c
        0x0000018c:    4606        .F      MOV      r6,r0
        0x0000018e:    4621        !F      MOV      r1,r4
        0x00000190:    f006f836    ..6.    BL       __aeabi_cfcmple ; 0x6200
        0x00000194:    d3f4        ..      BCC      0x180 ; delay_ms + 12
        0x00000196:    bdf8        ..      POP      {r3-r7,pc}
    LOG
        0x00000198:    4770        pG      BX       lr
    LOG2
        0x0000019a:    4770        pG      BX       lr
    LOG3
        0x0000019c:    4770        pG      BX       lr
    stateMachine
        0x0000019e:    b510        ..      PUSH     {r4,lr}
        0x000001a0:    49fe        .I      LDR      r1,[pc,#1016] ; [0x59c] = 0x20000056
        0x000001a2:    2000        .       MOVS     r0,#0
        0x000001a4:    5608        .V      LDRSB    r0,[r1,r0]
        0x000001a6:    49fe        .I      LDR      r1,[pc,#1016] ; [0x5a0] = 0x20000057
        0x000001a8:    7008        .p      STRB     r0,[r1,#0]
        0x000001aa:    48fe        .H      LDR      r0,[pc,#1016] ; [0x5a4] = 0x20000334
        0x000001ac:    f001f856    ..V.    BL       parseUARTbuffer ; 0x125c
        0x000001b0:    b240        @.      SXTB     r0,r0
        0x000001b2:    49fd        .I      LDR      r1,[pc,#1012] ; [0x5a8] = 0x20000054
        0x000001b4:    7008        .p      STRB     r0,[r1,#0]
        0x000001b6:    4608        .F      MOV      r0,r1
        0x000001b8:    2100        .!      MOVS     r1,#0
        0x000001ba:    5641        AV      LDRSB    r1,[r0,r1]
        0x000001bc:    2971        q)      CMP      r1,#0x71
        0x000001be:    d036        6.      BEQ      0x22e ; stateMachine + 144
        0x000001c0:    dc06        ..      BGT      0x1d0 ; stateMachine + 50
        0x000001c2:    2965        e)      CMP      r1,#0x65
        0x000001c4:    d009        ..      BEQ      0x1da ; stateMachine + 60
        0x000001c6:    2966        f)      CMP      r1,#0x66
        0x000001c8:    d018        ..      BEQ      0x1fc ; stateMachine + 94
        0x000001ca:    2970        p)      CMP      r1,#0x70
        0x000001cc:    d147        G.      BNE      0x25e ; stateMachine + 192
        0x000001ce:    e026        &.      B        0x21e ; stateMachine + 128
        0x000001d0:    2972        r)      CMP      r1,#0x72
        0x000001d2:    d034        4.      BEQ      0x23e ; stateMachine + 160
        0x000001d4:    2973        s)      CMP      r1,#0x73
        0x000001d6:    d142        B.      BNE      0x25e ; stateMachine + 192
        0x000001d8:    e039        9.      B        0x24e ; stateMachine + 176
        0x000001da:    a0f4        ..      ADR      r0,{pc}+0x3d2 ; 0x5ac
        0x000001dc:    f7ffffdc    ....    BL       LOG ; 0x198
        0x000001e0:    49ee        .I      LDR      r1,[pc,#952] ; [0x59c] = 0x20000056
        0x000001e2:    2000        .       MOVS     r0,#0
        0x000001e4:    5608        .V      LDRSB    r0,[r1,r0]
        0x000001e6:    f7ffffd9    ....    BL       LOG3 ; 0x19c
        0x000001ea:    a0f5        ..      ADR      r0,{pc}+0x3d6 ; 0x5c0
        0x000001ec:    f7ffffd4    ....    BL       LOG ; 0x198
        0x000001f0:    f002fecb    ....    BL       motorESTOP ; 0x2f8a
        0x000001f4:    2001        .       MOVS     r0,#1
        0x000001f6:    49f3        .I      LDR      r1,[pc,#972] ; [0x5c4] = 0x20000058
        0x000001f8:    7008        .p      STRB     r0,[r1,#0]
        0x000001fa:    e031        1.      B        0x260 ; stateMachine + 194
        0x000001fc:    a0f2        ..      ADR      r0,{pc}+0x3cc ; 0x5c8
        0x000001fe:    f7ffffcb    ....    BL       LOG ; 0x198
        0x00000202:    49e6        .I      LDR      r1,[pc,#920] ; [0x59c] = 0x20000056
        0x00000204:    2000        .       MOVS     r0,#0
        0x00000206:    5608        .V      LDRSB    r0,[r1,r0]
        0x00000208:    f7ffffc8    ....    BL       LOG3 ; 0x19c
        0x0000020c:    a0ec        ..      ADR      r0,{pc}+0x3b4 ; 0x5c0
        0x0000020e:    f7ffffc3    ....    BL       LOG ; 0x198
        0x00000212:    f002fea9    ....    BL       motorEnable ; 0x2f68
        0x00000216:    2000        .       MOVS     r0,#0
        0x00000218:    49ea        .I      LDR      r1,[pc,#936] ; [0x5c4] = 0x20000058
        0x0000021a:    7008        .p      STRB     r0,[r1,#0]
        0x0000021c:    e020         .      B        0x260 ; stateMachine + 194
        0x0000021e:    48e1        .H      LDR      r0,[pc,#900] ; [0x5a4] = 0x20000334
        0x00000220:    6800        .h      LDR      r0,[r0,#0]
        0x00000222:    49ef        .I      LDR      r1,[pc,#956] ; [0x5e0] = 0x20000024
        0x00000224:    6008        .`      STR      r0,[r1,#0]
        0x00000226:    2000        .       MOVS     r0,#0
        0x00000228:    49de        .I      LDR      r1,[pc,#888] ; [0x5a4] = 0x20000334
        0x0000022a:    6008        .`      STR      r0,[r1,#0]
        0x0000022c:    e018        ..      B        0x260 ; stateMachine + 194
        0x0000022e:    48dd        .H      LDR      r0,[pc,#884] ; [0x5a4] = 0x20000334
        0x00000230:    6800        .h      LDR      r0,[r0,#0]
        0x00000232:    49ec        .I      LDR      r1,[pc,#944] ; [0x5e4] = 0x20000028
        0x00000234:    6008        .`      STR      r0,[r1,#0]
        0x00000236:    2000        .       MOVS     r0,#0
        0x00000238:    49da        .I      LDR      r1,[pc,#872] ; [0x5a4] = 0x20000334
        0x0000023a:    6008        .`      STR      r0,[r1,#0]
        0x0000023c:    e010        ..      B        0x260 ; stateMachine + 194
        0x0000023e:    48d9        .H      LDR      r0,[pc,#868] ; [0x5a4] = 0x20000334
        0x00000240:    6800        .h      LDR      r0,[r0,#0]
        0x00000242:    49e9        .I      LDR      r1,[pc,#932] ; [0x5e8] = 0x2000002c
        0x00000244:    6008        .`      STR      r0,[r1,#0]
        0x00000246:    2000        .       MOVS     r0,#0
        0x00000248:    49d6        .I      LDR      r1,[pc,#856] ; [0x5a4] = 0x20000334
        0x0000024a:    6008        .`      STR      r0,[r1,#0]
        0x0000024c:    e008        ..      B        0x260 ; stateMachine + 194
        0x0000024e:    48d5        .H      LDR      r0,[pc,#852] ; [0x5a4] = 0x20000334
        0x00000250:    6800        .h      LDR      r0,[r0,#0]
        0x00000252:    49e6        .I      LDR      r1,[pc,#920] ; [0x5ec] = 0x20000034
        0x00000254:    6008        .`      STR      r0,[r1,#0]
        0x00000256:    2000        .       MOVS     r0,#0
        0x00000258:    49d2        .I      LDR      r1,[pc,#840] ; [0x5a4] = 0x20000334
        0x0000025a:    6008        .`      STR      r0,[r1,#0]
        0x0000025c:    e000        ..      B        0x260 ; stateMachine + 194
        0x0000025e:    bf00        ..      NOP      
        0x00000260:    bf00        ..      NOP      
        0x00000262:    bd10        ..      POP      {r4,pc}
    controller
        0x00000264:    b500        ..      PUSH     {lr}
        0x00000266:    b095        ..      SUB      sp,sp,#0x54
        0x00000268:    48cc        .H      LDR      r0,[pc,#816] ; [0x59c] = 0x20000056
        0x0000026a:    2100        .!      MOVS     r1,#0
        0x0000026c:    5641        AV      LDRSB    r1,[r0,r1]
        0x0000026e:    2901        .)      CMP      r1,#1
        0x00000270:    d006        ..      BEQ      0x280 ; controller + 28
        0x00000272:    2903        .)      CMP      r1,#3
        0x00000274:    d005        ..      BEQ      0x282 ; controller + 30
        0x00000276:    291f        .)      CMP      r1,#0x1f
        0x00000278:    d004        ..      BEQ      0x284 ; controller + 32
        0x0000027a:    2927        ')      CMP      r1,#0x27
        0x0000027c:    d17e        ~.      BNE      0x37c ; controller + 280
        0x0000027e:    e002        ..      B        0x286 ; controller + 34
        0x00000280:    bf00        ..      NOP      
        0x00000282:    bf00        ..      NOP      
        0x00000284:    bf00        ..      NOP      
        0x00000286:    48c5        .H      LDR      r0,[pc,#788] ; [0x59c] = 0x20000056
        0x00000288:    2100        .!      MOVS     r1,#0
        0x0000028a:    5641        AV      LDRSB    r1,[r0,r1]
        0x0000028c:    2901        .)      CMP      r1,#1
        0x0000028e:    d002        ..      BEQ      0x296 ; controller + 50
        0x00000290:    2903        .)      CMP      r1,#3
        0x00000292:    d174        t.      BNE      0x37e ; controller + 282
        0x00000294:    e000        ..      B        0x298 ; controller + 52
        0x00000296:    bf00        ..      NOP      
        0x00000298:    48ca        .H      LDR      r0,[pc,#808] ; [0x5c4] = 0x20000058
        0x0000029a:    7800        .x      LDRB     r0,[r0,#0]
        0x0000029c:    2801        .(      CMP      r0,#1
        0x0000029e:    d104        ..      BNE      0x2aa ; controller + 70
        0x000002a0:    2000        .       MOVS     r0,#0
        0x000002a2:    49d3        .I      LDR      r1,[pc,#844] ; [0x5f0] = 0x200001b4
        0x000002a4:    6008        .`      STR      r0,[r1,#0]
        0x000002a6:    6048        H`      STR      r0,[r1,#4]
        0x000002a8:    6088        .`      STR      r0,[r1,#8]
        0x000002aa:    48be        .H      LDR      r0,[pc,#760] ; [0x5a4] = 0x20000334
        0x000002ac:    6800        .h      LDR      r0,[r0,#0]
        0x000002ae:    2100        .!      MOVS     r1,#0
        0x000002b0:    9011        ..      STR      r0,[sp,#0x44]
        0x000002b2:    f005ff7b    ..{.    BL       __aeabi_cfcmpeq ; 0x61ac
        0x000002b6:    d102        ..      BNE      0x2be ; controller + 90
        0x000002b8:    2000        .       MOVS     r0,#0
        0x000002ba:    49cd        .I      LDR      r1,[pc,#820] ; [0x5f0] = 0x200001b4
        0x000002bc:    6008        .`      STR      r0,[r1,#0]
        0x000002be:    48b9        .H      LDR      r0,[pc,#740] ; [0x5a4] = 0x20000334
        0x000002c0:    6840        @h      LDR      r0,[r0,#4]
        0x000002c2:    2100        .!      MOVS     r1,#0
        0x000002c4:    9011        ..      STR      r0,[sp,#0x44]
        0x000002c6:    f005ff71    ..q.    BL       __aeabi_cfcmpeq ; 0x61ac
        0x000002ca:    d102        ..      BNE      0x2d2 ; controller + 110
        0x000002cc:    2000        .       MOVS     r0,#0
        0x000002ce:    49c8        .I      LDR      r1,[pc,#800] ; [0x5f0] = 0x200001b4
        0x000002d0:    6048        H`      STR      r0,[r1,#4]
        0x000002d2:    48b4        .H      LDR      r0,[pc,#720] ; [0x5a4] = 0x20000334
        0x000002d4:    6880        .h      LDR      r0,[r0,#8]
        0x000002d6:    2100        .!      MOVS     r1,#0
        0x000002d8:    9011        ..      STR      r0,[sp,#0x44]
        0x000002da:    f005ff67    ..g.    BL       __aeabi_cfcmpeq ; 0x61ac
        0x000002de:    d102        ..      BNE      0x2e6 ; controller + 130
        0x000002e0:    2000        .       MOVS     r0,#0
        0x000002e2:    49c3        .I      LDR      r1,[pc,#780] ; [0x5f0] = 0x200001b4
        0x000002e4:    6088        .`      STR      r0,[r1,#8]
        0x000002e6:    48c3        .H      LDR      r0,[pc,#780] ; [0x5f4] = 0x2000001c
        0x000002e8:    6800        .h      LDR      r0,[r0,#0]
        0x000002ea:    1c40        @.      ADDS     r0,r0,#1
        0x000002ec:    49c1        .I      LDR      r1,[pc,#772] ; [0x5f4] = 0x2000001c
        0x000002ee:    6008        .`      STR      r0,[r1,#0]
        0x000002f0:    2000        .       MOVS     r0,#0
        0x000002f2:    f002fd47    ..G.    BL       get_pulse ; 0x2d84
        0x000002f6:    4601        .F      MOV      r1,r0
        0x000002f8:    900b        ..      STR      r0,[sp,#0x2c]
        0x000002fa:    207f        .       MOVS     r0,#0x7f
        0x000002fc:    05c0        ..      LSLS     r0,r0,#23
        0x000002fe:    f004f855    ..U.    BL       __aeabi_fdiv ; 0x43ac
        0x00000302:    49bd        .I      LDR      r1,[pc,#756] ; [0x5f8] = 0x46160000
        0x00000304:    900c        ..      STR      r0,[sp,#0x30]
        0x00000306:    f005ffa5    ....    BL       __aeabi_fmul ; 0x6254
        0x0000030a:    900d        ..      STR      r0,[sp,#0x34]
        0x0000030c:    f004f822    ..".    BL       __aeabi_f2d ; 0x4354
        0x00000310:    910f        ..      STR      r1,[sp,#0x3c]
        0x00000312:    900e        ..      STR      r0,[sp,#0x38]
        0x00000314:    48b9        .H      LDR      r0,[pc,#740] ; [0x5fc] = 0x20000000
        0x00000316:    c80c        ..      LDM      r0!,{r2,r3}
        0x00000318:    980e        ..      LDR      r0,[sp,#0x38]
        0x0000031a:    f003feef    ....    BL       __aeabi_dmul ; 0x40fc
        0x0000031e:    9111        ..      STR      r1,[sp,#0x44]
        0x00000320:    9010        ..      STR      r0,[sp,#0x40]
        0x00000322:    f003fab5    ....    BL       __aeabi_d2f ; 0x3890
        0x00000326:    49b6        .I      LDR      r1,[pc,#728] ; [0x600] = 0x2000019c
        0x00000328:    6008        .`      STR      r0,[r1,#0]
        0x0000032a:    2001        .       MOVS     r0,#1
        0x0000032c:    f002fd2a    ..*.    BL       get_pulse ; 0x2d84
        0x00000330:    4601        .F      MOV      r1,r0
        0x00000332:    900b        ..      STR      r0,[sp,#0x2c]
        0x00000334:    207f        .       MOVS     r0,#0x7f
        0x00000336:    05c0        ..      LSLS     r0,r0,#23
        0x00000338:    f004f838    ..8.    BL       __aeabi_fdiv ; 0x43ac
        0x0000033c:    49ae        .I      LDR      r1,[pc,#696] ; [0x5f8] = 0x46160000
        0x0000033e:    900c        ..      STR      r0,[sp,#0x30]
        0x00000340:    f005ff88    ....    BL       __aeabi_fmul ; 0x6254
        0x00000344:    900d        ..      STR      r0,[sp,#0x34]
        0x00000346:    f004f805    ....    BL       __aeabi_f2d ; 0x4354
        0x0000034a:    910f        ..      STR      r1,[sp,#0x3c]
        0x0000034c:    900e        ..      STR      r0,[sp,#0x38]
        0x0000034e:    48ab        .H      LDR      r0,[pc,#684] ; [0x5fc] = 0x20000000
        0x00000350:    c80c        ..      LDM      r0!,{r2,r3}
        0x00000352:    980e        ..      LDR      r0,[sp,#0x38]
        0x00000354:    f003fed2    ....    BL       __aeabi_dmul ; 0x40fc
        0x00000358:    9111        ..      STR      r1,[sp,#0x44]
        0x0000035a:    9010        ..      STR      r0,[sp,#0x40]
        0x0000035c:    f003fa98    ....    BL       __aeabi_d2f ; 0x3890
        0x00000360:    49a7        .I      LDR      r1,[pc,#668] ; [0x600] = 0x2000019c
        0x00000362:    6048        H`      STR      r0,[r1,#4]
        0x00000364:    2002        .       MOVS     r0,#2
        0x00000366:    f002fd0d    ....    BL       get_pulse ; 0x2d84
        0x0000036a:    4601        .F      MOV      r1,r0
        0x0000036c:    900b        ..      STR      r0,[sp,#0x2c]
        0x0000036e:    207f        .       MOVS     r0,#0x7f
        0x00000370:    05c0        ..      LSLS     r0,r0,#23
        0x00000372:    f004f81b    ....    BL       __aeabi_fdiv ; 0x43ac
        0x00000376:    49a0        .I      LDR      r1,[pc,#640] ; [0x5f8] = 0x46160000
        0x00000378:    900c        ..      STR      r0,[sp,#0x30]
        0x0000037a:    e001        ..      B        0x380 ; controller + 284
        0x0000037c:    e1ef        ..      B        0x75e ; controller + 1274
        0x0000037e:    e1ce        ..      B        0x71e ; controller + 1210
        0x00000380:    f005ff68    ..h.    BL       __aeabi_fmul ; 0x6254
        0x00000384:    900d        ..      STR      r0,[sp,#0x34]
        0x00000386:    f003ffe5    ....    BL       __aeabi_f2d ; 0x4354
        0x0000038a:    910f        ..      STR      r1,[sp,#0x3c]
        0x0000038c:    900e        ..      STR      r0,[sp,#0x38]
        0x0000038e:    489b        .H      LDR      r0,[pc,#620] ; [0x5fc] = 0x20000000
        0x00000390:    c80c        ..      LDM      r0!,{r2,r3}
        0x00000392:    980e        ..      LDR      r0,[sp,#0x38]
        0x00000394:    f003feb2    ....    BL       __aeabi_dmul ; 0x40fc
        0x00000398:    9111        ..      STR      r1,[sp,#0x44]
        0x0000039a:    9010        ..      STR      r0,[sp,#0x40]
        0x0000039c:    f003fa78    ..x.    BL       __aeabi_d2f ; 0x3890
        0x000003a0:    4997        .I      LDR      r1,[pc,#604] ; [0x600] = 0x2000019c
        0x000003a2:    6088        .`      STR      r0,[r1,#8]
        0x000003a4:    2000        .       MOVS     r0,#0
        0x000003a6:    9012        ..      STR      r0,[sp,#0x48]
        0x000003a8:    9013        ..      STR      r0,[sp,#0x4c]
        0x000003aa:    9014        ..      STR      r0,[sp,#0x50]
        0x000003ac:    4608        .F      MOV      r0,r1
        0x000003ae:    6800        .h      LDR      r0,[r0,#0]
        0x000003b0:    9011        ..      STR      r0,[sp,#0x44]
        0x000003b2:    4894        .H      LDR      r0,[pc,#592] ; [0x604] = 0x20000190
        0x000003b4:    6800        .h      LDR      r0,[r0,#0]
        0x000003b6:    9010        ..      STR      r0,[sp,#0x40]
        0x000003b8:    9911        ..      LDR      r1,[sp,#0x44]
        0x000003ba:    f005ffcf    ....    BL       __aeabi_fsub ; 0x635c
        0x000003be:    9012        ..      STR      r0,[sp,#0x48]
        0x000003c0:    488f        .H      LDR      r0,[pc,#572] ; [0x600] = 0x2000019c
        0x000003c2:    6840        @h      LDR      r0,[r0,#4]
        0x000003c4:    9011        ..      STR      r0,[sp,#0x44]
        0x000003c6:    488f        .H      LDR      r0,[pc,#572] ; [0x604] = 0x20000190
        0x000003c8:    6840        @h      LDR      r0,[r0,#4]
        0x000003ca:    9010        ..      STR      r0,[sp,#0x40]
        0x000003cc:    9911        ..      LDR      r1,[sp,#0x44]
        0x000003ce:    f005ffc5    ....    BL       __aeabi_fsub ; 0x635c
        0x000003d2:    9013        ..      STR      r0,[sp,#0x4c]
        0x000003d4:    488a        .H      LDR      r0,[pc,#552] ; [0x600] = 0x2000019c
        0x000003d6:    6880        .h      LDR      r0,[r0,#8]
        0x000003d8:    9011        ..      STR      r0,[sp,#0x44]
        0x000003da:    488a        .H      LDR      r0,[pc,#552] ; [0x604] = 0x20000190
        0x000003dc:    6880        .h      LDR      r0,[r0,#8]
        0x000003de:    9010        ..      STR      r0,[sp,#0x40]
        0x000003e0:    9911        ..      LDR      r1,[sp,#0x44]
        0x000003e2:    f005ffbb    ....    BL       __aeabi_fsub ; 0x635c
        0x000003e6:    9014        ..      STR      r0,[sp,#0x50]
        0x000003e8:    4886        .H      LDR      r0,[pc,#536] ; [0x604] = 0x20000190
        0x000003ea:    6800        .h      LDR      r0,[r0,#0]
        0x000003ec:    4986        .I      LDR      r1,[pc,#536] ; [0x608] = 0x20000158
        0x000003ee:    6008        .`      STR      r0,[r1,#0]
        0x000003f0:    4883        .H      LDR      r0,[pc,#524] ; [0x600] = 0x2000019c
        0x000003f2:    6800        .h      LDR      r0,[r0,#0]
        0x000003f4:    6048        H`      STR      r0,[r1,#4]
        0x000003f6:    9812        ..      LDR      r0,[sp,#0x48]
        0x000003f8:    6088        .`      STR      r0,[r1,#8]
        0x000003fa:    9812        ..      LDR      r0,[sp,#0x48]
        0x000003fc:    9011        ..      STR      r0,[sp,#0x44]
        0x000003fe:    487c        |H      LDR      r0,[pc,#496] ; [0x5f0] = 0x200001b4
        0x00000400:    6800        .h      LDR      r0,[r0,#0]
        0x00000402:    9010        ..      STR      r0,[sp,#0x40]
        0x00000404:    9911        ..      LDR      r1,[sp,#0x44]
        0x00000406:    f005fe8b    ....    BL       __aeabi_fadd ; 0x6120
        0x0000040a:    4979        yI      LDR      r1,[pc,#484] ; [0x5f0] = 0x200001b4
        0x0000040c:    6008        .`      STR      r0,[r1,#0]
        0x0000040e:    9813        ..      LDR      r0,[sp,#0x4c]
        0x00000410:    9011        ..      STR      r0,[sp,#0x44]
        0x00000412:    4608        .F      MOV      r0,r1
        0x00000414:    6840        @h      LDR      r0,[r0,#4]
        0x00000416:    9010        ..      STR      r0,[sp,#0x40]
        0x00000418:    9911        ..      LDR      r1,[sp,#0x44]
        0x0000041a:    f005fe81    ....    BL       __aeabi_fadd ; 0x6120
        0x0000041e:    4974        tI      LDR      r1,[pc,#464] ; [0x5f0] = 0x200001b4
        0x00000420:    6048        H`      STR      r0,[r1,#4]
        0x00000422:    9814        ..      LDR      r0,[sp,#0x50]
        0x00000424:    9011        ..      STR      r0,[sp,#0x44]
        0x00000426:    4608        .F      MOV      r0,r1
        0x00000428:    6880        .h      LDR      r0,[r0,#8]
        0x0000042a:    9010        ..      STR      r0,[sp,#0x40]
        0x0000042c:    9911        ..      LDR      r1,[sp,#0x44]
        0x0000042e:    f005fe77    ..w.    BL       __aeabi_fadd ; 0x6120
        0x00000432:    496f        oI      LDR      r1,[pc,#444] ; [0x5f0] = 0x200001b4
        0x00000434:    6088        .`      STR      r0,[r1,#8]
        0x00000436:    4875        uH      LDR      r0,[pc,#468] ; [0x60c] = 0x200001a8
        0x00000438:    6800        .h      LDR      r0,[r0,#0]
        0x0000043a:    900d        ..      STR      r0,[sp,#0x34]
        0x0000043c:    9812        ..      LDR      r0,[sp,#0x48]
        0x0000043e:    900c        ..      STR      r0,[sp,#0x30]
        0x00000440:    990d        ..      LDR      r1,[sp,#0x34]
        0x00000442:    f005ff8b    ....    BL       __aeabi_fsub ; 0x635c
        0x00000446:    900e        ..      STR      r0,[sp,#0x38]
        0x00000448:    4867        gH      LDR      r0,[pc,#412] ; [0x5e8] = 0x2000002c
        0x0000044a:    6801        .h      LDR      r1,[r0,#0]
        0x0000044c:    980e        ..      LDR      r0,[sp,#0x38]
        0x0000044e:    f005ff01    ....    BL       __aeabi_fmul ; 0x6254
        0x00000452:    9010        ..      STR      r0,[sp,#0x40]
        0x00000454:    4866        fH      LDR      r0,[pc,#408] ; [0x5f0] = 0x200001b4
        0x00000456:    6800        .h      LDR      r0,[r0,#0]
        0x00000458:    4601        .F      MOV      r1,r0
        0x0000045a:    900c        ..      STR      r0,[sp,#0x30]
        0x0000045c:    4861        aH      LDR      r0,[pc,#388] ; [0x5e4] = 0x20000028
        0x0000045e:    6800        .h      LDR      r0,[r0,#0]
        0x00000460:    f005fef8    ....    BL       __aeabi_fmul ; 0x6254
        0x00000464:    900e        ..      STR      r0,[sp,#0x38]
        0x00000466:    9812        ..      LDR      r0,[sp,#0x48]
        0x00000468:    4601        .F      MOV      r1,r0
        0x0000046a:    900c        ..      STR      r0,[sp,#0x30]
        0x0000046c:    485c        \H      LDR      r0,[pc,#368] ; [0x5e0] = 0x20000024
        0x0000046e:    6800        .h      LDR      r0,[r0,#0]
        0x00000470:    f005fef0    ....    BL       __aeabi_fmul ; 0x6254
        0x00000474:    900d        ..      STR      r0,[sp,#0x34]
        0x00000476:    990e        ..      LDR      r1,[sp,#0x38]
        0x00000478:    f005fe52    ..R.    BL       __aeabi_fadd ; 0x6120
        0x0000047c:    900f        ..      STR      r0,[sp,#0x3c]
        0x0000047e:    9910        ..      LDR      r1,[sp,#0x40]
        0x00000480:    f005fe4e    ..N.    BL       __aeabi_fadd ; 0x6120
        0x00000484:    9011        ..      STR      r0,[sp,#0x44]
        0x00000486:    4862        bH      LDR      r0,[pc,#392] ; [0x610] = 0x20000018
        0x00000488:    6801        .h      LDR      r1,[r0,#0]
        0x0000048a:    9811        ..      LDR      r0,[sp,#0x44]
        0x0000048c:    f003ff8e    ....    BL       __aeabi_fdiv ; 0x43ac
        0x00000490:    495d        ]I      LDR      r1,[pc,#372] ; [0x608] = 0x20000158
        0x00000492:    60c8        .`      STR      r0,[r1,#0xc]
        0x00000494:    4859        YH      LDR      r0,[pc,#356] ; [0x5fc] = 0x20000000
        0x00000496:    c80c        ..      LDM      r0!,{r2,r3}
        0x00000498:    2000        .       MOVS     r0,#0
        0x0000049a:    495e        ^I      LDR      r1,[pc,#376] ; [0x614] = 0x40790000
        0x0000049c:    f003fe2e    ....    BL       __aeabi_dmul ; 0x40fc
        0x000004a0:    9107        ..      STR      r1,[sp,#0x1c]
        0x000004a2:    9006        ..      STR      r0,[sp,#0x18]
        0x000004a4:    4857        WH      LDR      r0,[pc,#348] ; [0x604] = 0x20000190
        0x000004a6:    6800        .h      LDR      r0,[r0,#0]
        0x000004a8:    495b        [I      LDR      r1,[pc,#364] ; [0x618] = 0x3eb33333
        0x000004aa:    9002        ..      STR      r0,[sp,#8]
        0x000004ac:    f005fed2    ....    BL       __aeabi_fmul ; 0x6254
        0x000004b0:    9003        ..      STR      r0,[sp,#0xc]
        0x000004b2:    f003ff4f    ..O.    BL       __aeabi_f2d ; 0x4354
        0x000004b6:    9105        ..      STR      r1,[sp,#0x14]
        0x000004b8:    9004        ..      STR      r0,[sp,#0x10]
        0x000004ba:    9b07        ..      LDR      r3,[sp,#0x1c]
        0x000004bc:    9a06        ..      LDR      r2,[sp,#0x18]
        0x000004be:    f003fbcb    ....    BL       __aeabi_ddiv ; 0x3c58
        0x000004c2:    910b        ..      STR      r1,[sp,#0x2c]
        0x000004c4:    900a        ..      STR      r0,[sp,#0x28]
        0x000004c6:    4850        PH      LDR      r0,[pc,#320] ; [0x608] = 0x20000158
        0x000004c8:    68c0        .h      LDR      r0,[r0,#0xc]
        0x000004ca:    9007        ..      STR      r0,[sp,#0x1c]
        0x000004cc:    f003ff42    ..B.    BL       __aeabi_f2d ; 0x4354
        0x000004d0:    9109        ..      STR      r1,[sp,#0x24]
        0x000004d2:    9008        ..      STR      r0,[sp,#0x20]
        0x000004d4:    9b0b        ..      LDR      r3,[sp,#0x2c]
        0x000004d6:    9a0a        ..      LDR      r2,[sp,#0x28]
        0x000004d8:    f003fb91    ....    BL       __aeabi_dadd ; 0x3bfe
        0x000004dc:    910f        ..      STR      r1,[sp,#0x3c]
        0x000004de:    900e        ..      STR      r0,[sp,#0x38]
        0x000004e0:    484e        NH      LDR      r0,[pc,#312] ; [0x61c] = 0x2000000c
        0x000004e2:    6800        .h      LDR      r0,[r0,#0]
        0x000004e4:    900b        ..      STR      r0,[sp,#0x2c]
        0x000004e6:    f003ff35    ..5.    BL       __aeabi_f2d ; 0x4354
        0x000004ea:    910d        ..      STR      r1,[sp,#0x34]
        0x000004ec:    900c        ..      STR      r0,[sp,#0x30]
        0x000004ee:    9b0f        ..      LDR      r3,[sp,#0x3c]
        0x000004f0:    9a0e        ..      LDR      r2,[sp,#0x38]
        0x000004f2:    f003fe03    ....    BL       __aeabi_dmul ; 0x40fc
        0x000004f6:    9111        ..      STR      r1,[sp,#0x44]
        0x000004f8:    9010        ..      STR      r0,[sp,#0x40]
        0x000004fa:    f003f9c9    ....    BL       __aeabi_d2f ; 0x3890
        0x000004fe:    4948        HI      LDR      r1,[pc,#288] ; [0x620] = 0x20000230
        0x00000500:    6008        .`      STR      r0,[r1,#0]
        0x00000502:    483e        >H      LDR      r0,[pc,#248] ; [0x5fc] = 0x20000000
        0x00000504:    c80c        ..      LDM      r0!,{r2,r3}
        0x00000506:    2000        .       MOVS     r0,#0
        0x00000508:    4942        BI      LDR      r1,[pc,#264] ; [0x614] = 0x40790000
        0x0000050a:    f003fdf7    ....    BL       __aeabi_dmul ; 0x40fc
        0x0000050e:    9107        ..      STR      r1,[sp,#0x1c]
        0x00000510:    9006        ..      STR      r0,[sp,#0x18]
        0x00000512:    483c        <H      LDR      r0,[pc,#240] ; [0x604] = 0x20000190
        0x00000514:    6840        @h      LDR      r0,[r0,#4]
        0x00000516:    4940        @I      LDR      r1,[pc,#256] ; [0x618] = 0x3eb33333
        0x00000518:    9002        ..      STR      r0,[sp,#8]
        0x0000051a:    f005fe9b    ....    BL       __aeabi_fmul ; 0x6254
        0x0000051e:    9003        ..      STR      r0,[sp,#0xc]
        0x00000520:    f003ff18    ....    BL       __aeabi_f2d ; 0x4354
        0x00000524:    9105        ..      STR      r1,[sp,#0x14]
        0x00000526:    9004        ..      STR      r0,[sp,#0x10]
        0x00000528:    9b07        ..      LDR      r3,[sp,#0x1c]
        0x0000052a:    9a06        ..      LDR      r2,[sp,#0x18]
        0x0000052c:    f003fb94    ....    BL       __aeabi_ddiv ; 0x3c58
        0x00000530:    910b        ..      STR      r1,[sp,#0x2c]
        0x00000532:    900a        ..      STR      r0,[sp,#0x28]
        0x00000534:    4835        5H      LDR      r0,[pc,#212] ; [0x60c] = 0x200001a8
        0x00000536:    6840        @h      LDR      r0,[r0,#4]
        0x00000538:    9002        ..      STR      r0,[sp,#8]
        0x0000053a:    9813        ..      LDR      r0,[sp,#0x4c]
        0x0000053c:    9001        ..      STR      r0,[sp,#4]
        0x0000053e:    9902        ..      LDR      r1,[sp,#8]
        0x00000540:    f005ff0c    ....    BL       __aeabi_fsub ; 0x635c
        0x00000544:    9003        ..      STR      r0,[sp,#0xc]
        0x00000546:    4828        (H      LDR      r0,[pc,#160] ; [0x5e8] = 0x2000002c
        0x00000548:    6801        .h      LDR      r1,[r0,#0]
        0x0000054a:    9803        ..      LDR      r0,[sp,#0xc]
        0x0000054c:    f005fe82    ....    BL       __aeabi_fmul ; 0x6254
        0x00000550:    9005        ..      STR      r0,[sp,#0x14]
        0x00000552:    4827        'H      LDR      r0,[pc,#156] ; [0x5f0] = 0x200001b4
        0x00000554:    6840        @h      LDR      r0,[r0,#4]
        0x00000556:    4601        .F      MOV      r1,r0
        0x00000558:    9001        ..      STR      r0,[sp,#4]
        0x0000055a:    4822        "H      LDR      r0,[pc,#136] ; [0x5e4] = 0x20000028
        0x0000055c:    6800        .h      LDR      r0,[r0,#0]
        0x0000055e:    f005fe79    ..y.    BL       __aeabi_fmul ; 0x6254
        0x00000562:    9003        ..      STR      r0,[sp,#0xc]
        0x00000564:    9813        ..      LDR      r0,[sp,#0x4c]
        0x00000566:    4601        .F      MOV      r1,r0
        0x00000568:    9001        ..      STR      r0,[sp,#4]
        0x0000056a:    481d        .H      LDR      r0,[pc,#116] ; [0x5e0] = 0x20000024
        0x0000056c:    6800        .h      LDR      r0,[r0,#0]
        0x0000056e:    f005fe71    ..q.    BL       __aeabi_fmul ; 0x6254
        0x00000572:    9002        ..      STR      r0,[sp,#8]
        0x00000574:    9903        ..      LDR      r1,[sp,#0xc]
        0x00000576:    f005fdd3    ....    BL       __aeabi_fadd ; 0x6120
        0x0000057a:    9004        ..      STR      r0,[sp,#0x10]
        0x0000057c:    9905        ..      LDR      r1,[sp,#0x14]
        0x0000057e:    f005fdcf    ....    BL       __aeabi_fadd ; 0x6120
        0x00000582:    9006        ..      STR      r0,[sp,#0x18]
        0x00000584:    4822        "H      LDR      r0,[pc,#136] ; [0x610] = 0x20000018
        0x00000586:    6801        .h      LDR      r1,[r0,#0]
        0x00000588:    9806        ..      LDR      r0,[sp,#0x18]
        0x0000058a:    f003ff0f    ....    BL       __aeabi_fdiv ; 0x43ac
        0x0000058e:    9007        ..      STR      r0,[sp,#0x1c]
        0x00000590:    f003fee0    ....    BL       __aeabi_f2d ; 0x4354
        0x00000594:    9109        ..      STR      r1,[sp,#0x24]
        0x00000596:    9008        ..      STR      r0,[sp,#0x20]
        0x00000598:    9b0b        ..      LDR      r3,[sp,#0x2c]
        0x0000059a:    e043        C.      B        0x624 ; controller + 960
    $d
        0x0000059c:    20000056    V..     DCD    536870998
        0x000005a0:    20000057    W..     DCD    536870999
        0x000005a4:    20000334    4..     DCD    536871732
        0x000005a8:    20000054    T..     DCD    536870996
        0x000005ac:    74617473    stat    DCD    1952543859
        0x000005b0:    63614d65    eMac    DCD    1667321189
        0x000005b4:    656e6968    hine    DCD    1701734760
        0x000005b8:    646f6d20     mod    DCD    1685024032
        0x000005bc:    00002065    e ..    DCD    8293
        0x000005c0:    0000000a    ....    DCD    10
        0x000005c4:    20000058    X..     DCD    536871000
        0x000005c8:    73202d2d    -- s    DCD    1931488557
        0x000005cc:    65746174    tate    DCD    1702125940
        0x000005d0:    6863614d    Mach    DCD    1751343437
        0x000005d4:    20656e69    ine     DCD    543518313
        0x000005d8:    65646f6d    mode    DCD    1701080941
        0x000005dc:    00000020     ...    DCD    32
        0x000005e0:    20000024    $..     DCD    536870948
        0x000005e4:    20000028    (..     DCD    536870952
        0x000005e8:    2000002c    ,..     DCD    536870956
        0x000005ec:    20000034    4..     DCD    536870964
        0x000005f0:    200001b4    ...     DCD    536871348
        0x000005f4:    2000001c    ...     DCD    536870940
        0x000005f8:    46160000    ...F    DCD    1175846912
        0x000005fc:    20000000    ...     DCD    536870912
        0x00000600:    2000019c    ...     DCD    536871324
        0x00000604:    20000190    ...     DCD    536871312
        0x00000608:    20000158    X..     DCD    536871256
        0x0000060c:    200001a8    ...     DCD    536871336
        0x00000610:    20000018    ...     DCD    536870936
        0x00000614:    40790000    ..y@    DCD    1081671680
        0x00000618:    3eb33333    33.>    DCD    1051931443
        0x0000061c:    2000000c    ...     DCD    536870924
        0x00000620:    20000230    0..     DCD    536871472
    $t
        0x00000624:    9a0a        ..      LDR      r2,[sp,#0x28]
        0x00000626:    f003faea    ....    BL       __aeabi_dadd ; 0x3bfe
        0x0000062a:    910f        ..      STR      r1,[sp,#0x3c]
        0x0000062c:    900e        ..      STR      r0,[sp,#0x38]
        0x0000062e:    48fe        .H      LDR      r0,[pc,#1016] ; [0xa28] = 0x2000000c
        0x00000630:    6840        @h      LDR      r0,[r0,#4]
        0x00000632:    900b        ..      STR      r0,[sp,#0x2c]
        0x00000634:    f003fe8e    ....    BL       __aeabi_f2d ; 0x4354
        0x00000638:    910d        ..      STR      r1,[sp,#0x34]
        0x0000063a:    900c        ..      STR      r0,[sp,#0x30]
        0x0000063c:    9b0f        ..      LDR      r3,[sp,#0x3c]
        0x0000063e:    9a0e        ..      LDR      r2,[sp,#0x38]
        0x00000640:    f003fd5c    ..\.    BL       __aeabi_dmul ; 0x40fc
        0x00000644:    9111        ..      STR      r1,[sp,#0x44]
        0x00000646:    9010        ..      STR      r0,[sp,#0x40]
        0x00000648:    f003f922    ..".    BL       __aeabi_d2f ; 0x3890
        0x0000064c:    49f7        .I      LDR      r1,[pc,#988] ; [0xa2c] = 0x20000230
        0x0000064e:    6048        H`      STR      r0,[r1,#4]
        0x00000650:    48f7        .H      LDR      r0,[pc,#988] ; [0xa30] = 0x20000000
        0x00000652:    c80c        ..      LDM      r0!,{r2,r3}
        0x00000654:    2000        .       MOVS     r0,#0
        0x00000656:    49f7        .I      LDR      r1,[pc,#988] ; [0xa34] = 0x40790000
        0x00000658:    f003fd50    ..P.    BL       __aeabi_dmul ; 0x40fc
        0x0000065c:    9107        ..      STR      r1,[sp,#0x1c]
        0x0000065e:    9006        ..      STR      r0,[sp,#0x18]
        0x00000660:    48f5        .H      LDR      r0,[pc,#980] ; [0xa38] = 0x20000190
        0x00000662:    6880        .h      LDR      r0,[r0,#8]
        0x00000664:    49f5        .I      LDR      r1,[pc,#980] ; [0xa3c] = 0x3eb33333
        0x00000666:    9002        ..      STR      r0,[sp,#8]
        0x00000668:    f005fdf4    ....    BL       __aeabi_fmul ; 0x6254
        0x0000066c:    9003        ..      STR      r0,[sp,#0xc]
        0x0000066e:    f003fe71    ..q.    BL       __aeabi_f2d ; 0x4354
        0x00000672:    9105        ..      STR      r1,[sp,#0x14]
        0x00000674:    9004        ..      STR      r0,[sp,#0x10]
        0x00000676:    9b07        ..      LDR      r3,[sp,#0x1c]
        0x00000678:    9a06        ..      LDR      r2,[sp,#0x18]
        0x0000067a:    f003faed    ....    BL       __aeabi_ddiv ; 0x3c58
        0x0000067e:    910b        ..      STR      r1,[sp,#0x2c]
        0x00000680:    900a        ..      STR      r0,[sp,#0x28]
        0x00000682:    48ef        .H      LDR      r0,[pc,#956] ; [0xa40] = 0x200001a8
        0x00000684:    6880        .h      LDR      r0,[r0,#8]
        0x00000686:    9002        ..      STR      r0,[sp,#8]
        0x00000688:    9814        ..      LDR      r0,[sp,#0x50]
        0x0000068a:    9001        ..      STR      r0,[sp,#4]
        0x0000068c:    9902        ..      LDR      r1,[sp,#8]
        0x0000068e:    f005fe65    ..e.    BL       __aeabi_fsub ; 0x635c
        0x00000692:    9003        ..      STR      r0,[sp,#0xc]
        0x00000694:    48eb        .H      LDR      r0,[pc,#940] ; [0xa44] = 0x2000002c
        0x00000696:    6801        .h      LDR      r1,[r0,#0]
        0x00000698:    9803        ..      LDR      r0,[sp,#0xc]
        0x0000069a:    f005fddb    ....    BL       __aeabi_fmul ; 0x6254
        0x0000069e:    9005        ..      STR      r0,[sp,#0x14]
        0x000006a0:    48e9        .H      LDR      r0,[pc,#932] ; [0xa48] = 0x200001b4
        0x000006a2:    6880        .h      LDR      r0,[r0,#8]
        0x000006a4:    4601        .F      MOV      r1,r0
        0x000006a6:    9001        ..      STR      r0,[sp,#4]
        0x000006a8:    48e8        .H      LDR      r0,[pc,#928] ; [0xa4c] = 0x20000028
        0x000006aa:    6800        .h      LDR      r0,[r0,#0]
        0x000006ac:    f005fdd2    ....    BL       __aeabi_fmul ; 0x6254
        0x000006b0:    9003        ..      STR      r0,[sp,#0xc]
        0x000006b2:    9814        ..      LDR      r0,[sp,#0x50]
        0x000006b4:    4601        .F      MOV      r1,r0
        0x000006b6:    9001        ..      STR      r0,[sp,#4]
        0x000006b8:    48e5        .H      LDR      r0,[pc,#916] ; [0xa50] = 0x20000024
        0x000006ba:    6800        .h      LDR      r0,[r0,#0]
        0x000006bc:    f005fdca    ....    BL       __aeabi_fmul ; 0x6254
        0x000006c0:    9002        ..      STR      r0,[sp,#8]
        0x000006c2:    9903        ..      LDR      r1,[sp,#0xc]
        0x000006c4:    f005fd2c    ..,.    BL       __aeabi_fadd ; 0x6120
        0x000006c8:    9004        ..      STR      r0,[sp,#0x10]
        0x000006ca:    9905        ..      LDR      r1,[sp,#0x14]
        0x000006cc:    f005fd28    ..(.    BL       __aeabi_fadd ; 0x6120
        0x000006d0:    9006        ..      STR      r0,[sp,#0x18]
        0x000006d2:    48e0        .H      LDR      r0,[pc,#896] ; [0xa54] = 0x20000018
        0x000006d4:    6801        .h      LDR      r1,[r0,#0]
        0x000006d6:    9806        ..      LDR      r0,[sp,#0x18]
        0x000006d8:    f003fe68    ..h.    BL       __aeabi_fdiv ; 0x43ac
        0x000006dc:    9007        ..      STR      r0,[sp,#0x1c]
        0x000006de:    f003fe39    ..9.    BL       __aeabi_f2d ; 0x4354
        0x000006e2:    9109        ..      STR      r1,[sp,#0x24]
        0x000006e4:    9008        ..      STR      r0,[sp,#0x20]
        0x000006e6:    9b0b        ..      LDR      r3,[sp,#0x2c]
        0x000006e8:    9a0a        ..      LDR      r2,[sp,#0x28]
        0x000006ea:    f003fa88    ....    BL       __aeabi_dadd ; 0x3bfe
        0x000006ee:    910f        ..      STR      r1,[sp,#0x3c]
        0x000006f0:    900e        ..      STR      r0,[sp,#0x38]
        0x000006f2:    48cd        .H      LDR      r0,[pc,#820] ; [0xa28] = 0x2000000c
        0x000006f4:    6880        .h      LDR      r0,[r0,#8]
        0x000006f6:    900b        ..      STR      r0,[sp,#0x2c]
        0x000006f8:    f003fe2c    ..,.    BL       __aeabi_f2d ; 0x4354
        0x000006fc:    910d        ..      STR      r1,[sp,#0x34]
        0x000006fe:    900c        ..      STR      r0,[sp,#0x30]
        0x00000700:    9b0f        ..      LDR      r3,[sp,#0x3c]
        0x00000702:    9a0e        ..      LDR      r2,[sp,#0x38]
        0x00000704:    f003fcfa    ....    BL       __aeabi_dmul ; 0x40fc
        0x00000708:    9111        ..      STR      r1,[sp,#0x44]
        0x0000070a:    9010        ..      STR      r0,[sp,#0x40]
        0x0000070c:    f003f8c0    ....    BL       __aeabi_d2f ; 0x3890
        0x00000710:    49c6        .I      LDR      r1,[pc,#792] ; [0xa2c] = 0x20000230
        0x00000712:    6088        .`      STR      r0,[r1,#8]
        0x00000714:    4608        .F      MOV      r0,r1
        0x00000716:    6800        .h      LDR      r0,[r0,#0]
        0x00000718:    49cf        .I      LDR      r1,[pc,#828] ; [0xa58] = 0x20000158
        0x0000071a:    6108        .a      STR      r0,[r1,#0x10]
        0x0000071c:    e01e        ..      B        0x75c ; controller + 1272
        0x0000071e:    48cf        .H      LDR      r0,[pc,#828] ; [0xa5c] = 0x5ac
        0x00000720:    f7fffd3a    ..:.    BL       LOG ; 0x198
        0x00000724:    49ce        .I      LDR      r1,[pc,#824] ; [0xa60] = 0x20000056
        0x00000726:    2000        .       MOVS     r0,#0
        0x00000728:    5608        .V      LDRSB    r0,[r1,r0]
        0x0000072a:    f7fffd37    ..7.    BL       LOG3 ; 0x19c
        0x0000072e:    a0cd        ..      ADR      r0,{pc}+0x336 ; 0xa64
        0x00000730:    f7fffd32    ..2.    BL       LOG ; 0x198
        0x00000734:    2000        .       MOVS     r0,#0
        0x00000736:    49cc        .I      LDR      r1,[pc,#816] ; [0xa68] = 0x2000007c
        0x00000738:    6008        .`      STR      r0,[r1,#0]
        0x0000073a:    e00a        ..      B        0x752 ; controller + 1262
        0x0000073c:    2000        .       MOVS     r0,#0
        0x0000073e:    49ca        .I      LDR      r1,[pc,#808] ; [0xa68] = 0x2000007c
        0x00000740:    6809        .h      LDR      r1,[r1,#0]
        0x00000742:    0089        ..      LSLS     r1,r1,#2
        0x00000744:    4ab9        .J      LDR      r2,[pc,#740] ; [0xa2c] = 0x20000230
        0x00000746:    5050        PP      STR      r0,[r2,r1]
        0x00000748:    48c7        .H      LDR      r0,[pc,#796] ; [0xa68] = 0x2000007c
        0x0000074a:    6800        .h      LDR      r0,[r0,#0]
        0x0000074c:    1c40        @.      ADDS     r0,r0,#1
        0x0000074e:    49c6        .I      LDR      r1,[pc,#792] ; [0xa68] = 0x2000007c
        0x00000750:    6008        .`      STR      r0,[r1,#0]
        0x00000752:    48c5        .H      LDR      r0,[pc,#788] ; [0xa68] = 0x2000007c
        0x00000754:    6800        .h      LDR      r0,[r0,#0]
        0x00000756:    2806        .(      CMP      r0,#6
        0x00000758:    dbf0        ..      BLT      0x73c ; controller + 1240
        0x0000075a:    bf00        ..      NOP      
        0x0000075c:    bf00        ..      NOP      
        0x0000075e:    2000        .       MOVS     r0,#0
        0x00000760:    49c1        .I      LDR      r1,[pc,#772] ; [0xa68] = 0x2000007c
        0x00000762:    6008        .`      STR      r0,[r1,#0]
        0x00000764:    e030        0.      B        0x7c8 ; controller + 1380
        0x00000766:    48c0        .H      LDR      r0,[pc,#768] ; [0xa68] = 0x2000007c
        0x00000768:    6800        .h      LDR      r0,[r0,#0]
        0x0000076a:    0080        ..      LSLS     r0,r0,#2
        0x0000076c:    49af        .I      LDR      r1,[pc,#700] ; [0xa2c] = 0x20000230
        0x0000076e:    5808        .X      LDR      r0,[r1,r0]
        0x00000770:    9011        ..      STR      r0,[sp,#0x44]
        0x00000772:    f003fdef    ....    BL       __aeabi_f2d ; 0x4354
        0x00000776:    2200        ."      MOVS     r2,#0
        0x00000778:    4bbc        .K      LDR      r3,[pc,#752] ; [0xa6c] = 0xbff00000
        0x0000077a:    9113        ..      STR      r1,[sp,#0x4c]
        0x0000077c:    9012        ..      STR      r0,[sp,#0x48]
        0x0000077e:    f005fc69    ..i.    BL       __aeabi_cdcmple ; 0x6054
        0x00000782:    d206        ..      BCS      0x792 ; controller + 1326
        0x00000784:    48ba        .H      LDR      r0,[pc,#744] ; [0xa70] = 0xbf800000
        0x00000786:    49b8        .I      LDR      r1,[pc,#736] ; [0xa68] = 0x2000007c
        0x00000788:    6809        .h      LDR      r1,[r1,#0]
        0x0000078a:    0089        ..      LSLS     r1,r1,#2
        0x0000078c:    4aa7        .J      LDR      r2,[pc,#668] ; [0xa2c] = 0x20000230
        0x0000078e:    5050        PP      STR      r0,[r2,r1]
        0x00000790:    e015        ..      B        0x7be ; controller + 1370
        0x00000792:    48b5        .H      LDR      r0,[pc,#724] ; [0xa68] = 0x2000007c
        0x00000794:    6800        .h      LDR      r0,[r0,#0]
        0x00000796:    0080        ..      LSLS     r0,r0,#2
        0x00000798:    49a4        .I      LDR      r1,[pc,#656] ; [0xa2c] = 0x20000230
        0x0000079a:    5808        .X      LDR      r0,[r1,r0]
        0x0000079c:    9011        ..      STR      r0,[sp,#0x44]
        0x0000079e:    f003fdd9    ....    BL       __aeabi_f2d ; 0x4354
        0x000007a2:    2200        ."      MOVS     r2,#0
        0x000007a4:    4bb3        .K      LDR      r3,[pc,#716] ; [0xa74] = 0x3ff00000
        0x000007a6:    9113        ..      STR      r1,[sp,#0x4c]
        0x000007a8:    9012        ..      STR      r0,[sp,#0x48]
        0x000007aa:    f005fc85    ....    BL       __aeabi_cdrcmple ; 0x60b8
        0x000007ae:    d206        ..      BCS      0x7be ; controller + 1370
        0x000007b0:    207f        .       MOVS     r0,#0x7f
        0x000007b2:    05c0        ..      LSLS     r0,r0,#23
        0x000007b4:    49ac        .I      LDR      r1,[pc,#688] ; [0xa68] = 0x2000007c
        0x000007b6:    6809        .h      LDR      r1,[r1,#0]
        0x000007b8:    0089        ..      LSLS     r1,r1,#2
        0x000007ba:    4a9c        .J      LDR      r2,[pc,#624] ; [0xa2c] = 0x20000230
        0x000007bc:    5050        PP      STR      r0,[r2,r1]
        0x000007be:    48aa        .H      LDR      r0,[pc,#680] ; [0xa68] = 0x2000007c
        0x000007c0:    6800        .h      LDR      r0,[r0,#0]
        0x000007c2:    1c40        @.      ADDS     r0,r0,#1
        0x000007c4:    49a8        .I      LDR      r1,[pc,#672] ; [0xa68] = 0x2000007c
        0x000007c6:    6008        .`      STR      r0,[r1,#0]
        0x000007c8:    48a7        .H      LDR      r0,[pc,#668] ; [0xa68] = 0x2000007c
        0x000007ca:    6800        .h      LDR      r0,[r0,#0]
        0x000007cc:    2806        .(      CMP      r0,#6
        0x000007ce:    dbca        ..      BLT      0x766 ; controller + 1282
        0x000007d0:    2000        .       MOVS     r0,#0
        0x000007d2:    49a5        .I      LDR      r1,[pc,#660] ; [0xa68] = 0x2000007c
        0x000007d4:    6008        .`      STR      r0,[r1,#0]
        0x000007d6:    e023        #.      B        0x820 ; controller + 1468
        0x000007d8:    48a3        .H      LDR      r0,[pc,#652] ; [0xa68] = 0x2000007c
        0x000007da:    6800        .h      LDR      r0,[r0,#0]
        0x000007dc:    0080        ..      LSLS     r0,r0,#2
        0x000007de:    4993        .I      LDR      r1,[pc,#588] ; [0xa2c] = 0x20000230
        0x000007e0:    5808        .X      LDR      r0,[r1,r0]
        0x000007e2:    900f        ..      STR      r0,[sp,#0x3c]
        0x000007e4:    f003fdb6    ....    BL       __aeabi_f2d ; 0x4354
        0x000007e8:    9111        ..      STR      r1,[sp,#0x44]
        0x000007ea:    9010        ..      STR      r0,[sp,#0x40]
        0x000007ec:    489e        .H      LDR      r0,[pc,#632] ; [0xa68] = 0x2000007c
        0x000007ee:    6800        .h      LDR      r0,[r0,#0]
        0x000007f0:    00c0        ..      LSLS     r0,r0,#3
        0x000007f2:    49a1        .I      LDR      r1,[pc,#644] ; [0xa78] = 0x6440
        0x000007f4:    1809        ..      ADDS     r1,r1,r0
        0x000007f6:    c903        ..      LDM      r1,{r0,r1}
        0x000007f8:    910f        ..      STR      r1,[sp,#0x3c]
        0x000007fa:    900e        ..      STR      r0,[sp,#0x38]
        0x000007fc:    9b11        ..      LDR      r3,[sp,#0x44]
        0x000007fe:    9a10        ..      LDR      r2,[sp,#0x40]
        0x00000800:    f003fc7c    ..|.    BL       __aeabi_dmul ; 0x40fc
        0x00000804:    9113        ..      STR      r1,[sp,#0x4c]
        0x00000806:    9012        ..      STR      r0,[sp,#0x48]
        0x00000808:    f003f842    ..B.    BL       __aeabi_d2f ; 0x3890
        0x0000080c:    4996        .I      LDR      r1,[pc,#600] ; [0xa68] = 0x2000007c
        0x0000080e:    6809        .h      LDR      r1,[r1,#0]
        0x00000810:    0089        ..      LSLS     r1,r1,#2
        0x00000812:    4a86        .J      LDR      r2,[pc,#536] ; [0xa2c] = 0x20000230
        0x00000814:    5050        PP      STR      r0,[r2,r1]
        0x00000816:    4894        .H      LDR      r0,[pc,#592] ; [0xa68] = 0x2000007c
        0x00000818:    6800        .h      LDR      r0,[r0,#0]
        0x0000081a:    1c40        @.      ADDS     r0,r0,#1
        0x0000081c:    4992        .I      LDR      r1,[pc,#584] ; [0xa68] = 0x2000007c
        0x0000081e:    6008        .`      STR      r0,[r1,#0]
        0x00000820:    4891        .H      LDR      r0,[pc,#580] ; [0xa68] = 0x2000007c
        0x00000822:    6800        .h      LDR      r0,[r0,#0]
        0x00000824:    2806        .(      CMP      r0,#6
        0x00000826:    dbd7        ..      BLT      0x7d8 ; controller + 1396
        0x00000828:    b015        ..      ADD      sp,sp,#0x54
        0x0000082a:    bd00        ..      POP      {pc}
    test_01
        0x0000082c:    b5f0        ..      PUSH     {r4-r7,lr}
        0x0000082e:    b097        ..      SUB      sp,sp,#0x5c
        0x00000830:    487f        .H      LDR      r0,[pc,#508] ; [0xa30] = 0x20000000
        0x00000832:    c80c        ..      LDM      r0!,{r2,r3}
        0x00000834:    2000        .       MOVS     r0,#0
        0x00000836:    4991        .I      LDR      r1,[pc,#580] ; [0xa7c] = 0x4072c000
        0x00000838:    f003fc60    ..`.    BL       __aeabi_dmul ; 0x40fc
        0x0000083c:    910b        ..      STR      r1,[sp,#0x2c]
        0x0000083e:    900a        ..      STR      r0,[sp,#0x28]
        0x00000840:    f003f826    ..&.    BL       __aeabi_d2f ; 0x3890
        0x00000844:    497c        |I      LDR      r1,[pc,#496] ; [0xa38] = 0x20000190
        0x00000846:    6008        .`      STR      r0,[r1,#0]
        0x00000848:    4879        yH      LDR      r0,[pc,#484] ; [0xa30] = 0x20000000
        0x0000084a:    c80c        ..      LDM      r0!,{r2,r3}
        0x0000084c:    2000        .       MOVS     r0,#0
        0x0000084e:    498b        .I      LDR      r1,[pc,#556] ; [0xa7c] = 0x4072c000
        0x00000850:    f003fc54    ..T.    BL       __aeabi_dmul ; 0x40fc
        0x00000854:    910b        ..      STR      r1,[sp,#0x2c]
        0x00000856:    900a        ..      STR      r0,[sp,#0x28]
        0x00000858:    f003f81a    ....    BL       __aeabi_d2f ; 0x3890
        0x0000085c:    4976        vI      LDR      r1,[pc,#472] ; [0xa38] = 0x20000190
        0x0000085e:    6048        H`      STR      r0,[r1,#4]
        0x00000860:    4873        sH      LDR      r0,[pc,#460] ; [0xa30] = 0x20000000
        0x00000862:    c80c        ..      LDM      r0!,{r2,r3}
        0x00000864:    2000        .       MOVS     r0,#0
        0x00000866:    4985        .I      LDR      r1,[pc,#532] ; [0xa7c] = 0x4072c000
        0x00000868:    f003fc48    ..H.    BL       __aeabi_dmul ; 0x40fc
        0x0000086c:    910b        ..      STR      r1,[sp,#0x2c]
        0x0000086e:    900a        ..      STR      r0,[sp,#0x28]
        0x00000870:    f003f80e    ....    BL       __aeabi_d2f ; 0x3890
        0x00000874:    4970        pI      LDR      r1,[pc,#448] ; [0xa38] = 0x20000190
        0x00000876:    6088        .`      STR      r0,[r1,#8]
        0x00000878:    207f        .       MOVS     r0,#0x7f
        0x0000087a:    05c0        ..      LSLS     r0,r0,#23
        0x0000087c:    496a        jI      LDR      r1,[pc,#424] ; [0xa28] = 0x2000000c
        0x0000087e:    6008        .`      STR      r0,[r1,#0]
        0x00000880:    6048        H`      STR      r0,[r1,#4]
        0x00000882:    6088        .`      STR      r0,[r1,#8]
        0x00000884:    487e        ~H      LDR      r0,[pc,#504] ; [0xa80] = 0x42b40000
        0x00000886:    9015        ..      STR      r0,[sp,#0x54]
        0x00000888:    9014        ..      STR      r0,[sp,#0x50]
        0x0000088a:    207f        .       MOVS     r0,#0x7f
        0x0000088c:    05c0        ..      LSLS     r0,r0,#23
        0x0000088e:    9013        ..      STR      r0,[sp,#0x4c]
        0x00000890:    2400        .$      MOVS     r4,#0
        0x00000892:    2000        .       MOVS     r0,#0
        0x00000894:    9011        ..      STR      r0,[sp,#0x44]
        0x00000896:    487b        {H      LDR      r0,[pc,#492] ; [0xa84] = 0x408ccccd
        0x00000898:    9010        ..      STR      r0,[sp,#0x40]
        0x0000089a:    9915        ..      LDR      r1,[sp,#0x54]
        0x0000089c:    9810        ..      LDR      r0,[sp,#0x40]
        0x0000089e:    f005fcd9    ....    BL       __aeabi_fmul ; 0x6254
        0x000008a2:    9007        ..      STR      r0,[sp,#0x1c]
        0x000008a4:    f003fd56    ..V.    BL       __aeabi_f2d ; 0x4354
        0x000008a8:    9109        ..      STR      r1,[sp,#0x24]
        0x000008aa:    9008        ..      STR      r0,[sp,#0x20]
        0x000008ac:    4860        `H      LDR      r0,[pc,#384] ; [0xa30] = 0x20000000
        0x000008ae:    c80c        ..      LDM      r0!,{r2,r3}
        0x000008b0:    9808        ..      LDR      r0,[sp,#0x20]
        0x000008b2:    f003fc23    ..#.    BL       __aeabi_dmul ; 0x40fc
        0x000008b6:    910b        ..      STR      r1,[sp,#0x2c]
        0x000008b8:    900a        ..      STR      r0,[sp,#0x28]
        0x000008ba:    f002ffe9    ....    BL       __aeabi_d2f ; 0x3890
        0x000008be:    4605        .F      MOV      r5,r0
        0x000008c0:    9914        ..      LDR      r1,[sp,#0x50]
        0x000008c2:    9810        ..      LDR      r0,[sp,#0x40]
        0x000008c4:    f005fcc6    ....    BL       __aeabi_fmul ; 0x6254
        0x000008c8:    9007        ..      STR      r0,[sp,#0x1c]
        0x000008ca:    f003fd43    ..C.    BL       __aeabi_f2d ; 0x4354
        0x000008ce:    9109        ..      STR      r1,[sp,#0x24]
        0x000008d0:    9008        ..      STR      r0,[sp,#0x20]
        0x000008d2:    4857        WH      LDR      r0,[pc,#348] ; [0xa30] = 0x20000000
        0x000008d4:    c80c        ..      LDM      r0!,{r2,r3}
        0x000008d6:    9808        ..      LDR      r0,[sp,#0x20]
        0x000008d8:    f003fc10    ....    BL       __aeabi_dmul ; 0x40fc
        0x000008dc:    910b        ..      STR      r1,[sp,#0x2c]
        0x000008de:    900a        ..      STR      r0,[sp,#0x28]
        0x000008e0:    f002ffd6    ....    BL       __aeabi_d2f ; 0x3890
        0x000008e4:    900f        ..      STR      r0,[sp,#0x3c]
        0x000008e6:    2100        .!      MOVS     r1,#0
        0x000008e8:    910e        ..      STR      r1,[sp,#0x38]
        0x000008ea:    4967        gI      LDR      r1,[pc,#412] ; [0xa88] = 0x447a0000
        0x000008ec:    9811        ..      LDR      r0,[sp,#0x44]
        0x000008ee:    f005fcb1    ....    BL       __aeabi_fmul ; 0x6254
        0x000008f2:    9011        ..      STR      r0,[sp,#0x44]
        0x000008f4:    2100        .!      MOVS     r1,#0
        0x000008f6:    9112        ..      STR      r1,[sp,#0x48]
        0x000008f8:    e029        ).      B        0x94e ; test_01 + 290
        0x000008fa:    1c64        d.      ADDS     r4,r4,#1
        0x000008fc:    4a63        cJ      LDR      r2,[pc,#396] ; [0xa8c] = 0x2000019c
        0x000008fe:    6851        Qh      LDR      r1,[r2,#4]
        0x00000900:    6810        .h      LDR      r0,[r2,#0]
        0x00000902:    f005fc0d    ....    BL       __aeabi_fadd ; 0x6120
        0x00000906:    900a        ..      STR      r0,[sp,#0x28]
        0x00000908:    4860        `H      LDR      r0,[pc,#384] ; [0xa8c] = 0x2000019c
        0x0000090a:    6881        .h      LDR      r1,[r0,#8]
        0x0000090c:    980a        ..      LDR      r0,[sp,#0x28]
        0x0000090e:    f005fc07    ....    BL       __aeabi_fadd ; 0x6120
        0x00000912:    495f        _I      LDR      r1,[pc,#380] ; [0xa90] = 0x40400000
        0x00000914:    900b        ..      STR      r0,[sp,#0x2c]
        0x00000916:    f003fd49    ..I.    BL       __aeabi_fdiv ; 0x43ac
        0x0000091a:    900e        ..      STR      r0,[sp,#0x38]
        0x0000091c:    980e        ..      LDR      r0,[sp,#0x38]
        0x0000091e:    f003fd19    ....    BL       __aeabi_f2d ; 0x4354
        0x00000922:    4a5c        \J      LDR      r2,[pc,#368] ; [0xa94] = 0x2eec7c9
        0x00000924:    4b5c        \K      LDR      r3,[pc,#368] ; [0xa98] = 0x3f060525
        0x00000926:    9105        ..      STR      r1,[sp,#0x14]
        0x00000928:    9004        ..      STR      r0,[sp,#0x10]
        0x0000092a:    f003fbe7    ....    BL       __aeabi_dmul ; 0x40fc
        0x0000092e:    9109        ..      STR      r1,[sp,#0x24]
        0x00000930:    9008        ..      STR      r0,[sp,#0x20]
        0x00000932:    9812        ..      LDR      r0,[sp,#0x48]
        0x00000934:    f003fd0e    ....    BL       __aeabi_f2d ; 0x4354
        0x00000938:    9107        ..      STR      r1,[sp,#0x1c]
        0x0000093a:    9006        ..      STR      r0,[sp,#0x18]
        0x0000093c:    9b09        ..      LDR      r3,[sp,#0x24]
        0x0000093e:    9a08        ..      LDR      r2,[sp,#0x20]
        0x00000940:    f003f95d    ..].    BL       __aeabi_dadd ; 0x3bfe
        0x00000944:    910b        ..      STR      r1,[sp,#0x2c]
        0x00000946:    900a        ..      STR      r0,[sp,#0x28]
        0x00000948:    f002ffa2    ....    BL       __aeabi_d2f ; 0x3890
        0x0000094c:    9012        ..      STR      r0,[sp,#0x48]
        0x0000094e:    4629        )F      MOV      r1,r5
        0x00000950:    9812        ..      LDR      r0,[sp,#0x48]
        0x00000952:    f005fc55    ..U.    BL       __aeabi_cfcmple ; 0x6200
        0x00000956:    d3d0        ..      BCC      0x8fa ; test_01 + 206
        0x00000958:    4628        (F      MOV      r0,r5
        0x0000095a:    f003fcfb    ....    BL       __aeabi_f2d ; 0x4354
        0x0000095e:    910b        ..      STR      r1,[sp,#0x2c]
        0x00000960:    900a        ..      STR      r0,[sp,#0x28]
        0x00000962:    9812        ..      LDR      r0,[sp,#0x48]
        0x00000964:    f003fcf6    ....    BL       __aeabi_f2d ; 0x4354
        0x00000968:    9109        ..      STR      r1,[sp,#0x24]
        0x0000096a:    9008        ..      STR      r0,[sp,#0x20]
        0x0000096c:    9811        ..      LDR      r0,[sp,#0x44]
        0x0000096e:    f003fcf1    ....    BL       __aeabi_f2d ; 0x4354
        0x00000972:    9404        ..      STR      r4,[sp,#0x10]
        0x00000974:    9107        ..      STR      r1,[sp,#0x1c]
        0x00000976:    9006        ..      STR      r0,[sp,#0x18]
        0x00000978:    990b        ..      LDR      r1,[sp,#0x2c]
        0x0000097a:    980a        ..      LDR      r0,[sp,#0x28]
        0x0000097c:    9103        ..      STR      r1,[sp,#0xc]
        0x0000097e:    9002        ..      STR      r0,[sp,#8]
        0x00000980:    9909        ..      LDR      r1,[sp,#0x24]
        0x00000982:    9808        ..      LDR      r0,[sp,#0x20]
        0x00000984:    9101        ..      STR      r1,[sp,#4]
        0x00000986:    9000        ..      STR      r0,[sp,#0]
        0x00000988:    a044        D.      ADR      r0,{pc}+0x114 ; 0xa9c
        0x0000098a:    9b07        ..      LDR      r3,[sp,#0x1c]
        0x0000098c:    9a06        ..      LDR      r2,[sp,#0x18]
        0x0000098e:    f002fddb    ....    BL       __2printf ; 0x3548
        0x00000992:    4827        'H      LDR      r0,[pc,#156] ; [0xa30] = 0x20000000
        0x00000994:    c80c        ..      LDM      r0!,{r2,r3}
        0x00000996:    2000        .       MOVS     r0,#0
        0x00000998:    4601        .F      MOV      r1,r0
        0x0000099a:    f003fbaf    ....    BL       __aeabi_dmul ; 0x40fc
        0x0000099e:    910b        ..      STR      r1,[sp,#0x2c]
        0x000009a0:    900a        ..      STR      r0,[sp,#0x28]
        0x000009a2:    f002ff75    ..u.    BL       __aeabi_d2f ; 0x3890
        0x000009a6:    4924        $I      LDR      r1,[pc,#144] ; [0xa38] = 0x20000190
        0x000009a8:    6008        .`      STR      r0,[r1,#0]
        0x000009aa:    4821        !H      LDR      r0,[pc,#132] ; [0xa30] = 0x20000000
        0x000009ac:    c80c        ..      LDM      r0!,{r2,r3}
        0x000009ae:    2000        .       MOVS     r0,#0
        0x000009b0:    4601        .F      MOV      r1,r0
        0x000009b2:    f003fba3    ....    BL       __aeabi_dmul ; 0x40fc
        0x000009b6:    910b        ..      STR      r1,[sp,#0x2c]
        0x000009b8:    900a        ..      STR      r0,[sp,#0x28]
        0x000009ba:    f002ff69    ..i.    BL       __aeabi_d2f ; 0x3890
        0x000009be:    491e        .I      LDR      r1,[pc,#120] ; [0xa38] = 0x20000190
        0x000009c0:    6048        H`      STR      r0,[r1,#4]
        0x000009c2:    481b        .H      LDR      r0,[pc,#108] ; [0xa30] = 0x20000000
        0x000009c4:    c80c        ..      LDM      r0!,{r2,r3}
        0x000009c6:    2000        .       MOVS     r0,#0
        0x000009c8:    4601        .F      MOV      r1,r0
        0x000009ca:    f003fb97    ....    BL       __aeabi_dmul ; 0x40fc
        0x000009ce:    910b        ..      STR      r1,[sp,#0x2c]
        0x000009d0:    900a        ..      STR      r0,[sp,#0x28]
        0x000009d2:    f002ff5d    ..].    BL       __aeabi_d2f ; 0x3890
        0x000009d6:    4918        .I      LDR      r1,[pc,#96] ; [0xa38] = 0x20000190
        0x000009d8:    6088        .`      STR      r0,[r1,#8]
        0x000009da:    4621        !F      MOV      r1,r4
        0x000009dc:    a034        4.      ADR      r0,{pc}+0xd4 ; 0xab0
        0x000009de:    f002fdb3    ....    BL       __2printf ; 0x3548
        0x000009e2:    4829        )H      LDR      r0,[pc,#164] ; [0xa88] = 0x447a0000
        0x000009e4:    f7fffbc6    ....    BL       delay_ms ; 0x174
        0x000009e8:    4811        .H      LDR      r0,[pc,#68] ; [0xa30] = 0x20000000
        0x000009ea:    c80c        ..      LDM      r0!,{r2,r3}
        0x000009ec:    2000        .       MOVS     r0,#0
        0x000009ee:    4923        #I      LDR      r1,[pc,#140] ; [0xa7c] = 0x4072c000
        0x000009f0:    f003fb84    ....    BL       __aeabi_dmul ; 0x40fc
        0x000009f4:    910b        ..      STR      r1,[sp,#0x2c]
        0x000009f6:    900a        ..      STR      r0,[sp,#0x28]
        0x000009f8:    f002ff4a    ..J.    BL       __aeabi_d2f ; 0x3890
        0x000009fc:    490e        .I      LDR      r1,[pc,#56] ; [0xa38] = 0x20000190
        0x000009fe:    6008        .`      STR      r0,[r1,#0]
        0x00000a00:    480b        .H      LDR      r0,[pc,#44] ; [0xa30] = 0x20000000
        0x00000a02:    c80c        ..      LDM      r0!,{r2,r3}
        0x00000a04:    2000        .       MOVS     r0,#0
        0x00000a06:    491d        .I      LDR      r1,[pc,#116] ; [0xa7c] = 0x4072c000
        0x00000a08:    f003fb78    ..x.    BL       __aeabi_dmul ; 0x40fc
        0x00000a0c:    910b        ..      STR      r1,[sp,#0x2c]
        0x00000a0e:    900a        ..      STR      r0,[sp,#0x28]
        0x00000a10:    f002ff3e    ..>.    BL       __aeabi_d2f ; 0x3890
        0x00000a14:    4908        .I      LDR      r1,[pc,#32] ; [0xa38] = 0x20000190
        0x00000a16:    6048        H`      STR      r0,[r1,#4]
        0x00000a18:    4805        .H      LDR      r0,[pc,#20] ; [0xa30] = 0x20000000
        0x00000a1a:    c80c        ..      LDM      r0!,{r2,r3}
        0x00000a1c:    2000        .       MOVS     r0,#0
        0x00000a1e:    4601        .F      MOV      r1,r0
        0x00000a20:    f003fb6c    ..l.    BL       __aeabi_dmul ; 0x40fc
        0x00000a24:    910b        ..      STR      r1,[sp,#0x2c]
        0x00000a26:    e04d        M.      B        0xac4 ; test_01 + 664
    $d
        0x00000a28:    2000000c    ...     DCD    536870924
        0x00000a2c:    20000230    0..     DCD    536871472
        0x00000a30:    20000000    ...     DCD    536870912
        0x00000a34:    40790000    ..y@    DCD    1081671680
        0x00000a38:    20000190    ...     DCD    536871312
        0x00000a3c:    3eb33333    33.>    DCD    1051931443
        0x00000a40:    200001a8    ...     DCD    536871336
        0x00000a44:    2000002c    ,..     DCD    536870956
        0x00000a48:    200001b4    ...     DCD    536871348
        0x00000a4c:    20000028    (..     DCD    536870952
        0x00000a50:    20000024    $..     DCD    536870948
        0x00000a54:    20000018    ...     DCD    536870936
        0x00000a58:    20000158    X..     DCD    536871256
        0x00000a5c:    000005ac    ....    DCD    1452
        0x00000a60:    20000056    V..     DCD    536870998
        0x00000a64:    0000000a    ....    DCD    10
        0x00000a68:    2000007c    |..     DCD    536871036
        0x00000a6c:    bff00000    ....    DCD    3220176896
        0x00000a70:    bf800000    ....    DCD    3212836864
        0x00000a74:    3ff00000    ...?    DCD    1072693248
        0x00000a78:    00006440    @d..    DCD    25664
        0x00000a7c:    4072c000    ..r@    DCD    1081262080
        0x00000a80:    42b40000    ...B    DCD    1119092736
        0x00000a84:    408ccccd    ...@    DCD    1082969293
        0x00000a88:    447a0000    ..zD    DCD    1148846080
        0x00000a8c:    2000019c    ...     DCD    536871324
        0x00000a90:    40400000    ..@@    DCD    1077936128
        0x00000a94:    02eec7c9    ....    DCD    49203145
        0x00000a98:    3f060525    %..?    DCD    1057359141
        0x00000a9c:    32746420     dt2    DCD    846488608
        0x00000aa0:    20662520     %f     DCD    543565088
        0x00000aa4:    25206625    %f %    DCD    622880293
        0x00000aa8:    64252066    f %d    DCD    1680154726
        0x00000aac:    00200a20     . .    DCD    2099744
        0x00000ab0:    61746f72    rota    DCD    1635020658
        0x00000ab4:    6e6f6974    tion    DCD    1852795252
        0x00000ab8:    646e6520     end    DCD    1684956448
        0x00000abc:    20642520     %d     DCD    543434016
        0x00000ac0:    0000000a    ....    DCD    10
    $t
        0x00000ac4:    900a        ..      STR      r0,[sp,#0x28]
        0x00000ac6:    f002fee3    ....    BL       __aeabi_d2f ; 0x3890
        0x00000aca:    49fb        .I      LDR      r1,[pc,#1004] ; [0xeb8] = 0x20000190
        0x00000acc:    6088        .`      STR      r0,[r1,#8]
        0x00000ace:    48fb        .H      LDR      r0,[pc,#1004] ; [0xebc] = 0xbf800000
        0x00000ad0:    49fb        .I      LDR      r1,[pc,#1004] ; [0xec0] = 0x2000000c
        0x00000ad2:    6008        .`      STR      r0,[r1,#0]
        0x00000ad4:    207f        .       MOVS     r0,#0x7f
        0x00000ad6:    05c0        ..      LSLS     r0,r0,#23
        0x00000ad8:    6048        H`      STR      r0,[r1,#4]
        0x00000ada:    2600        .&      MOVS     r6,#0
        0x00000adc:    2700        .'      MOVS     r7,#0
        0x00000ade:    2000        .       MOVS     r0,#0
        0x00000ae0:    900d        ..      STR      r0,[sp,#0x34]
        0x00000ae2:    900c        ..      STR      r0,[sp,#0x30]
        0x00000ae4:    e062        b.      B        0xbac ; test_01 + 896
        0x00000ae6:    1c64        d.      ADDS     r4,r4,#1
        0x00000ae8:    49f6        .I      LDR      r1,[pc,#984] ; [0xec4] = 0x2000019c
        0x00000aea:    6808        .h      LDR      r0,[r1,#0]
        0x00000aec:    f003fc32    ..2.    BL       __aeabi_f2d ; 0x4354
        0x00000af0:    2200        ."      MOVS     r2,#0
        0x00000af2:    4bf5        .K      LDR      r3,[pc,#980] ; [0xec8] = 0x3fd80000
        0x00000af4:    9109        ..      STR      r1,[sp,#0x24]
        0x00000af6:    9008        ..      STR      r0,[sp,#0x20]
        0x00000af8:    f003fb00    ....    BL       __aeabi_dmul ; 0x40fc
        0x00000afc:    910b        ..      STR      r1,[sp,#0x2c]
        0x00000afe:    900a        ..      STR      r0,[sp,#0x28]
        0x00000b00:    f002fec6    ....    BL       __aeabi_d2f ; 0x3890
        0x00000b04:    4607        .F      MOV      r7,r0
        0x00000b06:    49ef        .I      LDR      r1,[pc,#956] ; [0xec4] = 0x2000019c
        0x00000b08:    6848        Hh      LDR      r0,[r1,#4]
        0x00000b0a:    f003fc23    ..#.    BL       __aeabi_f2d ; 0x4354
        0x00000b0e:    2200        ."      MOVS     r2,#0
        0x00000b10:    4bed        .K      LDR      r3,[pc,#948] ; [0xec8] = 0x3fd80000
        0x00000b12:    9109        ..      STR      r1,[sp,#0x24]
        0x00000b14:    9008        ..      STR      r0,[sp,#0x20]
        0x00000b16:    f003faf1    ....    BL       __aeabi_dmul ; 0x40fc
        0x00000b1a:    910b        ..      STR      r1,[sp,#0x2c]
        0x00000b1c:    900a        ..      STR      r0,[sp,#0x28]
        0x00000b1e:    f002feb7    ....    BL       __aeabi_d2f ; 0x3890
        0x00000b22:    900d        ..      STR      r0,[sp,#0x34]
        0x00000b24:    48e9        .H      LDR      r0,[pc,#932] ; [0xecc] = 0x37db38a1
        0x00000b26:    49ea        .I      LDR      r1,[pc,#936] ; [0xed0] = 0x3ff0c152
        0x00000b28:    f005fa2e    ....    BL       cos ; 0x5f88
        0x00000b2c:    9105        ..      STR      r1,[sp,#0x14]
        0x00000b2e:    9004        ..      STR      r0,[sp,#0x10]
        0x00000b30:    980d        ..      LDR      r0,[sp,#0x34]
        0x00000b32:    f003fc0f    ....    BL       __aeabi_f2d ; 0x4354
        0x00000b36:    9103        ..      STR      r1,[sp,#0xc]
        0x00000b38:    9002        ..      STR      r0,[sp,#8]
        0x00000b3a:    9b05        ..      LDR      r3,[sp,#0x14]
        0x00000b3c:    9a04        ..      LDR      r2,[sp,#0x10]
        0x00000b3e:    f003fadd    ....    BL       __aeabi_dmul ; 0x40fc
        0x00000b42:    9109        ..      STR      r1,[sp,#0x24]
        0x00000b44:    9008        ..      STR      r0,[sp,#0x20]
        0x00000b46:    48e1        .H      LDR      r0,[pc,#900] ; [0xecc] = 0x37db38a1
        0x00000b48:    49e1        .I      LDR      r1,[pc,#900] ; [0xed0] = 0x3ff0c152
        0x00000b4a:    f005fa1d    ....    BL       cos ; 0x5f88
        0x00000b4e:    9105        ..      STR      r1,[sp,#0x14]
        0x00000b50:    9004        ..      STR      r0,[sp,#0x10]
        0x00000b52:    4638        8F      MOV      r0,r7
        0x00000b54:    f003fbfe    ....    BL       __aeabi_f2d ; 0x4354
        0x00000b58:    9103        ..      STR      r1,[sp,#0xc]
        0x00000b5a:    9002        ..      STR      r0,[sp,#8]
        0x00000b5c:    9b05        ..      LDR      r3,[sp,#0x14]
        0x00000b5e:    9a04        ..      LDR      r2,[sp,#0x10]
        0x00000b60:    f003facc    ....    BL       __aeabi_dmul ; 0x40fc
        0x00000b64:    9107        ..      STR      r1,[sp,#0x1c]
        0x00000b66:    9006        ..      STR      r0,[sp,#0x18]
        0x00000b68:    9b09        ..      LDR      r3,[sp,#0x24]
        0x00000b6a:    9a08        ..      LDR      r2,[sp,#0x20]
        0x00000b6c:    f003f847    ..G.    BL       __aeabi_dadd ; 0x3bfe
        0x00000b70:    910b        ..      STR      r1,[sp,#0x2c]
        0x00000b72:    900a        ..      STR      r0,[sp,#0x28]
        0x00000b74:    f002fe8c    ....    BL       __aeabi_d2f ; 0x3890
        0x00000b78:    900c        ..      STR      r0,[sp,#0x30]
        0x00000b7a:    980c        ..      LDR      r0,[sp,#0x30]
        0x00000b7c:    f003fbea    ....    BL       __aeabi_f2d ; 0x4354
        0x00000b80:    4ad4        .J      LDR      r2,[pc,#848] ; [0xed4] = 0x2eec7c9
        0x00000b82:    4bd5        .K      LDR      r3,[pc,#852] ; [0xed8] = 0x3f060525
        0x00000b84:    9105        ..      STR      r1,[sp,#0x14]
        0x00000b86:    9004        ..      STR      r0,[sp,#0x10]
        0x00000b88:    f003fab8    ....    BL       __aeabi_dmul ; 0x40fc
        0x00000b8c:    9109        ..      STR      r1,[sp,#0x24]
        0x00000b8e:    9008        ..      STR      r0,[sp,#0x20]
        0x00000b90:    4630        0F      MOV      r0,r6
        0x00000b92:    f003fbdf    ....    BL       __aeabi_f2d ; 0x4354
        0x00000b96:    9107        ..      STR      r1,[sp,#0x1c]
        0x00000b98:    9006        ..      STR      r0,[sp,#0x18]
        0x00000b9a:    9b09        ..      LDR      r3,[sp,#0x24]
        0x00000b9c:    9a08        ..      LDR      r2,[sp,#0x20]
        0x00000b9e:    f003f82e    ....    BL       __aeabi_dadd ; 0x3bfe
        0x00000ba2:    910b        ..      STR      r1,[sp,#0x2c]
        0x00000ba4:    900a        ..      STR      r0,[sp,#0x28]
        0x00000ba6:    f002fe73    ..s.    BL       __aeabi_d2f ; 0x3890
        0x00000baa:    4606        .F      MOV      r6,r0
        0x00000bac:    4630        0F      MOV      r0,r6
        0x00000bae:    9913        ..      LDR      r1,[sp,#0x4c]
        0x00000bb0:    f005fb26    ..&.    BL       __aeabi_cfcmple ; 0x6200
        0x00000bb4:    d397        ..      BCC      0xae6 ; test_01 + 698
        0x00000bb6:    4621        !F      MOV      r1,r4
        0x00000bb8:    a0c8        ..      ADR      r0,{pc}+0x324 ; 0xedc
        0x00000bba:    f002fcc5    ....    BL       __2printf ; 0x3548
        0x00000bbe:    48d6        .H      LDR      r0,[pc,#856] ; [0xf18] = 0x20000000
        0x00000bc0:    c80c        ..      LDM      r0!,{r2,r3}
        0x00000bc2:    2000        .       MOVS     r0,#0
        0x00000bc4:    4601        .F      MOV      r1,r0
        0x00000bc6:    f003fa99    ....    BL       __aeabi_dmul ; 0x40fc
        0x00000bca:    910b        ..      STR      r1,[sp,#0x2c]
        0x00000bcc:    900a        ..      STR      r0,[sp,#0x28]
        0x00000bce:    f002fe5f    .._.    BL       __aeabi_d2f ; 0x3890
        0x00000bd2:    49b9        .I      LDR      r1,[pc,#740] ; [0xeb8] = 0x20000190
        0x00000bd4:    6008        .`      STR      r0,[r1,#0]
        0x00000bd6:    48d0        .H      LDR      r0,[pc,#832] ; [0xf18] = 0x20000000
        0x00000bd8:    c80c        ..      LDM      r0!,{r2,r3}
        0x00000bda:    2000        .       MOVS     r0,#0
        0x00000bdc:    4601        .F      MOV      r1,r0
        0x00000bde:    f003fa8d    ....    BL       __aeabi_dmul ; 0x40fc
        0x00000be2:    910b        ..      STR      r1,[sp,#0x2c]
        0x00000be4:    900a        ..      STR      r0,[sp,#0x28]
        0x00000be6:    f002fe53    ..S.    BL       __aeabi_d2f ; 0x3890
        0x00000bea:    49b3        .I      LDR      r1,[pc,#716] ; [0xeb8] = 0x20000190
        0x00000bec:    6048        H`      STR      r0,[r1,#4]
        0x00000bee:    48ca        .H      LDR      r0,[pc,#808] ; [0xf18] = 0x20000000
        0x00000bf0:    c80c        ..      LDM      r0!,{r2,r3}
        0x00000bf2:    2000        .       MOVS     r0,#0
        0x00000bf4:    4601        .F      MOV      r1,r0
        0x00000bf6:    f003fa81    ....    BL       __aeabi_dmul ; 0x40fc
        0x00000bfa:    910b        ..      STR      r1,[sp,#0x2c]
        0x00000bfc:    900a        ..      STR      r0,[sp,#0x28]
        0x00000bfe:    f002fe47    ..G.    BL       __aeabi_d2f ; 0x3890
        0x00000c02:    49ad        .I      LDR      r1,[pc,#692] ; [0xeb8] = 0x20000190
        0x00000c04:    6088        .`      STR      r0,[r1,#8]
        0x00000c06:    48c5        .H      LDR      r0,[pc,#788] ; [0xf1c] = 0x447a0000
        0x00000c08:    f7fffab4    ....    BL       delay_ms ; 0x174
        0x00000c0c:    48c2        .H      LDR      r0,[pc,#776] ; [0xf18] = 0x20000000
        0x00000c0e:    c80c        ..      LDM      r0!,{r2,r3}
        0x00000c10:    2000        .       MOVS     r0,#0
        0x00000c12:    49c3        .I      LDR      r1,[pc,#780] ; [0xf20] = 0x4072c000
        0x00000c14:    f003fa72    ..r.    BL       __aeabi_dmul ; 0x40fc
        0x00000c18:    910b        ..      STR      r1,[sp,#0x2c]
        0x00000c1a:    900a        ..      STR      r0,[sp,#0x28]
        0x00000c1c:    f002fe38    ..8.    BL       __aeabi_d2f ; 0x3890
        0x00000c20:    49a5        .I      LDR      r1,[pc,#660] ; [0xeb8] = 0x20000190
        0x00000c22:    6008        .`      STR      r0,[r1,#0]
        0x00000c24:    48bc        .H      LDR      r0,[pc,#752] ; [0xf18] = 0x20000000
        0x00000c26:    c80c        ..      LDM      r0!,{r2,r3}
        0x00000c28:    2000        .       MOVS     r0,#0
        0x00000c2a:    49bd        .I      LDR      r1,[pc,#756] ; [0xf20] = 0x4072c000
        0x00000c2c:    f003fa66    ..f.    BL       __aeabi_dmul ; 0x40fc
        0x00000c30:    910b        ..      STR      r1,[sp,#0x2c]
        0x00000c32:    900a        ..      STR      r0,[sp,#0x28]
        0x00000c34:    f002fe2c    ..,.    BL       __aeabi_d2f ; 0x3890
        0x00000c38:    499f        .I      LDR      r1,[pc,#636] ; [0xeb8] = 0x20000190
        0x00000c3a:    6048        H`      STR      r0,[r1,#4]
        0x00000c3c:    48b6        .H      LDR      r0,[pc,#728] ; [0xf18] = 0x20000000
        0x00000c3e:    c80c        ..      LDM      r0!,{r2,r3}
        0x00000c40:    2000        .       MOVS     r0,#0
        0x00000c42:    49b7        .I      LDR      r1,[pc,#732] ; [0xf20] = 0x4072c000
        0x00000c44:    f003fa5a    ..Z.    BL       __aeabi_dmul ; 0x40fc
        0x00000c48:    910b        ..      STR      r1,[sp,#0x2c]
        0x00000c4a:    900a        ..      STR      r0,[sp,#0x28]
        0x00000c4c:    f002fe20    .. .    BL       __aeabi_d2f ; 0x3890
        0x00000c50:    4999        .I      LDR      r1,[pc,#612] ; [0xeb8] = 0x20000190
        0x00000c52:    6088        .`      STR      r0,[r1,#8]
        0x00000c54:    207f        .       MOVS     r0,#0x7f
        0x00000c56:    05c0        ..      LSLS     r0,r0,#23
        0x00000c58:    4999        .I      LDR      r1,[pc,#612] ; [0xec0] = 0x2000000c
        0x00000c5a:    6008        .`      STR      r0,[r1,#0]
        0x00000c5c:    6048        H`      STR      r0,[r1,#4]
        0x00000c5e:    6088        .`      STR      r0,[r1,#8]
        0x00000c60:    2000        .       MOVS     r0,#0
        0x00000c62:    9012        ..      STR      r0,[sp,#0x48]
        0x00000c64:    e029        ).      B        0xcba ; test_01 + 1166
        0x00000c66:    1c64        d.      ADDS     r4,r4,#1
        0x00000c68:    4a96        .J      LDR      r2,[pc,#600] ; [0xec4] = 0x2000019c
        0x00000c6a:    6851        Qh      LDR      r1,[r2,#4]
        0x00000c6c:    6810        .h      LDR      r0,[r2,#0]
        0x00000c6e:    f005fa57    ..W.    BL       __aeabi_fadd ; 0x6120
        0x00000c72:    900a        ..      STR      r0,[sp,#0x28]
        0x00000c74:    4893        .H      LDR      r0,[pc,#588] ; [0xec4] = 0x2000019c
        0x00000c76:    6881        .h      LDR      r1,[r0,#8]
        0x00000c78:    980a        ..      LDR      r0,[sp,#0x28]
        0x00000c7a:    f005fa51    ..Q.    BL       __aeabi_fadd ; 0x6120
        0x00000c7e:    49a9        .I      LDR      r1,[pc,#676] ; [0xf24] = 0x40400000
        0x00000c80:    900b        ..      STR      r0,[sp,#0x2c]
        0x00000c82:    f003fb93    ....    BL       __aeabi_fdiv ; 0x43ac
        0x00000c86:    900e        ..      STR      r0,[sp,#0x38]
        0x00000c88:    980e        ..      LDR      r0,[sp,#0x38]
        0x00000c8a:    f003fb63    ..c.    BL       __aeabi_f2d ; 0x4354
        0x00000c8e:    4a91        .J      LDR      r2,[pc,#580] ; [0xed4] = 0x2eec7c9
        0x00000c90:    4b91        .K      LDR      r3,[pc,#580] ; [0xed8] = 0x3f060525
        0x00000c92:    9105        ..      STR      r1,[sp,#0x14]
        0x00000c94:    9004        ..      STR      r0,[sp,#0x10]
        0x00000c96:    f003fa31    ..1.    BL       __aeabi_dmul ; 0x40fc
        0x00000c9a:    9109        ..      STR      r1,[sp,#0x24]
        0x00000c9c:    9008        ..      STR      r0,[sp,#0x20]
        0x00000c9e:    9812        ..      LDR      r0,[sp,#0x48]
        0x00000ca0:    f003fb58    ..X.    BL       __aeabi_f2d ; 0x4354
        0x00000ca4:    9107        ..      STR      r1,[sp,#0x1c]
        0x00000ca6:    9006        ..      STR      r0,[sp,#0x18]
        0x00000ca8:    9b09        ..      LDR      r3,[sp,#0x24]
        0x00000caa:    9a08        ..      LDR      r2,[sp,#0x20]
        0x00000cac:    f002ffa7    ....    BL       __aeabi_dadd ; 0x3bfe
        0x00000cb0:    910b        ..      STR      r1,[sp,#0x2c]
        0x00000cb2:    900a        ..      STR      r0,[sp,#0x28]
        0x00000cb4:    f002fdec    ....    BL       __aeabi_d2f ; 0x3890
        0x00000cb8:    9012        ..      STR      r0,[sp,#0x48]
        0x00000cba:    990f        ..      LDR      r1,[sp,#0x3c]
        0x00000cbc:    9812        ..      LDR      r0,[sp,#0x48]
        0x00000cbe:    f005fa9f    ....    BL       __aeabi_cfcmple ; 0x6200
        0x00000cc2:    d3d0        ..      BCC      0xc66 ; test_01 + 1082
        0x00000cc4:    4894        .H      LDR      r0,[pc,#592] ; [0xf18] = 0x20000000
        0x00000cc6:    c80c        ..      LDM      r0!,{r2,r3}
        0x00000cc8:    2000        .       MOVS     r0,#0
        0x00000cca:    4601        .F      MOV      r1,r0
        0x00000ccc:    f003fa16    ....    BL       __aeabi_dmul ; 0x40fc
        0x00000cd0:    910b        ..      STR      r1,[sp,#0x2c]
        0x00000cd2:    900a        ..      STR      r0,[sp,#0x28]
        0x00000cd4:    f002fddc    ....    BL       __aeabi_d2f ; 0x3890
        0x00000cd8:    4977        wI      LDR      r1,[pc,#476] ; [0xeb8] = 0x20000190
        0x00000cda:    6008        .`      STR      r0,[r1,#0]
        0x00000cdc:    488e        .H      LDR      r0,[pc,#568] ; [0xf18] = 0x20000000
        0x00000cde:    c80c        ..      LDM      r0!,{r2,r3}
        0x00000ce0:    2000        .       MOVS     r0,#0
        0x00000ce2:    4601        .F      MOV      r1,r0
        0x00000ce4:    f003fa0a    ....    BL       __aeabi_dmul ; 0x40fc
        0x00000ce8:    910b        ..      STR      r1,[sp,#0x2c]
        0x00000cea:    900a        ..      STR      r0,[sp,#0x28]
        0x00000cec:    f002fdd0    ....    BL       __aeabi_d2f ; 0x3890
        0x00000cf0:    4971        qI      LDR      r1,[pc,#452] ; [0xeb8] = 0x20000190
        0x00000cf2:    6048        H`      STR      r0,[r1,#4]
        0x00000cf4:    4888        .H      LDR      r0,[pc,#544] ; [0xf18] = 0x20000000
        0x00000cf6:    c80c        ..      LDM      r0!,{r2,r3}
        0x00000cf8:    2000        .       MOVS     r0,#0
        0x00000cfa:    4601        .F      MOV      r1,r0
        0x00000cfc:    f003f9fe    ....    BL       __aeabi_dmul ; 0x40fc
        0x00000d00:    910b        ..      STR      r1,[sp,#0x2c]
        0x00000d02:    900a        ..      STR      r0,[sp,#0x28]
        0x00000d04:    f002fdc4    ....    BL       __aeabi_d2f ; 0x3890
        0x00000d08:    496b        kI      LDR      r1,[pc,#428] ; [0xeb8] = 0x20000190
        0x00000d0a:    6088        .`      STR      r0,[r1,#8]
        0x00000d0c:    4621        !F      MOV      r1,r4
        0x00000d0e:    a086        ..      ADR      r0,{pc}+0x21a ; 0xf28
        0x00000d10:    f002fc1a    ....    BL       __2printf ; 0x3548
        0x00000d14:    b017        ..      ADD      sp,sp,#0x5c
        0x00000d16:    bdf0        ..      POP      {r4-r7,pc}
    main
        0x00000d18:    b08e        ..      SUB      sp,sp,#0x38
        0x00000d1a:    bf00        ..      NOP      
        0x00000d1c:    f000f9d8    ....    BL       Init_System_Clocks_PLL ; 0x10d0
        0x00000d20:    20e1        .       MOVS     r0,#0xe1
        0x00000d22:    0240        @.      LSLS     r0,r0,#9
        0x00000d24:    f000fcde    ....    BL       Init_Uart0 ; 0x16e4
        0x00000d28:    20e1        .       MOVS     r0,#0xe1
        0x00000d2a:    0240        @.      LSLS     r0,r0,#9
        0x00000d2c:    f000fd92    ....    BL       Init_Uart1 ; 0x1854
        0x00000d30:    2106        .!      MOVS     r1,#6
        0x00000d32:    2003        .       MOVS     r0,#3
        0x00000d34:    f001fa14    ....    BL       Init_GPIO_Output ; 0x2160
        0x00000d38:    f002f8ce    ....    BL       Init_Motors ; 0x2ed8
        0x00000d3c:    f002f925    ..%.    BL       motorESTOP ; 0x2f8a
        0x00000d40:    2009        .       MOVS     r0,#9
        0x00000d42:    f002fabf    ....    BL       Init_Interrupt_Priority ; 0x32c4
        0x00000d46:    f001f969    ..i.    BL       Init_Timer2_ISR ; 0x201c
        0x00000d4a:    f000fa0a    ....    BL       Init_System_Millis_Timer ; 0x1162
        0x00000d4e:    f001fdfa    ....    BL       Init_Encoders ; 0x2946
        0x00000d52:    f000fa36    ..6.    BL       Reset_millis ; 0x11c2
        0x00000d56:    2000        .       MOVS     r0,#0
        0x00000d58:    497d        }I      LDR      r1,[pc,#500] ; [0xf50] = 0x20000058
        0x00000d5a:    7008        .p      STRB     r0,[r1,#0]
        0x00000d5c:    f002f904    ....    BL       motorEnable ; 0x2f68
        0x00000d60:    f000fa16    ....    BL       millis ; 0x1190
        0x00000d64:    497b        {I      LDR      r1,[pc,#492] ; [0xf54] = 0x2000006c
        0x00000d66:    6008        .`      STR      r0,[r1,#0]
        0x00000d68:    486c        lH      LDR      r0,[pc,#432] ; [0xf1c] = 0x447a0000
        0x00000d6a:    f7fffa03    ....    BL       delay_ms ; 0x174
        0x00000d6e:    f7fffd5d    ..].    BL       test_01 ; 0x82c
        0x00000d72:    e060        `.      B        0xe36 ; main + 286
        0x00000d74:    4878        xH      LDR      r0,[pc,#480] ; [0xf58] = 0x20000180
        0x00000d76:    6800        .h      LDR      r0,[r0,#0]
        0x00000d78:    1c40        @.      ADDS     r0,r0,#1
        0x00000d7a:    4977        wI      LDR      r1,[pc,#476] ; [0xf58] = 0x20000180
        0x00000d7c:    6008        .`      STR      r0,[r1,#0]
        0x00000d7e:    f000fa07    ....    BL       millis ; 0x1190
        0x00000d82:    4605        .F      MOV      r5,r0
        0x00000d84:    4875        uH      LDR      r0,[pc,#468] ; [0xf5c] = 0x20000068
        0x00000d86:    6801        .h      LDR      r1,[r0,#0]
        0x00000d88:    4628        (F      MOV      r0,r5
        0x00000d8a:    f005fae7    ....    BL       __aeabi_fsub ; 0x635c
        0x00000d8e:    4604        .F      MOV      r4,r0
        0x00000d90:    4973        sI      LDR      r1,[pc,#460] ; [0xf60] = 0x42c80000
        0x00000d92:    f005fab7    ....    BL       __aeabi_cfrcmple ; 0x6304
        0x00000d96:    d23d        =.      BCS      0xe14 ; main + 252
        0x00000d98:    486f        oH      LDR      r0,[pc,#444] ; [0xf58] = 0x20000180
        0x00000d9a:    6840        @h      LDR      r0,[r0,#4]
        0x00000d9c:    1c40        @.      ADDS     r0,r0,#1
        0x00000d9e:    496e        nI      LDR      r1,[pc,#440] ; [0xf58] = 0x20000180
        0x00000da0:    6048        H`      STR      r0,[r1,#4]
        0x00000da2:    4608        .F      MOV      r0,r1
        0x00000da4:    6840        @h      LDR      r0,[r0,#4]
        0x00000da6:    283e        >(      CMP      r0,#0x3e
        0x00000da8:    d901        ..      BLS      0xdae ; main + 150
        0x00000daa:    2000        .       MOVS     r0,#0
        0x00000dac:    6048        H`      STR      r0,[r1,#4]
        0x00000dae:    f000f9ef    ....    BL       millis ; 0x1190
        0x00000db2:    496a        jI      LDR      r1,[pc,#424] ; [0xf5c] = 0x20000068
        0x00000db4:    6008        .`      STR      r0,[r1,#0]
        0x00000db6:    496b        kI      LDR      r1,[pc,#428] ; [0xf64] = 0x20000158
        0x00000db8:    6908        .i      LDR      r0,[r1,#0x10]
        0x00000dba:    f003facb    ....    BL       __aeabi_f2d ; 0x4354
        0x00000dbe:    4604        .F      MOV      r4,r0
        0x00000dc0:    460d        .F      MOV      r5,r1
        0x00000dc2:    4968        hI      LDR      r1,[pc,#416] ; [0xf64] = 0x20000158
        0x00000dc4:    68c8        .h      LDR      r0,[r1,#0xc]
        0x00000dc6:    f003fac5    ....    BL       __aeabi_f2d ; 0x4354
        0x00000dca:    4606        .F      MOV      r6,r0
        0x00000dcc:    460f        .F      MOV      r7,r1
        0x00000dce:    4965        eI      LDR      r1,[pc,#404] ; [0xf64] = 0x20000158
        0x00000dd0:    6888        .h      LDR      r0,[r1,#8]
        0x00000dd2:    f003fabf    ....    BL       __aeabi_f2d ; 0x4354
        0x00000dd6:    910d        ..      STR      r1,[sp,#0x34]
        0x00000dd8:    900c        ..      STR      r0,[sp,#0x30]
        0x00000dda:    4962        bI      LDR      r1,[pc,#392] ; [0xf64] = 0x20000158
        0x00000ddc:    6848        Hh      LDR      r0,[r1,#4]
        0x00000dde:    f003fab9    ....    BL       __aeabi_f2d ; 0x4354
        0x00000de2:    910b        ..      STR      r1,[sp,#0x2c]
        0x00000de4:    900a        ..      STR      r0,[sp,#0x28]
        0x00000de6:    495f        _I      LDR      r1,[pc,#380] ; [0xf64] = 0x20000158
        0x00000de8:    6808        .h      LDR      r0,[r1,#0]
        0x00000dea:    f003fab3    ....    BL       __aeabi_f2d ; 0x4354
        0x00000dee:    9705        ..      STR      r7,[sp,#0x14]
        0x00000df0:    9604        ..      STR      r6,[sp,#0x10]
        0x00000df2:    9507        ..      STR      r5,[sp,#0x1c]
        0x00000df4:    9406        ..      STR      r4,[sp,#0x18]
        0x00000df6:    9109        ..      STR      r1,[sp,#0x24]
        0x00000df8:    9008        ..      STR      r0,[sp,#0x20]
        0x00000dfa:    990d        ..      LDR      r1,[sp,#0x34]
        0x00000dfc:    980c        ..      LDR      r0,[sp,#0x30]
        0x00000dfe:    9103        ..      STR      r1,[sp,#0xc]
        0x00000e00:    9002        ..      STR      r0,[sp,#8]
        0x00000e02:    990b        ..      LDR      r1,[sp,#0x2c]
        0x00000e04:    980a        ..      LDR      r0,[sp,#0x28]
        0x00000e06:    9101        ..      STR      r1,[sp,#4]
        0x00000e08:    9000        ..      STR      r0,[sp,#0]
        0x00000e0a:    a057        W.      ADR      r0,{pc}+0x15e ; 0xf68
        0x00000e0c:    9b09        ..      LDR      r3,[sp,#0x24]
        0x00000e0e:    9a08        ..      LDR      r2,[sp,#0x20]
        0x00000e10:    f002fb9a    ....    BL       __2printf ; 0x3548
        0x00000e14:    f000f9bc    ....    BL       millis ; 0x1190
        0x00000e18:    4605        .F      MOV      r5,r0
        0x00000e1a:    4850        PH      LDR      r0,[pc,#320] ; [0xf5c] = 0x20000068
        0x00000e1c:    6801        .h      LDR      r1,[r0,#0]
        0x00000e1e:    4628        (F      MOV      r0,r5
        0x00000e20:    f005fa9c    ....    BL       __aeabi_fsub ; 0x635c
        0x00000e24:    4604        .F      MOV      r4,r0
        0x00000e26:    2100        .!      MOVS     r1,#0
        0x00000e28:    f005f9ea    ....    BL       __aeabi_cfcmple ; 0x6200
        0x00000e2c:    d203        ..      BCS      0xe36 ; main + 286
        0x00000e2e:    f000f9af    ....    BL       millis ; 0x1190
        0x00000e32:    494a        JI      LDR      r1,[pc,#296] ; [0xf5c] = 0x20000068
        0x00000e34:    6008        .`      STR      r0,[r1,#0]
        0x00000e36:    e79d        ..      B        0xd74 ; main + 92
    TMR2_IRQHandler
        0x00000e38:    b510        ..      PUSH     {r4,lr}
        0x00000e3a:    4852        RH      LDR      r0,[pc,#328] ; [0xf84] = 0x40110000
        0x00000e3c:    6880        .h      LDR      r0,[r0,#8]
        0x00000e3e:    2101        .!      MOVS     r1,#1
        0x00000e40:    4308        .C      ORRS     r0,r0,r1
        0x00000e42:    4950        PI      LDR      r1,[pc,#320] ; [0xf84] = 0x40110000
        0x00000e44:    6088        .`      STR      r0,[r1,#8]
        0x00000e46:    4850        PH      LDR      r0,[pc,#320] ; [0xf88] = 0x20000008
        0x00000e48:    6800        .h      LDR      r0,[r0,#0]
        0x00000e4a:    1c40        @.      ADDS     r0,r0,#1
        0x00000e4c:    494e        NI      LDR      r1,[pc,#312] ; [0xf88] = 0x20000008
        0x00000e4e:    6008        .`      STR      r0,[r1,#0]
        0x00000e50:    483f        ?H      LDR      r0,[pc,#252] ; [0xf50] = 0x20000058
        0x00000e52:    7800        .x      LDRB     r0,[r0,#0]
        0x00000e54:    2800        .(      CMP      r0,#0
        0x00000e56:    d112        ..      BNE      0xe7e ; TMR2_IRQHandler + 70
        0x00000e58:    2196        .!      MOVS     r1,#0x96
        0x00000e5a:    484b        KH      LDR      r0,[pc,#300] ; [0xf88] = 0x20000008
        0x00000e5c:    6800        .h      LDR      r0,[r0,#0]
        0x00000e5e:    f002fc67    ..g.    BL       __aeabi_uidiv ; 0x3730
        0x00000e62:    294b        K)      CMP      r1,#0x4b
        0x00000e64:    d905        ..      BLS      0xe72 ; TMR2_IRQHandler + 58
        0x00000e66:    2200        ."      MOVS     r2,#0
        0x00000e68:    2106        .!      MOVS     r1,#6
        0x00000e6a:    2003        .       MOVS     r0,#3
        0x00000e6c:    f001fa4e    ..N.    BL       digitalWrite ; 0x230c
        0x00000e70:    e017        ..      B        0xea2 ; TMR2_IRQHandler + 106
        0x00000e72:    2201        ."      MOVS     r2,#1
        0x00000e74:    2106        .!      MOVS     r1,#6
        0x00000e76:    2003        .       MOVS     r0,#3
        0x00000e78:    f001fa48    ..H.    BL       digitalWrite ; 0x230c
        0x00000e7c:    e011        ..      B        0xea2 ; TMR2_IRQHandler + 106
        0x00000e7e:    2114        .!      MOVS     r1,#0x14
        0x00000e80:    4841        AH      LDR      r0,[pc,#260] ; [0xf88] = 0x20000008
        0x00000e82:    6800        .h      LDR      r0,[r0,#0]
        0x00000e84:    f002fc54    ..T.    BL       __aeabi_uidiv ; 0x3730
        0x00000e88:    290a        .)      CMP      r1,#0xa
        0x00000e8a:    d905        ..      BLS      0xe98 ; TMR2_IRQHandler + 96
        0x00000e8c:    2200        ."      MOVS     r2,#0
        0x00000e8e:    2106        .!      MOVS     r1,#6
        0x00000e90:    2003        .       MOVS     r0,#3
        0x00000e92:    f001fa3b    ..;.    BL       digitalWrite ; 0x230c
        0x00000e96:    e004        ..      B        0xea2 ; TMR2_IRQHandler + 106
        0x00000e98:    2201        ."      MOVS     r2,#1
        0x00000e9a:    2106        .!      MOVS     r1,#6
        0x00000e9c:    2003        .       MOVS     r0,#3
        0x00000e9e:    f001fa35    ..5.    BL       digitalWrite ; 0x230c
        0x00000ea2:    f000ffc3    ....    BL       IMU_Update3 ; 0x1e2c
        0x00000ea6:    f7fff97a    ..z.    BL       stateMachine ; 0x19e
        0x00000eaa:    f7fff9db    ....    BL       controller ; 0x264
        0x00000eae:    4837        7H      LDR      r0,[pc,#220] ; [0xf8c] = 0x20000230
        0x00000eb0:    f002f973    ..s.    BL       driveMotors ; 0x319a
        0x00000eb4:    bd10        ..      POP      {r4,pc}
    $d
        0x00000eb6:    0000        ..      DCW    0
        0x00000eb8:    20000190    ...     DCD    536871312
        0x00000ebc:    bf800000    ....    DCD    3212836864
        0x00000ec0:    2000000c    ...     DCD    536870924
        0x00000ec4:    2000019c    ...     DCD    536871324
        0x00000ec8:    3fd80000    ...?    DCD    1071120384
        0x00000ecc:    37db38a1    .8.7    DCD    937113761
        0x00000ed0:    3ff0c152    R..?    DCD    1072742738
        0x00000ed4:    02eec7c9    ....    DCD    49203145
        0x00000ed8:    3f060525    %..?    DCD    1057359141
        0x00000edc:    6e617274    tran    DCD    1851880052
        0x00000ee0:    74616c73    slat    DCD    1952541811
        0x00000ee4:    206e6f69    ion     DCD    544108393
        0x00000ee8:    20646e65    end     DCD    543452773
        0x00000eec:    2d2d2d2d    ----    DCD    757935405
        0x00000ef0:    2d2d2d2d    ----    DCD    757935405
        0x00000ef4:    2d2d2d2d    ----    DCD    757935405
        0x00000ef8:    2d2d2d2d    ----    DCD    757935405
        0x00000efc:    2d2d2d2d    ----    DCD    757935405
        0x00000f00:    2d2d2d2d    ----    DCD    757935405
        0x00000f04:    2d2d2d2d    ----    DCD    757935405
        0x00000f08:    2d2d2d2d    ----    DCD    757935405
        0x00000f0c:    2d2d2d2d    ----    DCD    757935405
        0x00000f10:    6425202d    - %d    DCD    1680154669
        0x00000f14:    00000a20     ...    DCD    2592
        0x00000f18:    20000000    ...     DCD    536870912
        0x00000f1c:    447a0000    ..zD    DCD    1148846080
        0x00000f20:    4072c000    ..r@    DCD    1081262080
        0x00000f24:    40400000    ..@@    DCD    1077936128
        0x00000f28:    20646e32    2nd     DCD    543452722
        0x00000f2c:    746f7220     rot    DCD    1953460768
        0x00000f30:    6f697461    atio    DCD    1869182049
        0x00000f34:    6e65206e    n en    DCD    1852121198
        0x00000f38:    2d2d2064    d --    DCD    757932132
        0x00000f3c:    2d2d2d2d    ----    DCD    757935405
        0x00000f40:    2d2d2d2d    ----    DCD    757935405
        0x00000f44:    2d2d2d2d    ----    DCD    757935405
        0x00000f48:    25202d2d    -- %    DCD    622865709
        0x00000f4c:    000a2064    d ..    DCD    663652
        0x00000f50:    20000058    X..     DCD    536871000
        0x00000f54:    2000006c    l..     DCD    536871020
        0x00000f58:    20000180    ...     DCD    536871296
        0x00000f5c:    20000068    h..     DCD    536871016
        0x00000f60:    42c80000    ...B    DCD    1120403456
        0x00000f64:    20000158    X..     DCD    536871256
        0x00000f68:    322e2509    .%.2    DCD    841884937
        0x00000f6c:    2e250966    f.%.    DCD    774179174
        0x00000f70:    25096632    2f.%    DCD    621372978
        0x00000f74:    0966322e    .2f.    DCD    157692462
        0x00000f78:    66322e25    %.2f    DCD    1714564645
        0x00000f7c:    322e2509    .%.2    DCD    841884937
        0x00000f80:    000a0966    f...    DCD    657766
        0x00000f84:    40110000    ...@    DCD    1074855936
        0x00000f88:    20000008    ...     DCD    536870920
        0x00000f8c:    20000230    0..     DCD    536871472
    $t
    .text
    Un_Lock_Reg
        0x00000f90:    2059        Y       MOVS     r0,#0x59
        0x00000f92:    4915        .I      LDR      r1,[pc,#84] ; [0xfe8] = 0x50000100
        0x00000f94:    6008        .`      STR      r0,[r1,#0]
        0x00000f96:    2016        .       MOVS     r0,#0x16
        0x00000f98:    6008        .`      STR      r0,[r1,#0]
        0x00000f9a:    2088        .       MOVS     r0,#0x88
        0x00000f9c:    6008        .`      STR      r0,[r1,#0]
        0x00000f9e:    4770        pG      BX       lr
    Lock_Reg
        0x00000fa0:    2000        .       MOVS     r0,#0
        0x00000fa2:    4911        .I      LDR      r1,[pc,#68] ; [0xfe8] = 0x50000100
        0x00000fa4:    6008        .`      STR      r0,[r1,#0]
        0x00000fa6:    4770        pG      BX       lr
    PLL_Enable
        0x00000fa8:    4810        .H      LDR      r0,[pc,#64] ; [0xfec] = 0x50000200
        0x00000faa:    6a00        .j      LDR      r0,[r0,#0x20]
        0x00000fac:    2105        .!      MOVS     r1,#5
        0x00000fae:    0409        ..      LSLS     r1,r1,#16
        0x00000fb0:    4388        .C      BICS     r0,r0,r1
        0x00000fb2:    490e        .I      LDR      r1,[pc,#56] ; [0xfec] = 0x50000200
        0x00000fb4:    6208        .b      STR      r0,[r1,#0x20]
        0x00000fb6:    4770        pG      BX       lr
    Short_Delay
        0x00000fb8:    2000        .       MOVS     r0,#0
        0x00000fba:    e002        ..      B        0xfc2 ; Short_Delay + 10
        0x00000fbc:    1c4a        J.      ADDS     r2,r1,#1
        0x00000fbe:    b2d1        ..      UXTB     r1,r2
        0x00000fc0:    1c40        @.      ADDS     r0,r0,#1
        0x00000fc2:    4a0b        .J      LDR      r2,[pc,#44] ; [0xff0] = 0xfff
        0x00000fc4:    4290        .B      CMP      r0,r2
        0x00000fc6:    d3f9        ..      BCC      0xfbc ; Short_Delay + 4
        0x00000fc8:    4770        pG      BX       lr
    NSR_Enable
        0x00000fca:    b500        ..      PUSH     {lr}
        0x00000fcc:    f7ffffe0    ....    BL       Un_Lock_Reg ; 0xf90
        0x00000fd0:    4808        .H      LDR      r0,[pc,#32] ; [0xff4] = 0x5aa5
        0x00000fd2:    0701        ..      LSLS     r1,r0,#28
        0x00000fd4:    6248        Hb      STR      r0,[r1,#0x24]
        0x00000fd6:    bd00        ..      POP      {pc}
    NSR_Disable
        0x00000fd8:    b500        ..      PUSH     {lr}
        0x00000fda:    f7ffffd9    ....    BL       Un_Lock_Reg ; 0xf90
        0x00000fde:    2000        .       MOVS     r0,#0
        0x00000fe0:    2105        .!      MOVS     r1,#5
        0x00000fe2:    0709        ..      LSLS     r1,r1,#28
        0x00000fe4:    6248        Hb      STR      r0,[r1,#0x24]
        0x00000fe6:    bd00        ..      POP      {pc}
    $d
        0x00000fe8:    50000100    ...P    DCD    1342177536
        0x00000fec:    50000200    ...P    DCD    1342177792
        0x00000ff0:    00000fff    ....    DCD    4095
        0x00000ff4:    00005aa5    .Z..    DCD    23205
    $t
    .text
    SendChar
        0x00000ff8:    bf00        ..      NOP      
        0x00000ffa:    491c        .I      LDR      r1,[pc,#112] ; [0x106c] = 0x40150000
        0x00000ffc:    6989        .i      LDR      r1,[r1,#0x18]
        0x00000ffe:    2201        ."      MOVS     r2,#1
        0x00001000:    0592        ..      LSLS     r2,r2,#22
        0x00001002:    4211        .B      TST      r1,r2
        0x00001004:    d0f9        ..      BEQ      0xffa ; SendChar + 2
        0x00001006:    4919        .I      LDR      r1,[pc,#100] ; [0x106c] = 0x40150000
        0x00001008:    6008        .`      STR      r0,[r1,#0]
        0x0000100a:    280a        .(      CMP      r0,#0xa
        0x0000100c:    d109        ..      BNE      0x1022 ; SendChar + 42
        0x0000100e:    bf00        ..      NOP      
        0x00001010:    4916        .I      LDR      r1,[pc,#88] ; [0x106c] = 0x40150000
        0x00001012:    6989        .i      LDR      r1,[r1,#0x18]
        0x00001014:    2201        ."      MOVS     r2,#1
        0x00001016:    0592        ..      LSLS     r2,r2,#22
        0x00001018:    4211        .B      TST      r1,r2
        0x0000101a:    d0f9        ..      BEQ      0x1010 ; SendChar + 24
        0x0000101c:    210d        .!      MOVS     r1,#0xd
        0x0000101e:    4a13        .J      LDR      r2,[pc,#76] ; [0x106c] = 0x40150000
        0x00001020:    6011        .`      STR      r1,[r2,#0]
        0x00001022:    4770        pG      BX       lr
    GetCharPU20
        0x00001024:    e009        ..      B        0x103a ; GetCharPU20 + 22
        0x00001026:    4812        .H      LDR      r0,[pc,#72] ; [0x1070] = 0x40050000
        0x00001028:    6980        .i      LDR      r0,[r0,#0x18]
        0x0000102a:    2101        .!      MOVS     r1,#1
        0x0000102c:    0389        ..      LSLS     r1,r1,#14
        0x0000102e:    4208        .B      TST      r0,r1
        0x00001030:    d103        ..      BNE      0x103a ; GetCharPU20 + 22
        0x00001032:    480f        .H      LDR      r0,[pc,#60] ; [0x1070] = 0x40050000
        0x00001034:    6800        .h      LDR      r0,[r0,#0]
        0x00001036:    b2c0        ..      UXTB     r0,r0
        0x00001038:    4770        pG      BX       lr
        0x0000103a:    e7f4        ..      B        0x1026 ; GetCharPU20 + 2
    _ttywrch
        0x0000103c:    b500        ..      PUSH     {lr}
        0x0000103e:    4603        .F      MOV      r3,r0
        0x00001040:    4618        .F      MOV      r0,r3
        0x00001042:    f7ffffd9    ....    BL       SendChar ; 0xff8
        0x00001046:    bd00        ..      POP      {pc}
    fputc
        0x00001048:    b510        ..      PUSH     {r4,lr}
        0x0000104a:    4603        .F      MOV      r3,r0
        0x0000104c:    460c        .F      MOV      r4,r1
        0x0000104e:    4618        .F      MOV      r0,r3
        0x00001050:    f7ffffd2    ....    BL       SendChar ; 0xff8
        0x00001054:    2000        .       MOVS     r0,#0
        0x00001056:    bd10        ..      POP      {r4,pc}
    fgetc
        0x00001058:    b500        ..      PUSH     {lr}
        0x0000105a:    4602        .F      MOV      r2,r0
        0x0000105c:    f7ffffe2    ....    BL       GetCharPU20 ; 0x1024
        0x00001060:    bd00        ..      POP      {pc}
    ferror
        0x00001062:    4601        .F      MOV      r1,r0
        0x00001064:    2000        .       MOVS     r0,#0
        0x00001066:    43c0        .C      MVNS     r0,r0
        0x00001068:    4770        pG      BX       lr
    $d
        0x0000106a:    0000        ..      DCW    0
        0x0000106c:    40150000    ...@    DCD    1075118080
        0x00001070:    40050000    ...@    DCD    1074069504
    $t
    .text
    Reset_Handler
        0x00001074:    480d        .H      LDR      r0,[pc,#52] ; [0x10ac] = 0x50000100
        0x00001076:    6901        .i      LDR      r1,[r0,#0x10]
        0x00001078:    293f        ?)      CMP      r1,#0x3f
        0x0000107a:    d109        ..      BNE      0x1090 ; Reset_Handler + 28
        0x0000107c:    490c        .I      LDR      r1,[pc,#48] ; [0x10b0] = 0x59
        0x0000107e:    6001        .`      STR      r1,[r0,#0]
        0x00001080:    490c        .I      LDR      r1,[pc,#48] ; [0x10b4] = 0x16
        0x00001082:    6001        .`      STR      r1,[r0,#0]
        0x00001084:    490c        .I      LDR      r1,[pc,#48] ; [0x10b8] = 0x88
        0x00001086:    6001        .`      STR      r1,[r0,#0]
        0x00001088:    490c        .I      LDR      r1,[pc,#48] ; [0x10bc] = 0x20
        0x0000108a:    6101        .a      STR      r1,[r0,#0x10]
        0x0000108c:    2100        .!      MOVS     r1,#0
        0x0000108e:    6001        .`      STR      r1,[r0,#0]
        0x00001090:    480b        .H      LDR      r0,[pc,#44] ; [0x10c0] = 0xc1
        0x00001092:    4700        .G      BX       r0
    NMI_Handler
        0x00001094:    e7fe        ..      B        NMI_Handler ; 0x1094
    HardFault_Handler
        0x00001096:    e7fe        ..      B        HardFault_Handler ; 0x1096
    SVC_Handler
        0x00001098:    e7fe        ..      B        SVC_Handler ; 0x1098
    PendSV_Handler
        0x0000109a:    e7fe        ..      B        PendSV_Handler ; 0x109a
        0x0000109c:    e7fe        ..      B        0x109c ; PendSV_Handler + 2
    Default_Handler
    ADC_IRQHandler
    BOD_IRQHandler
    EINT0_IRQHandler
    EINT1_IRQHandler
    I2C_IRQHandler
    PWMA_IRQHandler
    PWMB_IRQHandler
    PWRWU_IRQHandler
    SPI0_IRQHandler
    SPI1_IRQHandler
    TMR0_IRQHandler
    TMR1_IRQHandler
    TMR3_IRQHandler
    WDT_IRQHandler
        0x0000109e:    e7fe        ..      B        Default_Handler ; 0x109e
    __user_initial_stackheap
        0x000010a0:    4808        .H      LDR      r0,[pc,#32] ; [0x10c4] = 0x20000428
        0x000010a2:    4909        .I      LDR      r1,[pc,#36] ; [0x10c8] = 0x20000828
        0x000010a4:    4a07        .J      LDR      r2,[pc,#28] ; [0x10c4] = 0x20000428
        0x000010a6:    4b09        .K      LDR      r3,[pc,#36] ; [0x10cc] = 0x20000428
        0x000010a8:    4770        pG      BX       lr
    $d
        0x000010aa:    0000        ..      DCW    0
        0x000010ac:    50000100    ...P    DCD    1342177536
        0x000010b0:    00000059    Y...    DCD    89
        0x000010b4:    00000016    ....    DCD    22
        0x000010b8:    00000088    ....    DCD    136
        0x000010bc:    00000020     ...    DCD    32
        0x000010c0:    000000c1    ....    DCD    193
        0x000010c4:    20000428    (..     DCD    536871976
        0x000010c8:    20000828    (..     DCD    536873000
        0x000010cc:    20000428    (..     DCD    536871976
    $t
    .text
    Init_System_Clocks_PLL
        0x000010d0:    b510        ..      PUSH     {r4,lr}
        0x000010d2:    f7ffff5d    ..].    BL       Un_Lock_Reg ; 0xf90
        0x000010d6:    4840        @H      LDR      r0,[pc,#256] ; [0x11d8] = 0x50000200
        0x000010d8:    6800        .h      LDR      r0,[r0,#0]
        0x000010da:    2101        .!      MOVS     r1,#1
        0x000010dc:    4308        .C      ORRS     r0,r0,r1
        0x000010de:    493e        >I      LDR      r1,[pc,#248] ; [0x11d8] = 0x50000200
        0x000010e0:    6008        .`      STR      r0,[r1,#0]
        0x000010e2:    4608        .F      MOV      r0,r1
        0x000010e4:    6800        .h      LDR      r0,[r0,#0]
        0x000010e6:    2108        .!      MOVS     r1,#8
        0x000010e8:    4308        .C      ORRS     r0,r0,r1
        0x000010ea:    493b        ;I      LDR      r1,[pc,#236] ; [0x11d8] = 0x50000200
        0x000010ec:    6008        .`      STR      r0,[r1,#0]
        0x000010ee:    4608        .F      MOV      r0,r1
        0x000010f0:    6800        .h      LDR      r0,[r0,#0]
        0x000010f2:    2104        .!      MOVS     r1,#4
        0x000010f4:    4308        .C      ORRS     r0,r0,r1
        0x000010f6:    4938        8I      LDR      r1,[pc,#224] ; [0x11d8] = 0x50000200
        0x000010f8:    6008        .`      STR      r0,[r1,#0]
        0x000010fa:    bf00        ..      NOP      
        0x000010fc:    4836        6H      LDR      r0,[pc,#216] ; [0x11d8] = 0x50000200
        0x000010fe:    68c0        .h      LDR      r0,[r0,#0xc]
        0x00001100:    07c0        ..      LSLS     r0,r0,#31
        0x00001102:    0fc0        ..      LSRS     r0,r0,#31
        0x00001104:    d0fa        ..      BEQ      0x10fc ; Init_System_Clocks_PLL + 44
        0x00001106:    4834        4H      LDR      r0,[pc,#208] ; [0x11d8] = 0x50000200
        0x00001108:    6900        .i      LDR      r0,[r0,#0x10]
        0x0000110a:    08c0        ..      LSRS     r0,r0,#3
        0x0000110c:    00c0        ..      LSLS     r0,r0,#3
        0x0000110e:    1c80        ..      ADDS     r0,r0,#2
        0x00001110:    4931        1I      LDR      r1,[pc,#196] ; [0x11d8] = 0x50000200
        0x00001112:    6108        .a      STR      r0,[r1,#0x10]
        0x00001114:    f7ffff44    ..D.    BL       Lock_Reg ; 0xfa0
        0x00001118:    bd10        ..      POP      {r4,pc}
    Init_System_Clocks_External_12MHz
        0x0000111a:    b510        ..      PUSH     {r4,lr}
        0x0000111c:    f7ffff38    ..8.    BL       Un_Lock_Reg ; 0xf90
        0x00001120:    482d        -H      LDR      r0,[pc,#180] ; [0x11d8] = 0x50000200
        0x00001122:    6800        .h      LDR      r0,[r0,#0]
        0x00001124:    2101        .!      MOVS     r1,#1
        0x00001126:    4308        .C      ORRS     r0,r0,r1
        0x00001128:    492b        +I      LDR      r1,[pc,#172] ; [0x11d8] = 0x50000200
        0x0000112a:    6008        .`      STR      r0,[r1,#0]
        0x0000112c:    4608        .F      MOV      r0,r1
        0x0000112e:    6800        .h      LDR      r0,[r0,#0]
        0x00001130:    2108        .!      MOVS     r1,#8
        0x00001132:    4308        .C      ORRS     r0,r0,r1
        0x00001134:    4928        (I      LDR      r1,[pc,#160] ; [0x11d8] = 0x50000200
        0x00001136:    6008        .`      STR      r0,[r1,#0]
        0x00001138:    4608        .F      MOV      r0,r1
        0x0000113a:    6800        .h      LDR      r0,[r0,#0]
        0x0000113c:    2104        .!      MOVS     r1,#4
        0x0000113e:    4308        .C      ORRS     r0,r0,r1
        0x00001140:    4925        %I      LDR      r1,[pc,#148] ; [0x11d8] = 0x50000200
        0x00001142:    6008        .`      STR      r0,[r1,#0]
        0x00001144:    bf00        ..      NOP      
        0x00001146:    4824        $H      LDR      r0,[pc,#144] ; [0x11d8] = 0x50000200
        0x00001148:    68c0        .h      LDR      r0,[r0,#0xc]
        0x0000114a:    07c0        ..      LSLS     r0,r0,#31
        0x0000114c:    0fc0        ..      LSRS     r0,r0,#31
        0x0000114e:    d0fa        ..      BEQ      0x1146 ; Init_System_Clocks_External_12MHz + 44
        0x00001150:    4821        !H      LDR      r0,[pc,#132] ; [0x11d8] = 0x50000200
        0x00001152:    6900        .i      LDR      r0,[r0,#0x10]
        0x00001154:    08c0        ..      LSRS     r0,r0,#3
        0x00001156:    00c0        ..      LSLS     r0,r0,#3
        0x00001158:    491f        .I      LDR      r1,[pc,#124] ; [0x11d8] = 0x50000200
        0x0000115a:    6108        .a      STR      r0,[r1,#0x10]
        0x0000115c:    f7ffff20    .. .    BL       Lock_Reg ; 0xfa0
        0x00001160:    bd10        ..      POP      {r4,pc}
    Init_System_Millis_Timer
        0x00001162:    481e        .H      LDR      r0,[pc,#120] ; [0x11dc] = 0xffffff
        0x00001164:    491e        .I      LDR      r1,[pc,#120] ; [0x11e0] = 0xe000e000
        0x00001166:    6188        .a      STR      r0,[r1,#0x18]
        0x00001168:    6148        Ha      STR      r0,[r1,#0x14]
        0x0000116a:    4608        .F      MOV      r0,r1
        0x0000116c:    6900        .i      LDR      r0,[r0,#0x10]
        0x0000116e:    2104        .!      MOVS     r1,#4
        0x00001170:    4308        .C      ORRS     r0,r0,r1
        0x00001172:    491b        .I      LDR      r1,[pc,#108] ; [0x11e0] = 0xe000e000
        0x00001174:    6108        .a      STR      r0,[r1,#0x10]
        0x00001176:    4608        .F      MOV      r0,r1
        0x00001178:    6900        .i      LDR      r0,[r0,#0x10]
        0x0000117a:    2102        .!      MOVS     r1,#2
        0x0000117c:    4308        .C      ORRS     r0,r0,r1
        0x0000117e:    4918        .I      LDR      r1,[pc,#96] ; [0x11e0] = 0xe000e000
        0x00001180:    6108        .a      STR      r0,[r1,#0x10]
        0x00001182:    4608        .F      MOV      r0,r1
        0x00001184:    6900        .i      LDR      r0,[r0,#0x10]
        0x00001186:    2101        .!      MOVS     r1,#1
        0x00001188:    4308        .C      ORRS     r0,r0,r1
        0x0000118a:    4915        .I      LDR      r1,[pc,#84] ; [0x11e0] = 0xe000e000
        0x0000118c:    6108        .a      STR      r0,[r1,#0x10]
        0x0000118e:    4770        pG      BX       lr
    millis
        0x00001190:    b510        ..      PUSH     {r4,lr}
        0x00001192:    4814        .H      LDR      r0,[pc,#80] ; [0x11e4] = 0x200000a8
        0x00001194:    6800        .h      LDR      r0,[r0,#0]
        0x00001196:    0601        ..      LSLS     r1,r0,#24
        0x00001198:    1a08        ..      SUBS     r0,r1,r0
        0x0000119a:    4911        .I      LDR      r1,[pc,#68] ; [0x11e0] = 0xe000e000
        0x0000119c:    6989        .i      LDR      r1,[r1,#0x18]
        0x0000119e:    1a40        @.      SUBS     r0,r0,r1
        0x000011a0:    4911        .I      LDR      r1,[pc,#68] ; [0x11e8] = 0x2000009c
        0x000011a2:    6008        .`      STR      r0,[r1,#0]
        0x000011a4:    4608        .F      MOV      r0,r1
        0x000011a6:    6800        .h      LDR      r0,[r0,#0]
        0x000011a8:    f003fa02    ....    BL       __aeabi_ui2f ; 0x45b0
        0x000011ac:    4604        .F      MOV      r4,r0
        0x000011ae:    480f        .H      LDR      r0,[pc,#60] ; [0x11ec] = 0x200000a0
        0x000011b0:    6801        .h      LDR      r1,[r0,#0]
        0x000011b2:    4620         F      MOV      r0,r4
        0x000011b4:    f005f84e    ..N.    BL       __aeabi_fmul ; 0x6254
        0x000011b8:    490d        .I      LDR      r1,[pc,#52] ; [0x11f0] = 0x200000a4
        0x000011ba:    6008        .`      STR      r0,[r1,#0]
        0x000011bc:    4608        .F      MOV      r0,r1
        0x000011be:    6800        .h      LDR      r0,[r0,#0]
        0x000011c0:    bd10        ..      POP      {r4,pc}
    Reset_millis
        0x000011c2:    4806        .H      LDR      r0,[pc,#24] ; [0x11dc] = 0xffffff
        0x000011c4:    4906        .I      LDR      r1,[pc,#24] ; [0x11e0] = 0xe000e000
        0x000011c6:    6188        .a      STR      r0,[r1,#0x18]
        0x000011c8:    4770        pG      BX       lr
    SysTick_Handler
        0x000011ca:    4806        .H      LDR      r0,[pc,#24] ; [0x11e4] = 0x200000a8
        0x000011cc:    6800        .h      LDR      r0,[r0,#0]
        0x000011ce:    1c40        @.      ADDS     r0,r0,#1
        0x000011d0:    4904        .I      LDR      r1,[pc,#16] ; [0x11e4] = 0x200000a8
        0x000011d2:    6008        .`      STR      r0,[r1,#0]
        0x000011d4:    4770        pG      BX       lr
    $d
        0x000011d6:    0000        ..      DCW    0
        0x000011d8:    50000200    ...P    DCD    1342177792
        0x000011dc:    00ffffff    ....    DCD    16777215
        0x000011e0:    e000e000    ....    DCD    3758153728
        0x000011e4:    200000a8    ...     DCD    536871080
        0x000011e8:    2000009c    ...     DCD    536871068
        0x000011ec:    200000a0    ...     DCD    536871072
        0x000011f0:    200000a4    ...     DCD    536871076
    $t
    .text
    LOG
        0x000011f4:    4770        pG      BX       lr
    uart_put
        0x000011f6:    2800        .(      CMP      r0,#0
        0x000011f8:    d002        ..      BEQ      0x1200 ; uart_put + 10
        0x000011fa:    2801        .(      CMP      r0,#1
        0x000011fc:    d12c        ,.      BNE      0x1258 ; uart_put + 98
        0x000011fe:    e015        ..      B        0x122c ; uart_put + 54
        0x00001200:    bf00        ..      NOP      
        0x00001202:    4afd        .J      LDR      r2,[pc,#1012] ; [0x15f8] = 0x40050000
        0x00001204:    6992        .i      LDR      r2,[r2,#0x18]
        0x00001206:    2301        .#      MOVS     r3,#1
        0x00001208:    059b        ..      LSLS     r3,r3,#22
        0x0000120a:    421a        .B      TST      r2,r3
        0x0000120c:    d0f9        ..      BEQ      0x1202 ; uart_put + 12
        0x0000120e:    4afa        .J      LDR      r2,[pc,#1000] ; [0x15f8] = 0x40050000
        0x00001210:    6011        .`      STR      r1,[r2,#0]
        0x00001212:    290a        .)      CMP      r1,#0xa
        0x00001214:    d109        ..      BNE      0x122a ; uart_put + 52
        0x00001216:    bf00        ..      NOP      
        0x00001218:    4af7        .J      LDR      r2,[pc,#988] ; [0x15f8] = 0x40050000
        0x0000121a:    6992        .i      LDR      r2,[r2,#0x18]
        0x0000121c:    2301        .#      MOVS     r3,#1
        0x0000121e:    059b        ..      LSLS     r3,r3,#22
        0x00001220:    421a        .B      TST      r2,r3
        0x00001222:    d0f9        ..      BEQ      0x1218 ; uart_put + 34
        0x00001224:    220d        ."      MOVS     r2,#0xd
        0x00001226:    4bf4        .K      LDR      r3,[pc,#976] ; [0x15f8] = 0x40050000
        0x00001228:    601a        .`      STR      r2,[r3,#0]
        0x0000122a:    e015        ..      B        0x1258 ; uart_put + 98
        0x0000122c:    bf00        ..      NOP      
        0x0000122e:    4af3        .J      LDR      r2,[pc,#972] ; [0x15fc] = 0x40150000
        0x00001230:    6992        .i      LDR      r2,[r2,#0x18]
        0x00001232:    2301        .#      MOVS     r3,#1
        0x00001234:    059b        ..      LSLS     r3,r3,#22
        0x00001236:    421a        .B      TST      r2,r3
        0x00001238:    d0f9        ..      BEQ      0x122e ; uart_put + 56
        0x0000123a:    4af0        .J      LDR      r2,[pc,#960] ; [0x15fc] = 0x40150000
        0x0000123c:    6011        .`      STR      r1,[r2,#0]
        0x0000123e:    290a        .)      CMP      r1,#0xa
        0x00001240:    d109        ..      BNE      0x1256 ; uart_put + 96
        0x00001242:    bf00        ..      NOP      
        0x00001244:    4aed        .J      LDR      r2,[pc,#948] ; [0x15fc] = 0x40150000
        0x00001246:    6992        .i      LDR      r2,[r2,#0x18]
        0x00001248:    2301        .#      MOVS     r3,#1
        0x0000124a:    059b        ..      LSLS     r3,r3,#22
        0x0000124c:    421a        .B      TST      r2,r3
        0x0000124e:    d0f9        ..      BEQ      0x1244 ; uart_put + 78
        0x00001250:    220d        ."      MOVS     r2,#0xd
        0x00001252:    4bea        .K      LDR      r3,[pc,#936] ; [0x15fc] = 0x40150000
        0x00001254:    601a        .`      STR      r2,[r3,#0]
        0x00001256:    bf00        ..      NOP      
        0x00001258:    bf00        ..      NOP      
        0x0000125a:    4770        pG      BX       lr
    parseUARTbuffer
        0x0000125c:    b5f0        ..      PUSH     {r4-r7,lr}
        0x0000125e:    b093        ..      SUB      sp,sp,#0x4c
        0x00001260:    4606        .F      MOV      r6,r0
        0x00001262:    2000        .       MOVS     r0,#0
        0x00001264:    9012        ..      STR      r0,[sp,#0x48]
        0x00001266:    9011        ..      STR      r0,[sp,#0x44]
        0x00001268:    6030        0`      STR      r0,[r6,#0]
        0x0000126a:    6070        p`      STR      r0,[r6,#4]
        0x0000126c:    60b0        .`      STR      r0,[r6,#8]
        0x0000126e:    f7ffff8f    ....    BL       millis ; 0x1190
        0x00001272:    4604        .F      MOV      r4,r0
        0x00001274:    48e2        .H      LDR      r0,[pc,#904] ; [0x1600] = 0x200000bc
        0x00001276:    6801        .h      LDR      r1,[r0,#0]
        0x00001278:    4620         F      MOV      r0,r4
        0x0000127a:    f005f86f    ..o.    BL       __aeabi_fsub ; 0x635c
        0x0000127e:    9011        ..      STR      r0,[sp,#0x44]
        0x00001280:    2100        .!      MOVS     r1,#0
        0x00001282:    9811        ..      LDR      r0,[sp,#0x44]
        0x00001284:    f004ffbc    ....    BL       __aeabi_cfcmple ; 0x6200
        0x00001288:    d203        ..      BCS      0x1292 ; parseUARTbuffer + 54
        0x0000128a:    2000        .       MOVS     r0,#0
        0x0000128c:    49dd        .I      LDR      r1,[pc,#884] ; [0x1604] = 0x2000038c
        0x0000128e:    6008        .`      STR      r0,[r1,#0]
        0x00001290:    e107        ..      B        0x14a2 ; parseUARTbuffer + 582
        0x00001292:    9811        ..      LDR      r0,[sp,#0x44]
        0x00001294:    f003f85e    ..^.    BL       __aeabi_f2d ; 0x4354
        0x00001298:    4604        .F      MOV      r4,r0
        0x0000129a:    2200        ."      MOVS     r2,#0
        0x0000129c:    4bda        .K      LDR      r3,[pc,#872] ; [0x1608] = 0x4070e000
        0x0000129e:    f004fed9    ....    BL       __aeabi_cdcmple ; 0x6054
        0x000012a2:    d2f5        ..      BCS      0x1290 ; parseUARTbuffer + 52
        0x000012a4:    48d7        .H      LDR      r0,[pc,#860] ; [0x1604] = 0x2000038c
        0x000012a6:    6800        .h      LDR      r0,[r0,#0]
        0x000012a8:    2865        e(      CMP      r0,#0x65
        0x000012aa:    d016        ..      BEQ      0x12da ; parseUARTbuffer + 126
        0x000012ac:    dc08        ..      BGT      0x12c0 ; parseUARTbuffer + 100
        0x000012ae:    2842        B(      CMP      r0,#0x42
        0x000012b0:    d07e        ~.      BEQ      0x13b0 ; parseUARTbuffer + 340
        0x000012b2:    2845        E(      CMP      r0,#0x45
        0x000012b4:    d07d        }.      BEQ      0x13b2 ; parseUARTbuffer + 342
        0x000012b6:    2847        G(      CMP      r0,#0x47
        0x000012b8:    d07c        |.      BEQ      0x13b4 ; parseUARTbuffer + 344
        0x000012ba:    2850        P(      CMP      r0,#0x50
        0x000012bc:    d17b        {.      BNE      0x13b6 ; parseUARTbuffer + 346
        0x000012be:    e008        ..      B        0x12d2 ; parseUARTbuffer + 118
        0x000012c0:    2866        f(      CMP      r0,#0x66
        0x000012c2:    d00d        ..      BEQ      0x12e0 ; parseUARTbuffer + 132
        0x000012c4:    2881        .(      CMP      r0,#0x81
        0x000012c6:    d00e        ..      BEQ      0x12e6 ; parseUARTbuffer + 138
        0x000012c8:    2882        .(      CMP      r0,#0x82
        0x000012ca:    d075        u.      BEQ      0x13b8 ; parseUARTbuffer + 348
        0x000012cc:    2883        .(      CMP      r0,#0x83
        0x000012ce:    d1f5        ..      BNE      0x12bc ; parseUARTbuffer + 96
        0x000012d0:    e0b3        ..      B        0x143a ; parseUARTbuffer + 478
        0x000012d2:    a0ce        ..      ADR      r0,{pc}+0x33a ; 0x160c
        0x000012d4:    f7ffff8e    ....    BL       LOG ; 0x11f4
        0x000012d8:    e0e2        ..      B        0x14a0 ; parseUARTbuffer + 580
        0x000012da:    2065        e       MOVS     r0,#0x65
        0x000012dc:    9012        ..      STR      r0,[sp,#0x48]
        0x000012de:    e0df        ..      B        0x14a0 ; parseUARTbuffer + 580
        0x000012e0:    2066        f       MOVS     r0,#0x66
        0x000012e2:    9012        ..      STR      r0,[sp,#0x48]
        0x000012e4:    e0dc        ..      B        0x14a0 ; parseUARTbuffer + 580
        0x000012e6:    a0ca        ..      ADR      r0,{pc}+0x32a ; 0x1610
        0x000012e8:    f7ffff84    ....    BL       LOG ; 0x11f4
        0x000012ec:    48c5        .H      LDR      r0,[pc,#788] ; [0x1604] = 0x2000038c
        0x000012ee:    6844        Dh      LDR      r4,[r0,#4]
        0x000012f0:    2c00        .,      CMP      r4,#0
        0x000012f2:    db01        ..      BLT      0x12f8 ; parseUARTbuffer + 156
        0x000012f4:    2c78        x,      CMP      r4,#0x78
        0x000012f6:    dd02        ..      BLE      0x12fe ; parseUARTbuffer + 162
        0x000012f8:    2000        .       MOVS     r0,#0
        0x000012fa:    b013        ..      ADD      sp,sp,#0x4c
        0x000012fc:    bdf0        ..      POP      {r4-r7,pc}
        0x000012fe:    4fcc        .O      LDR      r7,[pc,#816] ; [0x1630] = 0x43c80000
        0x00001300:    0060        `.      LSLS     r0,r4,#1
        0x00001302:    1820         .      ADDS     r0,r4,r0
        0x00001304:    4604        .F      MOV      r4,r0
        0x00001306:    3c5a        Z<      SUBS     r4,r4,#0x5a
        0x00001308:    2196        .!      MOVS     r1,#0x96
        0x0000130a:    1b08        ..      SUBS     r0,r1,r4
        0x0000130c:    f002feeb    ....    BL       __aeabi_i2d ; 0x40e6
        0x00001310:    9103        ..      STR      r1,[sp,#0xc]
        0x00001312:    9002        ..      STR      r0,[sp,#8]
        0x00001314:    48c7        .H      LDR      r0,[pc,#796] ; [0x1634] = 0x200000d0
        0x00001316:    c80c        ..      LDM      r0!,{r2,r3}
        0x00001318:    9802        ..      LDR      r0,[sp,#8]
        0x0000131a:    f002feef    ....    BL       __aeabi_dmul ; 0x40fc
        0x0000131e:    9105        ..      STR      r1,[sp,#0x14]
        0x00001320:    9004        ..      STR      r0,[sp,#0x10]
        0x00001322:    f002fab5    ....    BL       __aeabi_d2f ; 0x3890
        0x00001326:    9010        ..      STR      r0,[sp,#0x40]
        0x00001328:    211e        .!      MOVS     r1,#0x1e
        0x0000132a:    1b08        ..      SUBS     r0,r1,r4
        0x0000132c:    f002fedb    ....    BL       __aeabi_i2d ; 0x40e6
        0x00001330:    9103        ..      STR      r1,[sp,#0xc]
        0x00001332:    9002        ..      STR      r0,[sp,#8]
        0x00001334:    48bf        .H      LDR      r0,[pc,#764] ; [0x1634] = 0x200000d0
        0x00001336:    c80c        ..      LDM      r0!,{r2,r3}
        0x00001338:    9802        ..      LDR      r0,[sp,#8]
        0x0000133a:    f002fedf    ....    BL       __aeabi_dmul ; 0x40fc
        0x0000133e:    9105        ..      STR      r1,[sp,#0x14]
        0x00001340:    9004        ..      STR      r0,[sp,#0x10]
        0x00001342:    f002faa5    ....    BL       __aeabi_d2f ; 0x3890
        0x00001346:    900f        ..      STR      r0,[sp,#0x3c]
        0x00001348:    21ff        .!      MOVS     r1,#0xff
        0x0000134a:    310f        .1      ADDS     r1,r1,#0xf
        0x0000134c:    1b08        ..      SUBS     r0,r1,r4
        0x0000134e:    f002feca    ....    BL       __aeabi_i2d ; 0x40e6
        0x00001352:    9103        ..      STR      r1,[sp,#0xc]
        0x00001354:    9002        ..      STR      r0,[sp,#8]
        0x00001356:    48b7        .H      LDR      r0,[pc,#732] ; [0x1634] = 0x200000d0
        0x00001358:    c80c        ..      LDM      r0!,{r2,r3}
        0x0000135a:    9802        ..      LDR      r0,[sp,#8]
        0x0000135c:    f002fece    ....    BL       __aeabi_dmul ; 0x40fc
        0x00001360:    9105        ..      STR      r1,[sp,#0x14]
        0x00001362:    9004        ..      STR      r0,[sp,#0x10]
        0x00001364:    f002fa94    ....    BL       __aeabi_d2f ; 0x3890
        0x00001368:    900e        ..      STR      r0,[sp,#0x38]
        0x0000136a:    9810        ..      LDR      r0,[sp,#0x40]
        0x0000136c:    f002fff2    ....    BL       __aeabi_f2d ; 0x4354
        0x00001370:    9101        ..      STR      r1,[sp,#4]
        0x00001372:    9000        ..      STR      r0,[sp,#0]
        0x00001374:    f004fe08    ....    BL       cos ; 0x5f88
        0x00001378:    9105        ..      STR      r1,[sp,#0x14]
        0x0000137a:    9004        ..      STR      r0,[sp,#0x10]
        0x0000137c:    4638        8F      MOV      r0,r7
        0x0000137e:    f002ffe9    ....    BL       __aeabi_f2d ; 0x4354
        0x00001382:    9103        ..      STR      r1,[sp,#0xc]
        0x00001384:    9002        ..      STR      r0,[sp,#8]
        0x00001386:    9b05        ..      LDR      r3,[sp,#0x14]
        0x00001388:    9a04        ..      LDR      r2,[sp,#0x10]
        0x0000138a:    f002feb7    ....    BL       __aeabi_dmul ; 0x40fc
        0x0000138e:    910d        ..      STR      r1,[sp,#0x34]
        0x00001390:    900c        ..      STR      r0,[sp,#0x30]
        0x00001392:    980f        ..      LDR      r0,[sp,#0x3c]
        0x00001394:    f002ffde    ....    BL       __aeabi_f2d ; 0x4354
        0x00001398:    9101        ..      STR      r1,[sp,#4]
        0x0000139a:    9000        ..      STR      r0,[sp,#0]
        0x0000139c:    f004fdf4    ....    BL       cos ; 0x5f88
        0x000013a0:    9105        ..      STR      r1,[sp,#0x14]
        0x000013a2:    9004        ..      STR      r0,[sp,#0x10]
        0x000013a4:    4638        8F      MOV      r0,r7
        0x000013a6:    f002ffd5    ....    BL       __aeabi_f2d ; 0x4354
        0x000013aa:    9103        ..      STR      r1,[sp,#0xc]
        0x000013ac:    9002        ..      STR      r0,[sp,#8]
        0x000013ae:    e004        ..      B        0x13ba ; parseUARTbuffer + 350
        0x000013b0:    e04f        O.      B        0x1452 ; parseUARTbuffer + 502
        0x000013b2:    e061        a.      B        0x1478 ; parseUARTbuffer + 540
        0x000013b4:    e04e        N.      B        0x1454 ; parseUARTbuffer + 504
        0x000013b6:    e072        r.      B        0x149e ; parseUARTbuffer + 578
        0x000013b8:    e029        ).      B        0x140e ; parseUARTbuffer + 434
        0x000013ba:    9b05        ..      LDR      r3,[sp,#0x14]
        0x000013bc:    9a04        ..      LDR      r2,[sp,#0x10]
        0x000013be:    f002fe9d    ....    BL       __aeabi_dmul ; 0x40fc
        0x000013c2:    910b        ..      STR      r1,[sp,#0x2c]
        0x000013c4:    900a        ..      STR      r0,[sp,#0x28]
        0x000013c6:    980e        ..      LDR      r0,[sp,#0x38]
        0x000013c8:    f002ffc4    ....    BL       __aeabi_f2d ; 0x4354
        0x000013cc:    9101        ..      STR      r1,[sp,#4]
        0x000013ce:    9000        ..      STR      r0,[sp,#0]
        0x000013d0:    f004fdda    ....    BL       cos ; 0x5f88
        0x000013d4:    9105        ..      STR      r1,[sp,#0x14]
        0x000013d6:    9004        ..      STR      r0,[sp,#0x10]
        0x000013d8:    4638        8F      MOV      r0,r7
        0x000013da:    f002ffbb    ....    BL       __aeabi_f2d ; 0x4354
        0x000013de:    9103        ..      STR      r1,[sp,#0xc]
        0x000013e0:    9002        ..      STR      r0,[sp,#8]
        0x000013e2:    9b05        ..      LDR      r3,[sp,#0x14]
        0x000013e4:    9a04        ..      LDR      r2,[sp,#0x10]
        0x000013e6:    f002fe89    ....    BL       __aeabi_dmul ; 0x40fc
        0x000013ea:    9109        ..      STR      r1,[sp,#0x24]
        0x000013ec:    9008        ..      STR      r0,[sp,#0x20]
        0x000013ee:    990d        ..      LDR      r1,[sp,#0x34]
        0x000013f0:    980c        ..      LDR      r0,[sp,#0x30]
        0x000013f2:    f002fa4d    ..M.    BL       __aeabi_d2f ; 0x3890
        0x000013f6:    6030        0`      STR      r0,[r6,#0]
        0x000013f8:    990b        ..      LDR      r1,[sp,#0x2c]
        0x000013fa:    980a        ..      LDR      r0,[sp,#0x28]
        0x000013fc:    f002fa48    ..H.    BL       __aeabi_d2f ; 0x3890
        0x00001400:    6070        p`      STR      r0,[r6,#4]
        0x00001402:    9909        ..      LDR      r1,[sp,#0x24]
        0x00001404:    9808        ..      LDR      r0,[sp,#0x20]
        0x00001406:    f002fa43    ..C.    BL       __aeabi_d2f ; 0x3890
        0x0000140a:    60b0        .`      STR      r0,[r6,#8]
        0x0000140c:    e048        H.      B        0x14a0 ; parseUARTbuffer + 580
        0x0000140e:    487d        }H      LDR      r0,[pc,#500] ; [0x1604] = 0x2000038c
        0x00001410:    7905        .y      LDRB     r5,[r0,#4]
        0x00001412:    2000        .       MOVS     r0,#0
        0x00001414:    9007        ..      STR      r0,[sp,#0x1c]
        0x00001416:    2d32        2-      CMP      r5,#0x32
        0x00001418:    db05        ..      BLT      0x1426 ; parseUARTbuffer + 458
        0x0000141a:    2132        2!      MOVS     r1,#0x32
        0x0000141c:    1b48        H.      SUBS     r0,r1,r5
        0x0000141e:    f003f8bf    ....    BL       __aeabi_i2f ; 0x45a0
        0x00001422:    9007        ..      STR      r0,[sp,#0x1c]
        0x00001424:    e003        ..      B        0x142e ; parseUARTbuffer + 466
        0x00001426:    4628        (F      MOV      r0,r5
        0x00001428:    f003f8c2    ....    BL       __aeabi_ui2f ; 0x45b0
        0x0000142c:    9007        ..      STR      r0,[sp,#0x1c]
        0x0000142e:    4982        .I      LDR      r1,[pc,#520] ; [0x1638] = 0x41a00000
        0x00001430:    9807        ..      LDR      r0,[sp,#0x1c]
        0x00001432:    f004ff0f    ....    BL       __aeabi_fmul ; 0x6254
        0x00001436:    6030        0`      STR      r0,[r6,#0]
        0x00001438:    e032        2.      B        0x14a0 ; parseUARTbuffer + 580
        0x0000143a:    4872        rH      LDR      r0,[pc,#456] ; [0x1604] = 0x2000038c
        0x0000143c:    7900        .y      LDRB     r0,[r0,#4]
        0x0000143e:    9006        ..      STR      r0,[sp,#0x18]
        0x00001440:    9806        ..      LDR      r0,[sp,#0x18]
        0x00001442:    f003f8b5    ....    BL       __aeabi_ui2f ; 0x45b0
        0x00001446:    497d        }I      LDR      r1,[pc,#500] ; [0x163c] = 0x41100000
        0x00001448:    9005        ..      STR      r0,[sp,#0x14]
        0x0000144a:    f004ff03    ....    BL       __aeabi_fmul ; 0x6254
        0x0000144e:    6030        0`      STR      r0,[r6,#0]
        0x00001450:    e026        &.      B        0x14a0 ; parseUARTbuffer + 580
        0x00001452:    bf00        ..      NOP      
        0x00001454:    486b        kH      LDR      r0,[pc,#428] ; [0x1604] = 0x2000038c
        0x00001456:    7801        .x      LDRB     r1,[r0,#0]
        0x00001458:    2001        .       MOVS     r0,#1
        0x0000145a:    f7fffecc    ....    BL       uart_put ; 0x11f6
        0x0000145e:    4869        iH      LDR      r0,[pc,#420] ; [0x1604] = 0x2000038c
        0x00001460:    7901        .y      LDRB     r1,[r0,#4]
        0x00001462:    2001        .       MOVS     r0,#1
        0x00001464:    f7fffec7    ....    BL       uart_put ; 0x11f6
        0x00001468:    2100        .!      MOVS     r1,#0
        0x0000146a:    2001        .       MOVS     r0,#1
        0x0000146c:    f7fffec3    ....    BL       uart_put ; 0x11f6
        0x00001470:    2000        .       MOVS     r0,#0
        0x00001472:    4964        dI      LDR      r1,[pc,#400] ; [0x1604] = 0x2000038c
        0x00001474:    6008        .`      STR      r0,[r1,#0]
        0x00001476:    e013        ..      B        0x14a0 ; parseUARTbuffer + 580
        0x00001478:    4862        bH      LDR      r0,[pc,#392] ; [0x1604] = 0x2000038c
        0x0000147a:    7801        .x      LDRB     r1,[r0,#0]
        0x0000147c:    2001        .       MOVS     r0,#1
        0x0000147e:    f7fffeba    ....    BL       uart_put ; 0x11f6
        0x00001482:    4860        `H      LDR      r0,[pc,#384] ; [0x1604] = 0x2000038c
        0x00001484:    7901        .y      LDRB     r1,[r0,#4]
        0x00001486:    2001        .       MOVS     r0,#1
        0x00001488:    f7fffeb5    ....    BL       uart_put ; 0x11f6
        0x0000148c:    485d        ]H      LDR      r0,[pc,#372] ; [0x1604] = 0x2000038c
        0x0000148e:    7a01        .z      LDRB     r1,[r0,#8]
        0x00001490:    2001        .       MOVS     r0,#1
        0x00001492:    f7fffeb0    ....    BL       uart_put ; 0x11f6
        0x00001496:    2000        .       MOVS     r0,#0
        0x00001498:    495a        ZI      LDR      r1,[pc,#360] ; [0x1604] = 0x2000038c
        0x0000149a:    6008        .`      STR      r0,[r1,#0]
        0x0000149c:    e000        ..      B        0x14a0 ; parseUARTbuffer + 580
        0x0000149e:    bf00        ..      NOP      
        0x000014a0:    bf00        ..      NOP      
        0x000014a2:    f7fffe75    ..u.    BL       millis ; 0x1190
        0x000014a6:    4604        .F      MOV      r4,r0
        0x000014a8:    4865        eH      LDR      r0,[pc,#404] ; [0x1640] = 0x200000c0
        0x000014aa:    6801        .h      LDR      r1,[r0,#0]
        0x000014ac:    4620         F      MOV      r0,r4
        0x000014ae:    f004ff55    ..U.    BL       __aeabi_fsub ; 0x635c
        0x000014b2:    9011        ..      STR      r0,[sp,#0x44]
        0x000014b4:    2100        .!      MOVS     r1,#0
        0x000014b6:    9811        ..      LDR      r0,[sp,#0x44]
        0x000014b8:    f004fea2    ....    BL       __aeabi_cfcmple ; 0x6200
        0x000014bc:    d203        ..      BCS      0x14c6 ; parseUARTbuffer + 618
        0x000014be:    2000        .       MOVS     r0,#0
        0x000014c0:    4960        `I      LDR      r1,[pc,#384] ; [0x1644] = 0x20000398
        0x000014c2:    6008        .`      STR      r0,[r1,#0]
        0x000014c4:    e10c        ..      B        0x16e0 ; parseUARTbuffer + 1156
        0x000014c6:    9811        ..      LDR      r0,[sp,#0x44]
        0x000014c8:    f002ff44    ..D.    BL       __aeabi_f2d ; 0x4354
        0x000014cc:    4604        .F      MOV      r4,r0
        0x000014ce:    2200        ."      MOVS     r2,#0
        0x000014d0:    4b4d        MK      LDR      r3,[pc,#308] ; [0x1608] = 0x4070e000
        0x000014d2:    f004fdbf    ....    BL       __aeabi_cdcmple ; 0x6054
        0x000014d6:    d2f5        ..      BCS      0x14c4 ; parseUARTbuffer + 616
        0x000014d8:    485a        ZH      LDR      r0,[pc,#360] ; [0x1644] = 0x20000398
        0x000014da:    6800        .h      LDR      r0,[r0,#0]
        0x000014dc:    2865        e(      CMP      r0,#0x65
        0x000014de:    d026        &.      BEQ      0x152e ; parseUARTbuffer + 722
        0x000014e0:    dc10        ..      BGT      0x1504 ; parseUARTbuffer + 680
        0x000014e2:    2846        F(      CMP      r0,#0x46
        0x000014e4:    d043        C.      BEQ      0x156e ; parseUARTbuffer + 786
        0x000014e6:    dc06        ..      BGT      0x14f6 ; parseUARTbuffer + 666
        0x000014e8:    2840        @(      CMP      r0,#0x40
        0x000014ea:    d02c        ,.      BEQ      0x1546 ; parseUARTbuffer + 746
        0x000014ec:    2841        A(      CMP      r0,#0x41
        0x000014ee:    d029        ).      BEQ      0x1544 ; parseUARTbuffer + 744
        0x000014f0:    2844        D(      CMP      r0,#0x44
        0x000014f2:    d17d        }.      BNE      0x15f0 ; parseUARTbuffer + 916
        0x000014f4:    e025        %.      B        0x1542 ; parseUARTbuffer + 742
        0x000014f6:    2848        H(      CMP      r0,#0x48
        0x000014f8:    d027        '.      BEQ      0x154a ; parseUARTbuffer + 750
        0x000014fa:    2849        I(      CMP      r0,#0x49
        0x000014fc:    d024        $.      BEQ      0x1548 ; parseUARTbuffer + 748
        0x000014fe:    2850        P(      CMP      r0,#0x50
        0x00001500:    d1f7        ..      BNE      0x14f2 ; parseUARTbuffer + 662
        0x00001502:    e010        ..      B        0x1526 ; parseUARTbuffer + 714
        0x00001504:    2872        r(      CMP      r0,#0x72
        0x00001506:    d074        t.      BEQ      0x15f2 ; parseUARTbuffer + 918
        0x00001508:    dc06        ..      BGT      0x1518 ; parseUARTbuffer + 700
        0x0000150a:    2866        f(      CMP      r0,#0x66
        0x0000150c:    d012        ..      BEQ      0x1534 ; parseUARTbuffer + 728
        0x0000150e:    2870        p(      CMP      r0,#0x70
        0x00001510:    d03f        ?.      BEQ      0x1592 ; parseUARTbuffer + 822
        0x00001512:    2871        q(      CMP      r0,#0x71
        0x00001514:    d1ed        ..      BNE      0x14f2 ; parseUARTbuffer + 662
        0x00001516:    e059        Y.      B        0x15cc ; parseUARTbuffer + 880
        0x00001518:    2873        s(      CMP      r0,#0x73
        0x0000151a:    d06b        k.      BEQ      0x15f4 ; parseUARTbuffer + 920
        0x0000151c:    2881        .(      CMP      r0,#0x81
        0x0000151e:    d00c        ..      BEQ      0x153a ; parseUARTbuffer + 734
        0x00001520:    2883        .(      CMP      r0,#0x83
        0x00001522:    d1e6        ..      BNE      0x14f2 ; parseUARTbuffer + 662
        0x00001524:    e034        4.      B        0x1590 ; parseUARTbuffer + 820
        0x00001526:    a039        9.      ADR      r0,{pc}+0xe6 ; 0x160c
        0x00001528:    f7fffe64    ..d.    BL       LOG ; 0x11f4
        0x0000152c:    e0d7        ..      B        0x16de ; parseUARTbuffer + 1154
        0x0000152e:    2065        e       MOVS     r0,#0x65
        0x00001530:    9012        ..      STR      r0,[sp,#0x48]
        0x00001532:    e0d4        ..      B        0x16de ; parseUARTbuffer + 1154
        0x00001534:    2066        f       MOVS     r0,#0x66
        0x00001536:    9012        ..      STR      r0,[sp,#0x48]
        0x00001538:    e0d1        ..      B        0x16de ; parseUARTbuffer + 1154
        0x0000153a:    a043        C.      ADR      r0,{pc}+0x10e ; 0x1648
        0x0000153c:    f7fffe5a    ..Z.    BL       LOG ; 0x11f4
        0x00001540:    e0cd        ..      B        0x16de ; parseUARTbuffer + 1154
        0x00001542:    bf00        ..      NOP      
        0x00001544:    bf00        ..      NOP      
        0x00001546:    bf00        ..      NOP      
        0x00001548:    bf00        ..      NOP      
        0x0000154a:    483e        >H      LDR      r0,[pc,#248] ; [0x1644] = 0x20000398
        0x0000154c:    7801        .x      LDRB     r1,[r0,#0]
        0x0000154e:    2000        .       MOVS     r0,#0
        0x00001550:    f7fffe51    ..Q.    BL       uart_put ; 0x11f6
        0x00001554:    483b        ;H      LDR      r0,[pc,#236] ; [0x1644] = 0x20000398
        0x00001556:    7901        .y      LDRB     r1,[r0,#4]
        0x00001558:    2000        .       MOVS     r0,#0
        0x0000155a:    f7fffe4c    ..L.    BL       uart_put ; 0x11f6
        0x0000155e:    2100        .!      MOVS     r1,#0
        0x00001560:    4608        .F      MOV      r0,r1
        0x00001562:    f7fffe48    ..H.    BL       uart_put ; 0x11f6
        0x00001566:    2000        .       MOVS     r0,#0
        0x00001568:    4936        6I      LDR      r1,[pc,#216] ; [0x1644] = 0x20000398
        0x0000156a:    6008        .`      STR      r0,[r1,#0]
        0x0000156c:    e0b7        ..      B        0x16de ; parseUARTbuffer + 1154
        0x0000156e:    4835        5H      LDR      r0,[pc,#212] ; [0x1644] = 0x20000398
        0x00001570:    7801        .x      LDRB     r1,[r0,#0]
        0x00001572:    2001        .       MOVS     r0,#1
        0x00001574:    f7fffe3f    ..?.    BL       uart_put ; 0x11f6
        0x00001578:    2100        .!      MOVS     r1,#0
        0x0000157a:    2001        .       MOVS     r0,#1
        0x0000157c:    f7fffe3b    ..;.    BL       uart_put ; 0x11f6
        0x00001580:    2100        .!      MOVS     r1,#0
        0x00001582:    2001        .       MOVS     r0,#1
        0x00001584:    f7fffe37    ..7.    BL       uart_put ; 0x11f6
        0x00001588:    2000        .       MOVS     r0,#0
        0x0000158a:    492e        .I      LDR      r1,[pc,#184] ; [0x1644] = 0x20000398
        0x0000158c:    6008        .`      STR      r0,[r1,#0]
        0x0000158e:    e0a6        ..      B        0x16de ; parseUARTbuffer + 1154
        0x00001590:    e0a5        ..      B        0x16de ; parseUARTbuffer + 1154
        0x00001592:    492c        ,I      LDR      r1,[pc,#176] ; [0x1644] = 0x20000398
        0x00001594:    6888        .h      LDR      r0,[r1,#8]
        0x00001596:    f002fdae    ....    BL       __aeabi_ui2d ; 0x40f6
        0x0000159a:    4604        .F      MOV      r4,r0
        0x0000159c:    4a32        2J      LDR      r2,[pc,#200] ; [0x1668] = 0x47ae147b
        0x0000159e:    4b33        3K      LDR      r3,[pc,#204] ; [0x166c] = 0x3f847ae1
        0x000015a0:    f002fdac    ....    BL       __aeabi_dmul ; 0x40fc
        0x000015a4:    910d        ..      STR      r1,[sp,#0x34]
        0x000015a6:    900c        ..      STR      r0,[sp,#0x30]
        0x000015a8:    4926        &I      LDR      r1,[pc,#152] ; [0x1644] = 0x20000398
        0x000015aa:    6848        Hh      LDR      r0,[r1,#4]
        0x000015ac:    f002fda3    ....    BL       __aeabi_ui2d ; 0x40f6
        0x000015b0:    910b        ..      STR      r1,[sp,#0x2c]
        0x000015b2:    900a        ..      STR      r0,[sp,#0x28]
        0x000015b4:    9b0d        ..      LDR      r3,[sp,#0x34]
        0x000015b6:    9a0c        ..      LDR      r2,[sp,#0x30]
        0x000015b8:    f002fb21    ..!.    BL       __aeabi_dadd ; 0x3bfe
        0x000015bc:    910f        ..      STR      r1,[sp,#0x3c]
        0x000015be:    900e        ..      STR      r0,[sp,#0x38]
        0x000015c0:    f002f966    ..f.    BL       __aeabi_d2f ; 0x3890
        0x000015c4:    6030        0`      STR      r0,[r6,#0]
        0x000015c6:    2070        p       MOVS     r0,#0x70
        0x000015c8:    9012        ..      STR      r0,[sp,#0x48]
        0x000015ca:    e088        ..      B        0x16de ; parseUARTbuffer + 1154
        0x000015cc:    491d        .I      LDR      r1,[pc,#116] ; [0x1644] = 0x20000398
        0x000015ce:    6888        .h      LDR      r0,[r1,#8]
        0x000015d0:    f002fd91    ....    BL       __aeabi_ui2d ; 0x40f6
        0x000015d4:    4604        .F      MOV      r4,r0
        0x000015d6:    4a24        $J      LDR      r2,[pc,#144] ; [0x1668] = 0x47ae147b
        0x000015d8:    4b24        $K      LDR      r3,[pc,#144] ; [0x166c] = 0x3f847ae1
        0x000015da:    f002fd8f    ....    BL       __aeabi_dmul ; 0x40fc
        0x000015de:    910d        ..      STR      r1,[sp,#0x34]
        0x000015e0:    900c        ..      STR      r0,[sp,#0x30]
        0x000015e2:    4918        .I      LDR      r1,[pc,#96] ; [0x1644] = 0x20000398
        0x000015e4:    6848        Hh      LDR      r0,[r1,#4]
        0x000015e6:    f002fd86    ....    BL       __aeabi_ui2d ; 0x40f6
        0x000015ea:    910b        ..      STR      r1,[sp,#0x2c]
        0x000015ec:    900a        ..      STR      r0,[sp,#0x28]
        0x000015ee:    e03f        ?.      B        0x1670 ; parseUARTbuffer + 1044
        0x000015f0:    e074        t.      B        0x16dc ; parseUARTbuffer + 1152
        0x000015f2:    e049        I.      B        0x1688 ; parseUARTbuffer + 1068
        0x000015f4:    e065        e.      B        0x16c2 ; parseUARTbuffer + 1126
    $d
        0x000015f6:    0000        ..      DCW    0
        0x000015f8:    40050000    ...@    DCD    1074069504
        0x000015fc:    40150000    ...@    DCD    1075118080
        0x00001600:    200000bc    ...     DCD    536871100
        0x00001604:    2000038c    ...     DCD    536871820
        0x00001608:    4070e000    ..p@    DCD    1081139200
        0x0000160c:    00000050    P...    DCD    80
        0x00001610:    73726170    pars    DCD    1936875888
        0x00001614:    52415565    eUAR    DCD    1380013413
        0x00001618:    75623054    T0bu    DCD    1969369172
        0x0000161c:    72656666    ffer    DCD    1919247974
        0x00001620:    73616320     cas    DCD    1935762208
        0x00001624:    78302065    e 0x    DCD    2016419941
        0x00001628:    0a203837    78 .    DCD    169883703
        0x0000162c:    00000000    ....    DCD    0
        0x00001630:    43c80000    ...C    DCD    1137180672
        0x00001634:    200000d0    ...     DCD    536871120
        0x00001638:    41a00000    ...A    DCD    1101004800
        0x0000163c:    41100000    ...A    DCD    1091567616
        0x00001640:    200000c0    ...     DCD    536871104
        0x00001644:    20000398    ...     DCD    536871832
        0x00001648:    73726170    pars    DCD    1936875888
        0x0000164c:    52415565    eUAR    DCD    1380013413
        0x00001650:    75623154    T1bu    DCD    1969369428
        0x00001654:    72656666    ffer    DCD    1919247974
        0x00001658:    73616320     cas    DCD    1935762208
        0x0000165c:    78302065    e 0x    DCD    2016419941
        0x00001660:    0a203837    78 .    DCD    169883703
        0x00001664:    00000000    ....    DCD    0
        0x00001668:    47ae147b    {..G    DCD    1202590843
        0x0000166c:    3f847ae1    .z.?    DCD    1065646817
    $t
        0x00001670:    9b0d        ..      LDR      r3,[sp,#0x34]
        0x00001672:    9a0c        ..      LDR      r2,[sp,#0x30]
        0x00001674:    f002fac3    ....    BL       __aeabi_dadd ; 0x3bfe
        0x00001678:    910f        ..      STR      r1,[sp,#0x3c]
        0x0000167a:    900e        ..      STR      r0,[sp,#0x38]
        0x0000167c:    f002f908    ....    BL       __aeabi_d2f ; 0x3890
        0x00001680:    6030        0`      STR      r0,[r6,#0]
        0x00001682:    2071        q       MOVS     r0,#0x71
        0x00001684:    9012        ..      STR      r0,[sp,#0x48]
        0x00001686:    e02a        *.      B        0x16de ; parseUARTbuffer + 1154
        0x00001688:    49cc        .I      LDR      r1,[pc,#816] ; [0x19bc] = 0x20000398
        0x0000168a:    6888        .h      LDR      r0,[r1,#8]
        0x0000168c:    f002fd33    ..3.    BL       __aeabi_ui2d ; 0x40f6
        0x00001690:    4604        .F      MOV      r4,r0
        0x00001692:    4acb        .J      LDR      r2,[pc,#812] ; [0x19c0] = 0x47ae147b
        0x00001694:    4bcb        .K      LDR      r3,[pc,#812] ; [0x19c4] = 0x3f847ae1
        0x00001696:    f002fd31    ..1.    BL       __aeabi_dmul ; 0x40fc
        0x0000169a:    910d        ..      STR      r1,[sp,#0x34]
        0x0000169c:    900c        ..      STR      r0,[sp,#0x30]
        0x0000169e:    49c7        .I      LDR      r1,[pc,#796] ; [0x19bc] = 0x20000398
        0x000016a0:    6848        Hh      LDR      r0,[r1,#4]
        0x000016a2:    f002fd28    ..(.    BL       __aeabi_ui2d ; 0x40f6
        0x000016a6:    910b        ..      STR      r1,[sp,#0x2c]
        0x000016a8:    900a        ..      STR      r0,[sp,#0x28]
        0x000016aa:    9b0d        ..      LDR      r3,[sp,#0x34]
        0x000016ac:    9a0c        ..      LDR      r2,[sp,#0x30]
        0x000016ae:    f002faa6    ....    BL       __aeabi_dadd ; 0x3bfe
        0x000016b2:    910f        ..      STR      r1,[sp,#0x3c]
        0x000016b4:    900e        ..      STR      r0,[sp,#0x38]
        0x000016b6:    f002f8eb    ....    BL       __aeabi_d2f ; 0x3890
        0x000016ba:    6030        0`      STR      r0,[r6,#0]
        0x000016bc:    2072        r       MOVS     r0,#0x72
        0x000016be:    9012        ..      STR      r0,[sp,#0x48]
        0x000016c0:    e00d        ..      B        0x16de ; parseUARTbuffer + 1154
        0x000016c2:    49be        .I      LDR      r1,[pc,#760] ; [0x19bc] = 0x20000398
        0x000016c4:    6849        Ih      LDR      r1,[r1,#4]
        0x000016c6:    220a        ."      MOVS     r2,#0xa
        0x000016c8:    4351        QC      MULS     r1,r2,r1
        0x000016ca:    4abc        .J      LDR      r2,[pc,#752] ; [0x19bc] = 0x20000398
        0x000016cc:    6892        .h      LDR      r2,[r2,#8]
        0x000016ce:    1888        ..      ADDS     r0,r1,r2
        0x000016d0:    f002ff6e    ..n.    BL       __aeabi_ui2f ; 0x45b0
        0x000016d4:    6030        0`      STR      r0,[r6,#0]
        0x000016d6:    2073        s       MOVS     r0,#0x73
        0x000016d8:    9012        ..      STR      r0,[sp,#0x48]
        0x000016da:    e000        ..      B        0x16de ; parseUARTbuffer + 1154
        0x000016dc:    bf00        ..      NOP      
        0x000016de:    bf00        ..      NOP      
        0x000016e0:    9812        ..      LDR      r0,[sp,#0x48]
        0x000016e2:    e60a        ..      B        0x12fa ; parseUARTbuffer + 158
    Init_Uart0
        0x000016e4:    b510        ..      PUSH     {r4,lr}
        0x000016e6:    4604        .F      MOV      r4,r0
        0x000016e8:    2005        .       MOVS     r0,#5
        0x000016ea:    0700        ..      LSLS     r0,r0,#28
        0x000016ec:    6bc0        .k      LDR      r0,[r0,#0x3c]
        0x000016ee:    49b6        .I      LDR      r1,[pc,#728] ; [0x19c8] = 0xfffffcfc
        0x000016f0:    4008        .@      ANDS     r0,r0,r1
        0x000016f2:    2105        .!      MOVS     r1,#5
        0x000016f4:    0709        ..      LSLS     r1,r1,#28
        0x000016f6:    63c8        .c      STR      r0,[r1,#0x3c]
        0x000016f8:    4608        .F      MOV      r0,r1
        0x000016fa:    6bc0        .k      LDR      r0,[r0,#0x3c]
        0x000016fc:    2103        .!      MOVS     r1,#3
        0x000016fe:    4308        .C      ORRS     r0,r0,r1
        0x00001700:    2105        .!      MOVS     r1,#5
        0x00001702:    0709        ..      LSLS     r1,r1,#28
        0x00001704:    63c8        .c      STR      r0,[r1,#0x3c]
        0x00001706:    48b1        .H      LDR      r0,[pc,#708] ; [0x19cc] = 0x50000200
        0x00001708:    6880        .h      LDR      r0,[r0,#8]
        0x0000170a:    2101        .!      MOVS     r1,#1
        0x0000170c:    0409        ..      LSLS     r1,r1,#16
        0x0000170e:    4308        .C      ORRS     r0,r0,r1
        0x00001710:    49ae        .I      LDR      r1,[pc,#696] ; [0x19cc] = 0x50000200
        0x00001712:    6088        .`      STR      r0,[r1,#8]
        0x00001714:    4608        .F      MOV      r0,r1
        0x00001716:    6940        @i      LDR      r0,[r0,#0x14]
        0x00001718:    2103        .!      MOVS     r1,#3
        0x0000171a:    0609        ..      LSLS     r1,r1,#24
        0x0000171c:    4388        .C      BICS     r0,r0,r1
        0x0000171e:    49ab        .I      LDR      r1,[pc,#684] ; [0x19cc] = 0x50000200
        0x00001720:    6148        Ha      STR      r0,[r1,#0x14]
        0x00001722:    4608        .F      MOV      r0,r1
        0x00001724:    6980        .i      LDR      r0,[r0,#0x18]
        0x00001726:    210f        .!      MOVS     r1,#0xf
        0x00001728:    0209        ..      LSLS     r1,r1,#8
        0x0000172a:    4388        .C      BICS     r0,r0,r1
        0x0000172c:    49a7        .I      LDR      r1,[pc,#668] ; [0x19cc] = 0x50000200
        0x0000172e:    6188        .a      STR      r0,[r1,#0x18]
        0x00001730:    2005        .       MOVS     r0,#5
        0x00001732:    0700        ..      LSLS     r0,r0,#28
        0x00001734:    68c0        .h      LDR      r0,[r0,#0xc]
        0x00001736:    01c9        ..      LSLS     r1,r1,#7
        0x00001738:    4308        .C      ORRS     r0,r0,r1
        0x0000173a:    2105        .!      MOVS     r1,#5
        0x0000173c:    0709        ..      LSLS     r1,r1,#28
        0x0000173e:    60c8        .`      STR      r0,[r1,#0xc]
        0x00001740:    4608        .F      MOV      r0,r1
        0x00001742:    68c0        .h      LDR      r0,[r0,#0xc]
        0x00001744:    2101        .!      MOVS     r1,#1
        0x00001746:    0409        ..      LSLS     r1,r1,#16
        0x00001748:    4388        .C      BICS     r0,r0,r1
        0x0000174a:    2105        .!      MOVS     r1,#5
        0x0000174c:    0709        ..      LSLS     r1,r1,#28
        0x0000174e:    60c8        .`      STR      r0,[r1,#0xc]
        0x00001750:    489f        .H      LDR      r0,[pc,#636] ; [0x19d0] = 0x40050000
        0x00001752:    6880        .h      LDR      r0,[r0,#8]
        0x00001754:    2104        .!      MOVS     r1,#4
        0x00001756:    4308        .C      ORRS     r0,r0,r1
        0x00001758:    499d        .I      LDR      r1,[pc,#628] ; [0x19d0] = 0x40050000
        0x0000175a:    6088        .`      STR      r0,[r1,#8]
        0x0000175c:    4608        .F      MOV      r0,r1
        0x0000175e:    6880        .h      LDR      r0,[r0,#8]
        0x00001760:    2102        .!      MOVS     r1,#2
        0x00001762:    4308        .C      ORRS     r0,r0,r1
        0x00001764:    499a        .I      LDR      r1,[pc,#616] ; [0x19d0] = 0x40050000
        0x00001766:    6088        .`      STR      r0,[r1,#8]
        0x00001768:    4608        .F      MOV      r0,r1
        0x0000176a:    68c0        .h      LDR      r0,[r0,#0xc]
        0x0000176c:    2108        .!      MOVS     r1,#8
        0x0000176e:    4388        .C      BICS     r0,r0,r1
        0x00001770:    4997        .I      LDR      r1,[pc,#604] ; [0x19d0] = 0x40050000
        0x00001772:    60c8        .`      STR      r0,[r1,#0xc]
        0x00001774:    4608        .F      MOV      r0,r1
        0x00001776:    68c0        .h      LDR      r0,[r0,#0xc]
        0x00001778:    0880        ..      LSRS     r0,r0,#2
        0x0000177a:    0080        ..      LSLS     r0,r0,#2
        0x0000177c:    60c8        .`      STR      r0,[r1,#0xc]
        0x0000177e:    4608        .F      MOV      r0,r1
        0x00001780:    68c0        .h      LDR      r0,[r0,#0xc]
        0x00001782:    2103        .!      MOVS     r1,#3
        0x00001784:    4308        .C      ORRS     r0,r0,r1
        0x00001786:    4992        .I      LDR      r1,[pc,#584] ; [0x19d0] = 0x40050000
        0x00001788:    60c8        .`      STR      r0,[r1,#0xc]
        0x0000178a:    4608        .F      MOV      r0,r1
        0x0000178c:    68c0        .h      LDR      r0,[r0,#0xc]
        0x0000178e:    2104        .!      MOVS     r1,#4
        0x00001790:    4388        .C      BICS     r0,r0,r1
        0x00001792:    498f        .I      LDR      r1,[pc,#572] ; [0x19d0] = 0x40050000
        0x00001794:    60c8        .`      STR      r0,[r1,#0xc]
        0x00001796:    4608        .F      MOV      r0,r1
        0x00001798:    6a40        @j      LDR      r0,[r0,#0x24]
        0x0000179a:    2101        .!      MOVS     r1,#1
        0x0000179c:    0749        I.      LSLS     r1,r1,#29
        0x0000179e:    4308        .C      ORRS     r0,r0,r1
        0x000017a0:    498b        .I      LDR      r1,[pc,#556] ; [0x19d0] = 0x40050000
        0x000017a2:    6248        Hb      STR      r0,[r1,#0x24]
        0x000017a4:    4608        .F      MOV      r0,r1
        0x000017a6:    6a40        @j      LDR      r0,[r0,#0x24]
        0x000017a8:    2101        .!      MOVS     r1,#1
        0x000017aa:    0709        ..      LSLS     r1,r1,#28
        0x000017ac:    4308        .C      ORRS     r0,r0,r1
        0x000017ae:    4988        .I      LDR      r1,[pc,#544] ; [0x19d0] = 0x40050000
        0x000017b0:    6248        Hb      STR      r0,[r1,#0x24]
        0x000017b2:    4621        !F      MOV      r1,r4
        0x000017b4:    4887        .H      LDR      r0,[pc,#540] ; [0x19d4] = 0xb71b00
        0x000017b6:    f001ffbb    ....    BL       __aeabi_uidiv ; 0x3730
        0x000017ba:    1e80        ..      SUBS     r0,r0,#2
        0x000017bc:    4984        .I      LDR      r1,[pc,#528] ; [0x19d0] = 0x40050000
        0x000017be:    6a49        Ij      LDR      r1,[r1,#0x24]
        0x000017c0:    4308        .C      ORRS     r0,r0,r1
        0x000017c2:    4983        .I      LDR      r1,[pc,#524] ; [0x19d0] = 0x40050000
        0x000017c4:    6248        Hb      STR      r0,[r1,#0x24]
        0x000017c6:    4608        .F      MOV      r0,r1
        0x000017c8:    6840        @h      LDR      r0,[r0,#4]
        0x000017ca:    2101        .!      MOVS     r1,#1
        0x000017cc:    4308        .C      ORRS     r0,r0,r1
        0x000017ce:    4980        .I      LDR      r1,[pc,#512] ; [0x19d0] = 0x40050000
        0x000017d0:    6048        H`      STR      r0,[r1,#4]
        0x000017d2:    4881        .H      LDR      r0,[pc,#516] ; [0x19d8] = 0xe000e100
        0x000017d4:    6800        .h      LDR      r0,[r0,#0]
        0x000017d6:    2101        .!      MOVS     r1,#1
        0x000017d8:    0309        ..      LSLS     r1,r1,#12
        0x000017da:    4308        .C      ORRS     r0,r0,r1
        0x000017dc:    497e        ~I      LDR      r1,[pc,#504] ; [0x19d8] = 0xe000e100
        0x000017de:    6008        .`      STR      r0,[r1,#0]
        0x000017e0:    bd10        ..      POP      {r4,pc}
    UART0_IRQHandler
        0x000017e2:    b570        p.      PUSH     {r4-r6,lr}
        0x000017e4:    2400        .$      MOVS     r4,#0
        0x000017e6:    2501        .%      MOVS     r5,#1
        0x000017e8:    4879        yH      LDR      r0,[pc,#484] ; [0x19d0] = 0x40050000
        0x000017ea:    6980        .i      LDR      r0,[r0,#0x18]
        0x000017ec:    0480        ..      LSLS     r0,r0,#18
        0x000017ee:    0e84        ..      LSRS     r4,r0,#26
        0x000017f0:    2c03        .,      CMP      r4,#3
        0x000017f2:    db06        ..      BLT      0x1802 ; UART0_IRQHandler + 32
        0x000017f4:    2001        .       MOVS     r0,#1
        0x000017f6:    4979        yI      LDR      r1,[pc,#484] ; [0x19dc] = 0x200000b8
        0x000017f8:    6008        .`      STR      r0,[r1,#0]
        0x000017fa:    f7fffcc9    ....    BL       millis ; 0x1190
        0x000017fe:    4978        xI      LDR      r1,[pc,#480] ; [0x19e0] = 0x200000bc
        0x00001800:    6008        .`      STR      r0,[r1,#0]
        0x00001802:    4876        vH      LDR      r0,[pc,#472] ; [0x19dc] = 0x200000b8
        0x00001804:    6800        .h      LDR      r0,[r0,#0]
        0x00001806:    2801        .(      CMP      r0,#1
        0x00001808:    d114        ..      BNE      0x1834 ; UART0_IRQHandler + 82
        0x0000180a:    2000        .       MOVS     r0,#0
        0x0000180c:    4975        uI      LDR      r1,[pc,#468] ; [0x19e4] = 0x200000c8
        0x0000180e:    6008        .`      STR      r0,[r1,#0]
        0x00001810:    486f        oH      LDR      r0,[pc,#444] ; [0x19d0] = 0x40050000
        0x00001812:    6800        .h      LDR      r0,[r0,#0]
        0x00001814:    2103        .!      MOVS     r1,#3
        0x00001816:    1b09        ..      SUBS     r1,r1,r4
        0x00001818:    0089        ..      LSLS     r1,r1,#2
        0x0000181a:    4a73        sJ      LDR      r2,[pc,#460] ; [0x19e8] = 0x2000038c
        0x0000181c:    5050        PP      STR      r0,[r2,r1]
        0x0000181e:    486c        lH      LDR      r0,[pc,#432] ; [0x19d0] = 0x40050000
        0x00001820:    6980        .i      LDR      r0,[r0,#0x18]
        0x00001822:    2101        .!      MOVS     r1,#1
        0x00001824:    0389        ..      LSLS     r1,r1,#14
        0x00001826:    4008        .@      ANDS     r0,r0,r1
        0x00001828:    0b85        ..      LSRS     r5,r0,#14
        0x0000182a:    2d00        .-      CMP      r5,#0
        0x0000182c:    d002        ..      BEQ      0x1834 ; UART0_IRQHandler + 82
        0x0000182e:    2000        .       MOVS     r0,#0
        0x00001830:    496a        jI      LDR      r1,[pc,#424] ; [0x19dc] = 0x200000b8
        0x00001832:    6008        .`      STR      r0,[r1,#0]
        0x00001834:    486b        kH      LDR      r0,[pc,#428] ; [0x19e4] = 0x200000c8
        0x00001836:    6800        .h      LDR      r0,[r0,#0]
        0x00001838:    1c40        @.      ADDS     r0,r0,#1
        0x0000183a:    496a        jI      LDR      r1,[pc,#424] ; [0x19e4] = 0x200000c8
        0x0000183c:    6008        .`      STR      r0,[r1,#0]
        0x0000183e:    4608        .F      MOV      r0,r1
        0x00001840:    6800        .h      LDR      r0,[r0,#0]
        0x00001842:    2864        d(      CMP      r0,#0x64
        0x00001844:    db05        ..      BLT      0x1852 ; UART0_IRQHandler + 112
        0x00001846:    2000        .       MOVS     r0,#0
        0x00001848:    6008        .`      STR      r0,[r1,#0]
        0x0000184a:    4861        aH      LDR      r0,[pc,#388] ; [0x19d0] = 0x40050000
        0x0000184c:    6800        .h      LDR      r0,[r0,#0]
        0x0000184e:    4967        gI      LDR      r1,[pc,#412] ; [0x19ec] = 0x200000b4
        0x00001850:    6008        .`      STR      r0,[r1,#0]
        0x00001852:    bd70        p.      POP      {r4-r6,pc}
    Init_Uart1
        0x00001854:    b510        ..      PUSH     {r4,lr}
        0x00001856:    4604        .F      MOV      r4,r0
        0x00001858:    2005        .       MOVS     r0,#5
        0x0000185a:    0700        ..      LSLS     r0,r0,#28
        0x0000185c:    6b40        @k      LDR      r0,[r0,#0x34]
        0x0000185e:    4964        dI      LDR      r1,[pc,#400] ; [0x19f0] = 0xfffff3f3
        0x00001860:    4008        .@      ANDS     r0,r0,r1
        0x00001862:    2105        .!      MOVS     r1,#5
        0x00001864:    0709        ..      LSLS     r1,r1,#28
        0x00001866:    6348        Hc      STR      r0,[r1,#0x34]
        0x00001868:    4608        .F      MOV      r0,r1
        0x0000186a:    6b40        @k      LDR      r0,[r0,#0x34]
        0x0000186c:    2103        .!      MOVS     r1,#3
        0x0000186e:    0289        ..      LSLS     r1,r1,#10
        0x00001870:    4308        .C      ORRS     r0,r0,r1
        0x00001872:    2105        .!      MOVS     r1,#5
        0x00001874:    0709        ..      LSLS     r1,r1,#28
        0x00001876:    6348        Hc      STR      r0,[r1,#0x34]
        0x00001878:    4854        TH      LDR      r0,[pc,#336] ; [0x19cc] = 0x50000200
        0x0000187a:    6880        .h      LDR      r0,[r0,#8]
        0x0000187c:    2101        .!      MOVS     r1,#1
        0x0000187e:    0449        I.      LSLS     r1,r1,#17
        0x00001880:    4308        .C      ORRS     r0,r0,r1
        0x00001882:    4952        RI      LDR      r1,[pc,#328] ; [0x19cc] = 0x50000200
        0x00001884:    6088        .`      STR      r0,[r1,#8]
        0x00001886:    4608        .F      MOV      r0,r1
        0x00001888:    6940        @i      LDR      r0,[r0,#0x14]
        0x0000188a:    2103        .!      MOVS     r1,#3
        0x0000188c:    0609        ..      LSLS     r1,r1,#24
        0x0000188e:    4388        .C      BICS     r0,r0,r1
        0x00001890:    494e        NI      LDR      r1,[pc,#312] ; [0x19cc] = 0x50000200
        0x00001892:    6148        Ha      STR      r0,[r1,#0x14]
        0x00001894:    4608        .F      MOV      r0,r1
        0x00001896:    6980        .i      LDR      r0,[r0,#0x18]
        0x00001898:    210f        .!      MOVS     r1,#0xf
        0x0000189a:    0209        ..      LSLS     r1,r1,#8
        0x0000189c:    4388        .C      BICS     r0,r0,r1
        0x0000189e:    494b        KI      LDR      r1,[pc,#300] ; [0x19cc] = 0x50000200
        0x000018a0:    6188        .a      STR      r0,[r1,#0x18]
        0x000018a2:    2005        .       MOVS     r0,#5
        0x000018a4:    0700        ..      LSLS     r0,r0,#28
        0x000018a6:    68c0        .h      LDR      r0,[r0,#0xc]
        0x000018a8:    0209        ..      LSLS     r1,r1,#8
        0x000018aa:    4308        .C      ORRS     r0,r0,r1
        0x000018ac:    2105        .!      MOVS     r1,#5
        0x000018ae:    0709        ..      LSLS     r1,r1,#28
        0x000018b0:    60c8        .`      STR      r0,[r1,#0xc]
        0x000018b2:    4608        .F      MOV      r0,r1
        0x000018b4:    68c0        .h      LDR      r0,[r0,#0xc]
        0x000018b6:    2101        .!      MOVS     r1,#1
        0x000018b8:    0449        I.      LSLS     r1,r1,#17
        0x000018ba:    4388        .C      BICS     r0,r0,r1
        0x000018bc:    2105        .!      MOVS     r1,#5
        0x000018be:    0709        ..      LSLS     r1,r1,#28
        0x000018c0:    60c8        .`      STR      r0,[r1,#0xc]
        0x000018c2:    484c        LH      LDR      r0,[pc,#304] ; [0x19f4] = 0x40150000
        0x000018c4:    6880        .h      LDR      r0,[r0,#8]
        0x000018c6:    2104        .!      MOVS     r1,#4
        0x000018c8:    4308        .C      ORRS     r0,r0,r1
        0x000018ca:    494a        JI      LDR      r1,[pc,#296] ; [0x19f4] = 0x40150000
        0x000018cc:    6088        .`      STR      r0,[r1,#8]
        0x000018ce:    4608        .F      MOV      r0,r1
        0x000018d0:    6880        .h      LDR      r0,[r0,#8]
        0x000018d2:    2102        .!      MOVS     r1,#2
        0x000018d4:    4308        .C      ORRS     r0,r0,r1
        0x000018d6:    4947        GI      LDR      r1,[pc,#284] ; [0x19f4] = 0x40150000
        0x000018d8:    6088        .`      STR      r0,[r1,#8]
        0x000018da:    4608        .F      MOV      r0,r1
        0x000018dc:    68c0        .h      LDR      r0,[r0,#0xc]
        0x000018de:    2108        .!      MOVS     r1,#8
        0x000018e0:    4388        .C      BICS     r0,r0,r1
        0x000018e2:    4944        DI      LDR      r1,[pc,#272] ; [0x19f4] = 0x40150000
        0x000018e4:    60c8        .`      STR      r0,[r1,#0xc]
        0x000018e6:    4608        .F      MOV      r0,r1
        0x000018e8:    68c0        .h      LDR      r0,[r0,#0xc]
        0x000018ea:    0880        ..      LSRS     r0,r0,#2
        0x000018ec:    0080        ..      LSLS     r0,r0,#2
        0x000018ee:    1cc0        ..      ADDS     r0,r0,#3
        0x000018f0:    60c8        .`      STR      r0,[r1,#0xc]
        0x000018f2:    4608        .F      MOV      r0,r1
        0x000018f4:    68c0        .h      LDR      r0,[r0,#0xc]
        0x000018f6:    2104        .!      MOVS     r1,#4
        0x000018f8:    4388        .C      BICS     r0,r0,r1
        0x000018fa:    493e        >I      LDR      r1,[pc,#248] ; [0x19f4] = 0x40150000
        0x000018fc:    60c8        .`      STR      r0,[r1,#0xc]
        0x000018fe:    4608        .F      MOV      r0,r1
        0x00001900:    6a40        @j      LDR      r0,[r0,#0x24]
        0x00001902:    2101        .!      MOVS     r1,#1
        0x00001904:    0749        I.      LSLS     r1,r1,#29
        0x00001906:    4308        .C      ORRS     r0,r0,r1
        0x00001908:    493a        :I      LDR      r1,[pc,#232] ; [0x19f4] = 0x40150000
        0x0000190a:    6248        Hb      STR      r0,[r1,#0x24]
        0x0000190c:    4608        .F      MOV      r0,r1
        0x0000190e:    6a40        @j      LDR      r0,[r0,#0x24]
        0x00001910:    2101        .!      MOVS     r1,#1
        0x00001912:    0709        ..      LSLS     r1,r1,#28
        0x00001914:    4308        .C      ORRS     r0,r0,r1
        0x00001916:    4937        7I      LDR      r1,[pc,#220] ; [0x19f4] = 0x40150000
        0x00001918:    6248        Hb      STR      r0,[r1,#0x24]
        0x0000191a:    4621        !F      MOV      r1,r4
        0x0000191c:    482d        -H      LDR      r0,[pc,#180] ; [0x19d4] = 0xb71b00
        0x0000191e:    f001ff07    ....    BL       __aeabi_uidiv ; 0x3730
        0x00001922:    1e80        ..      SUBS     r0,r0,#2
        0x00001924:    4933        3I      LDR      r1,[pc,#204] ; [0x19f4] = 0x40150000
        0x00001926:    6a49        Ij      LDR      r1,[r1,#0x24]
        0x00001928:    4308        .C      ORRS     r0,r0,r1
        0x0000192a:    4932        2I      LDR      r1,[pc,#200] ; [0x19f4] = 0x40150000
        0x0000192c:    6248        Hb      STR      r0,[r1,#0x24]
        0x0000192e:    4608        .F      MOV      r0,r1
        0x00001930:    6840        @h      LDR      r0,[r0,#4]
        0x00001932:    2101        .!      MOVS     r1,#1
        0x00001934:    4308        .C      ORRS     r0,r0,r1
        0x00001936:    492f        /I      LDR      r1,[pc,#188] ; [0x19f4] = 0x40150000
        0x00001938:    6048        H`      STR      r0,[r1,#4]
        0x0000193a:    4827        'H      LDR      r0,[pc,#156] ; [0x19d8] = 0xe000e100
        0x0000193c:    6800        .h      LDR      r0,[r0,#0]
        0x0000193e:    2101        .!      MOVS     r1,#1
        0x00001940:    0349        I.      LSLS     r1,r1,#13
        0x00001942:    4308        .C      ORRS     r0,r0,r1
        0x00001944:    4924        $I      LDR      r1,[pc,#144] ; [0x19d8] = 0xe000e100
        0x00001946:    6008        .`      STR      r0,[r1,#0]
        0x00001948:    bd10        ..      POP      {r4,pc}
    UART1_IRQHandler
        0x0000194a:    b570        p.      PUSH     {r4-r6,lr}
        0x0000194c:    2400        .$      MOVS     r4,#0
        0x0000194e:    2501        .%      MOVS     r5,#1
        0x00001950:    4828        (H      LDR      r0,[pc,#160] ; [0x19f4] = 0x40150000
        0x00001952:    6980        .i      LDR      r0,[r0,#0x18]
        0x00001954:    0480        ..      LSLS     r0,r0,#18
        0x00001956:    0e84        ..      LSRS     r4,r0,#26
        0x00001958:    2c03        .,      CMP      r4,#3
        0x0000195a:    db06        ..      BLT      0x196a ; UART1_IRQHandler + 32
        0x0000195c:    2001        .       MOVS     r0,#1
        0x0000195e:    4926        &I      LDR      r1,[pc,#152] ; [0x19f8] = 0x200000c4
        0x00001960:    6008        .`      STR      r0,[r1,#0]
        0x00001962:    f7fffc15    ....    BL       millis ; 0x1190
        0x00001966:    4925        %I      LDR      r1,[pc,#148] ; [0x19fc] = 0x200000c0
        0x00001968:    6008        .`      STR      r0,[r1,#0]
        0x0000196a:    4823        #H      LDR      r0,[pc,#140] ; [0x19f8] = 0x200000c4
        0x0000196c:    6800        .h      LDR      r0,[r0,#0]
        0x0000196e:    2801        .(      CMP      r0,#1
        0x00001970:    d114        ..      BNE      0x199c ; UART1_IRQHandler + 82
        0x00001972:    2000        .       MOVS     r0,#0
        0x00001974:    4922        "I      LDR      r1,[pc,#136] ; [0x1a00] = 0x200000cc
        0x00001976:    6008        .`      STR      r0,[r1,#0]
        0x00001978:    481e        .H      LDR      r0,[pc,#120] ; [0x19f4] = 0x40150000
        0x0000197a:    6800        .h      LDR      r0,[r0,#0]
        0x0000197c:    2103        .!      MOVS     r1,#3
        0x0000197e:    1b09        ..      SUBS     r1,r1,r4
        0x00001980:    0089        ..      LSLS     r1,r1,#2
        0x00001982:    4a0e        .J      LDR      r2,[pc,#56] ; [0x19bc] = 0x20000398
        0x00001984:    5050        PP      STR      r0,[r2,r1]
        0x00001986:    481b        .H      LDR      r0,[pc,#108] ; [0x19f4] = 0x40150000
        0x00001988:    6980        .i      LDR      r0,[r0,#0x18]
        0x0000198a:    2101        .!      MOVS     r1,#1
        0x0000198c:    0389        ..      LSLS     r1,r1,#14
        0x0000198e:    4008        .@      ANDS     r0,r0,r1
        0x00001990:    0b85        ..      LSRS     r5,r0,#14
        0x00001992:    2d00        .-      CMP      r5,#0
        0x00001994:    d002        ..      BEQ      0x199c ; UART1_IRQHandler + 82
        0x00001996:    2000        .       MOVS     r0,#0
        0x00001998:    4917        .I      LDR      r1,[pc,#92] ; [0x19f8] = 0x200000c4
        0x0000199a:    6008        .`      STR      r0,[r1,#0]
        0x0000199c:    4818        .H      LDR      r0,[pc,#96] ; [0x1a00] = 0x200000cc
        0x0000199e:    6800        .h      LDR      r0,[r0,#0]
        0x000019a0:    1c40        @.      ADDS     r0,r0,#1
        0x000019a2:    4917        .I      LDR      r1,[pc,#92] ; [0x1a00] = 0x200000cc
        0x000019a4:    6008        .`      STR      r0,[r1,#0]
        0x000019a6:    4608        .F      MOV      r0,r1
        0x000019a8:    6800        .h      LDR      r0,[r0,#0]
        0x000019aa:    2864        d(      CMP      r0,#0x64
        0x000019ac:    db05        ..      BLT      0x19ba ; UART1_IRQHandler + 112
        0x000019ae:    2000        .       MOVS     r0,#0
        0x000019b0:    6008        .`      STR      r0,[r1,#0]
        0x000019b2:    4810        .H      LDR      r0,[pc,#64] ; [0x19f4] = 0x40150000
        0x000019b4:    6800        .h      LDR      r0,[r0,#0]
        0x000019b6:    490d        .I      LDR      r1,[pc,#52] ; [0x19ec] = 0x200000b4
        0x000019b8:    6008        .`      STR      r0,[r1,#0]
        0x000019ba:    bd70        p.      POP      {r4-r6,pc}
    $d
        0x000019bc:    20000398    ...     DCD    536871832
        0x000019c0:    47ae147b    {..G    DCD    1202590843
        0x000019c4:    3f847ae1    .z.?    DCD    1065646817
        0x000019c8:    fffffcfc    ....    DCD    4294966524
        0x000019cc:    50000200    ...P    DCD    1342177792
        0x000019d0:    40050000    ...@    DCD    1074069504
        0x000019d4:    00b71b00    ....    DCD    12000000
        0x000019d8:    e000e100    ....    DCD    3758153984
        0x000019dc:    200000b8    ...     DCD    536871096
        0x000019e0:    200000bc    ...     DCD    536871100
        0x000019e4:    200000c8    ...     DCD    536871112
        0x000019e8:    2000038c    ...     DCD    536871820
        0x000019ec:    200000b4    ...     DCD    536871092
        0x000019f0:    fffff3f3    ....    DCD    4294964211
        0x000019f4:    40150000    ...@    DCD    1075118080
        0x000019f8:    200000c4    ...     DCD    536871108
        0x000019fc:    200000c0    ...     DCD    536871104
        0x00001a00:    200000cc    ...     DCD    536871116
    $t
    .text
    Timer0_Init
        0x00001a04:    48b3        .H      LDR      r0,[pc,#716] ; [0x1cd4] = 0x50000200
        0x00001a06:    6880        .h      LDR      r0,[r0,#8]
        0x00001a08:    2104        .!      MOVS     r1,#4
        0x00001a0a:    4308        .C      ORRS     r0,r0,r1
        0x00001a0c:    49b1        .I      LDR      r1,[pc,#708] ; [0x1cd4] = 0x50000200
        0x00001a0e:    6088        .`      STR      r0,[r1,#8]
        0x00001a10:    4608        .F      MOV      r0,r1
        0x00001a12:    6940        @i      LDR      r0,[r0,#0x14]
        0x00001a14:    2107        .!      MOVS     r1,#7
        0x00001a16:    0209        ..      LSLS     r1,r1,#8
        0x00001a18:    4388        .C      BICS     r0,r0,r1
        0x00001a1a:    49ae        .I      LDR      r1,[pc,#696] ; [0x1cd4] = 0x50000200
        0x00001a1c:    6148        Ha      STR      r0,[r1,#0x14]
        0x00001a1e:    2000        .       MOVS     r0,#0
        0x00001a20:    49ad        .I      LDR      r1,[pc,#692] ; [0x1cd8] = 0x40010000
        0x00001a22:    6008        .`      STR      r0,[r1,#0]
        0x00001a24:    4608        .F      MOV      r0,r1
        0x00001a26:    6800        .h      LDR      r0,[r0,#0]
        0x00001a28:    2103        .!      MOVS     r1,#3
        0x00001a2a:    06c9        ..      LSLS     r1,r1,#27
        0x00001a2c:    4388        .C      BICS     r0,r0,r1
        0x00001a2e:    49aa        .I      LDR      r1,[pc,#680] ; [0x1cd8] = 0x40010000
        0x00001a30:    6008        .`      STR      r0,[r1,#0]
        0x00001a32:    4608        .F      MOV      r0,r1
        0x00001a34:    6800        .h      LDR      r0,[r0,#0]
        0x00001a36:    02c9        ..      LSLS     r1,r1,#11
        0x00001a38:    4308        .C      ORRS     r0,r0,r1
        0x00001a3a:    49a7        .I      LDR      r1,[pc,#668] ; [0x1cd8] = 0x40010000
        0x00001a3c:    6008        .`      STR      r0,[r1,#0]
        0x00001a3e:    4608        .F      MOV      r0,r1
        0x00001a40:    6800        .h      LDR      r0,[r0,#0]
        0x00001a42:    0349        I.      LSLS     r1,r1,#13
        0x00001a44:    4308        .C      ORRS     r0,r0,r1
        0x00001a46:    49a4        .I      LDR      r1,[pc,#656] ; [0x1cd8] = 0x40010000
        0x00001a48:    6008        .`      STR      r0,[r1,#0]
        0x00001a4a:    4608        .F      MOV      r0,r1
        0x00001a4c:    6800        .h      LDR      r0,[r0,#0]
        0x00001a4e:    0289        ..      LSLS     r1,r1,#10
        0x00001a50:    4308        .C      ORRS     r0,r0,r1
        0x00001a52:    49a1        .I      LDR      r1,[pc,#644] ; [0x1cd8] = 0x40010000
        0x00001a54:    6008        .`      STR      r0,[r1,#0]
        0x00001a56:    4770        pG      BX       lr
    TMR0_Delay1ms
        0x00001a58:    2178        x!      MOVS     r1,#0x78
        0x00001a5a:    4a9f        .J      LDR      r2,[pc,#636] ; [0x1cd8] = 0x40010000
        0x00001a5c:    6051        Q`      STR      r1,[r2,#4]
        0x00001a5e:    4611        .F      MOV      r1,r2
        0x00001a60:    6809        .h      LDR      r1,[r1,#0]
        0x00001a62:    0392        ..      LSLS     r2,r2,#14
        0x00001a64:    4311        .C      ORRS     r1,r1,r2
        0x00001a66:    4a9c        .J      LDR      r2,[pc,#624] ; [0x1cd8] = 0x40010000
        0x00001a68:    6011        .`      STR      r1,[r2,#0]
        0x00001a6a:    e00c        ..      B        0x1a86 ; TMR0_Delay1ms + 46
        0x00001a6c:    bf00        ..      NOP      
        0x00001a6e:    499a        .I      LDR      r1,[pc,#616] ; [0x1cd8] = 0x40010000
        0x00001a70:    6889        .h      LDR      r1,[r1,#8]
        0x00001a72:    07c9        ..      LSLS     r1,r1,#31
        0x00001a74:    0fc9        ..      LSRS     r1,r1,#31
        0x00001a76:    d0fa        ..      BEQ      0x1a6e ; TMR0_Delay1ms + 22
        0x00001a78:    4997        .I      LDR      r1,[pc,#604] ; [0x1cd8] = 0x40010000
        0x00001a7a:    6889        .h      LDR      r1,[r1,#8]
        0x00001a7c:    2201        ."      MOVS     r2,#1
        0x00001a7e:    4311        .C      ORRS     r1,r1,r2
        0x00001a80:    4a95        .J      LDR      r2,[pc,#596] ; [0x1cd8] = 0x40010000
        0x00001a82:    6091        .`      STR      r1,[r2,#8]
        0x00001a84:    1e40        @.      SUBS     r0,r0,#1
        0x00001a86:    2801        .(      CMP      r0,#1
        0x00001a88:    d1f0        ..      BNE      0x1a6c ; TMR0_Delay1ms + 20
        0x00001a8a:    4993        .I      LDR      r1,[pc,#588] ; [0x1cd8] = 0x40010000
        0x00001a8c:    6809        .h      LDR      r1,[r1,#0]
        0x00001a8e:    0782        ..      LSLS     r2,r0,#30
        0x00001a90:    4391        .C      BICS     r1,r1,r2
        0x00001a92:    4a91        .J      LDR      r2,[pc,#580] ; [0x1cd8] = 0x40010000
        0x00001a94:    6011        .`      STR      r1,[r2,#0]
        0x00001a96:    4770        pG      BX       lr
    Init_SPI
        0x00001a98:    2005        .       MOVS     r0,#5
        0x00001a9a:    0700        ..      LSLS     r0,r0,#28
        0x00001a9c:    6b00        .k      LDR      r0,[r0,#0x30]
        0x00001a9e:    498f        .I      LDR      r1,[pc,#572] ; [0x1cdc] = 0xffff0f0f
        0x00001aa0:    4008        .@      ANDS     r0,r0,r1
        0x00001aa2:    2105        .!      MOVS     r1,#5
        0x00001aa4:    0709        ..      LSLS     r1,r1,#28
        0x00001aa6:    6308        .c      STR      r0,[r1,#0x30]
        0x00001aa8:    4608        .F      MOV      r0,r1
        0x00001aaa:    6b00        .k      LDR      r0,[r0,#0x30]
        0x00001aac:    210f        .!      MOVS     r1,#0xf
        0x00001aae:    0309        ..      LSLS     r1,r1,#12
        0x00001ab0:    4308        .C      ORRS     r0,r0,r1
        0x00001ab2:    2105        .!      MOVS     r1,#5
        0x00001ab4:    0709        ..      LSLS     r1,r1,#28
        0x00001ab6:    6308        .c      STR      r0,[r1,#0x30]
        0x00001ab8:    4886        .H      LDR      r0,[pc,#536] ; [0x1cd4] = 0x50000200
        0x00001aba:    6880        .h      LDR      r0,[r0,#8]
        0x00001abc:    2101        .!      MOVS     r1,#1
        0x00001abe:    0349        I.      LSLS     r1,r1,#13
        0x00001ac0:    4308        .C      ORRS     r0,r0,r1
        0x00001ac2:    4984        .I      LDR      r1,[pc,#528] ; [0x1cd4] = 0x50000200
        0x00001ac4:    6088        .`      STR      r0,[r1,#8]
        0x00001ac6:    2005        .       MOVS     r0,#5
        0x00001ac8:    0700        ..      LSLS     r0,r0,#28
        0x00001aca:    68c0        .h      LDR      r0,[r0,#0xc]
        0x00001acc:    0109        ..      LSLS     r1,r1,#4
        0x00001ace:    4308        .C      ORRS     r0,r0,r1
        0x00001ad0:    2105        .!      MOVS     r1,#5
        0x00001ad2:    0709        ..      LSLS     r1,r1,#28
        0x00001ad4:    60c8        .`      STR      r0,[r1,#0xc]
        0x00001ad6:    4608        .F      MOV      r0,r1
        0x00001ad8:    68c0        .h      LDR      r0,[r0,#0xc]
        0x00001ada:    2101        .!      MOVS     r1,#1
        0x00001adc:    0349        I.      LSLS     r1,r1,#13
        0x00001ade:    4388        .C      BICS     r0,r0,r1
        0x00001ae0:    2105        .!      MOVS     r1,#5
        0x00001ae2:    0709        ..      LSLS     r1,r1,#28
        0x00001ae4:    60c8        .`      STR      r0,[r1,#0xc]
        0x00001ae6:    487e        ~H      LDR      r0,[pc,#504] ; [0x1ce0] = 0x40034000
        0x00001ae8:    6880        .h      LDR      r0,[r0,#8]
        0x00001aea:    2104        .!      MOVS     r1,#4
        0x00001aec:    4388        .C      BICS     r0,r0,r1
        0x00001aee:    497c        |I      LDR      r1,[pc,#496] ; [0x1ce0] = 0x40034000
        0x00001af0:    6088        .`      STR      r0,[r1,#8]
        0x00001af2:    4608        .F      MOV      r0,r1
        0x00001af4:    6800        .h      LDR      r0,[r0,#0]
        0x00001af6:    1509        ..      ASRS     r1,r1,#20
        0x00001af8:    4388        .C      BICS     r0,r0,r1
        0x00001afa:    4979        yI      LDR      r1,[pc,#484] ; [0x1ce0] = 0x40034000
        0x00001afc:    6008        .`      STR      r0,[r1,#0]
        0x00001afe:    4608        .F      MOV      r0,r1
        0x00001b00:    6800        .h      LDR      r0,[r0,#0]
        0x00001b02:    14c9        ..      ASRS     r1,r1,#19
        0x00001b04:    4388        .C      BICS     r0,r0,r1
        0x00001b06:    4976        vI      LDR      r1,[pc,#472] ; [0x1ce0] = 0x40034000
        0x00001b08:    6008        .`      STR      r0,[r1,#0]
        0x00001b0a:    4608        .F      MOV      r0,r1
        0x00001b0c:    6800        .h      LDR      r0,[r0,#0]
        0x00001b0e:    2104        .!      MOVS     r1,#4
        0x00001b10:    4308        .C      ORRS     r0,r0,r1
        0x00001b12:    4973        sI      LDR      r1,[pc,#460] ; [0x1ce0] = 0x40034000
        0x00001b14:    6008        .`      STR      r0,[r1,#0]
        0x00001b16:    4608        .F      MOV      r0,r1
        0x00001b18:    6800        .h      LDR      r0,[r0,#0]
        0x00001b1a:    2102        .!      MOVS     r1,#2
        0x00001b1c:    4388        .C      BICS     r0,r0,r1
        0x00001b1e:    4970        pI      LDR      r1,[pc,#448] ; [0x1ce0] = 0x40034000
        0x00001b20:    6008        .`      STR      r0,[r1,#0]
        0x00001b22:    486c        lH      LDR      r0,[pc,#432] ; [0x1cd4] = 0x50000200
        0x00001b24:    6980        .i      LDR      r0,[r0,#0x18]
        0x00001b26:    0900        ..      LSRS     r0,r0,#4
        0x00001b28:    0100        ..      LSLS     r0,r0,#4
        0x00001b2a:    496a        jI      LDR      r1,[pc,#424] ; [0x1cd4] = 0x50000200
        0x00001b2c:    6188        .a      STR      r0,[r1,#0x18]
        0x00001b2e:    486c        lH      LDR      r0,[pc,#432] ; [0x1ce0] = 0x40034000
        0x00001b30:    6840        @h      LDR      r0,[r0,#4]
        0x00001b32:    0c00        ..      LSRS     r0,r0,#16
        0x00001b34:    0400        ..      LSLS     r0,r0,#16
        0x00001b36:    496a        jI      LDR      r1,[pc,#424] ; [0x1ce0] = 0x40034000
        0x00001b38:    6048        H`      STR      r0,[r1,#4]
        0x00001b3a:    4608        .F      MOV      r0,r1
        0x00001b3c:    6840        @h      LDR      r0,[r0,#4]
        0x00001b3e:    2117        .!      MOVS     r1,#0x17
        0x00001b40:    4308        .C      ORRS     r0,r0,r1
        0x00001b42:    4967        gI      LDR      r1,[pc,#412] ; [0x1ce0] = 0x40034000
        0x00001b44:    6048        H`      STR      r0,[r1,#4]
        0x00001b46:    4608        .F      MOV      r0,r1
        0x00001b48:    6800        .h      LDR      r0,[r0,#0]
        0x00001b4a:    2180        .!      MOVS     r1,#0x80
        0x00001b4c:    4308        .C      ORRS     r0,r0,r1
        0x00001b4e:    4964        dI      LDR      r1,[pc,#400] ; [0x1ce0] = 0x40034000
        0x00001b50:    6008        .`      STR      r0,[r1,#0]
        0x00001b52:    4608        .F      MOV      r0,r1
        0x00001b54:    6800        .h      LDR      r0,[r0,#0]
        0x00001b56:    2101        .!      MOVS     r1,#1
        0x00001b58:    0489        ..      LSLS     r1,r1,#18
        0x00001b5a:    4388        .C      BICS     r0,r0,r1
        0x00001b5c:    4960        `I      LDR      r1,[pc,#384] ; [0x1ce0] = 0x40034000
        0x00001b5e:    6008        .`      STR      r0,[r1,#0]
        0x00001b60:    4608        .F      MOV      r0,r1
        0x00001b62:    6880        .h      LDR      r0,[r0,#8]
        0x00001b64:    2108        .!      MOVS     r1,#8
        0x00001b66:    4308        .C      ORRS     r0,r0,r1
        0x00001b68:    495d        ]I      LDR      r1,[pc,#372] ; [0x1ce0] = 0x40034000
        0x00001b6a:    6088        .`      STR      r0,[r1,#8]
        0x00001b6c:    4608        .F      MOV      r0,r1
        0x00001b6e:    6880        .h      LDR      r0,[r0,#8]
        0x00001b70:    2101        .!      MOVS     r1,#1
        0x00001b72:    4308        .C      ORRS     r0,r0,r1
        0x00001b74:    495a        ZI      LDR      r1,[pc,#360] ; [0x1ce0] = 0x40034000
        0x00001b76:    6088        .`      STR      r0,[r1,#8]
        0x00001b78:    4770        pG      BX       lr
    SPI_SingleWrite
        0x00001b7a:    4601        .F      MOV      r1,r0
        0x00001b7c:    4858        XH      LDR      r0,[pc,#352] ; [0x1ce0] = 0x40034000
        0x00001b7e:    6800        .h      LDR      r0,[r0,#0]
        0x00001b80:    07c0        ..      LSLS     r0,r0,#31
        0x00001b82:    0fc0        ..      LSRS     r0,r0,#31
        0x00001b84:    d001        ..      BEQ      0x1b8a ; SPI_SingleWrite + 16
        0x00001b86:    2000        .       MOVS     r0,#0
        0x00001b88:    4770        pG      BX       lr
        0x00001b8a:    4855        UH      LDR      r0,[pc,#340] ; [0x1ce0] = 0x40034000
        0x00001b8c:    6800        .h      LDR      r0,[r0,#0]
        0x00001b8e:    22ff        ."      MOVS     r2,#0xff
        0x00001b90:    3201        .2      ADDS     r2,#1
        0x00001b92:    4390        .C      BICS     r0,r0,r2
        0x00001b94:    4a52        RJ      LDR      r2,[pc,#328] ; [0x1ce0] = 0x40034000
        0x00001b96:    6010        .`      STR      r0,[r2,#0]
        0x00001b98:    4610        .F      MOV      r0,r2
        0x00001b9a:    6201        .b      STR      r1,[r0,#0x20]
        0x00001b9c:    6800        .h      LDR      r0,[r0,#0]
        0x00001b9e:    2201        ."      MOVS     r2,#1
        0x00001ba0:    4310        .C      ORRS     r0,r0,r2
        0x00001ba2:    4a4f        OJ      LDR      r2,[pc,#316] ; [0x1ce0] = 0x40034000
        0x00001ba4:    6010        .`      STR      r0,[r2,#0]
        0x00001ba6:    2001        .       MOVS     r0,#1
        0x00001ba8:    e7ee        ..      B        0x1b88 ; SPI_SingleWrite + 14
    SPI_IsBusy
        0x00001baa:    484d        MH      LDR      r0,[pc,#308] ; [0x1ce0] = 0x40034000
        0x00001bac:    6800        .h      LDR      r0,[r0,#0]
        0x00001bae:    07c0        ..      LSLS     r0,r0,#31
        0x00001bb0:    0fc0        ..      LSRS     r0,r0,#31
        0x00001bb2:    d001        ..      BEQ      0x1bb8 ; SPI_IsBusy + 14
        0x00001bb4:    2001        .       MOVS     r0,#1
        0x00001bb6:    4770        pG      BX       lr
        0x00001bb8:    2000        .       MOVS     r0,#0
        0x00001bba:    e7fc        ..      B        0x1bb6 ; SPI_IsBusy + 12
    SPI_WriteAndWait
        0x00001bbc:    b500        ..      PUSH     {lr}
        0x00001bbe:    4603        .F      MOV      r3,r0
        0x00001bc0:    4618        .F      MOV      r0,r3
        0x00001bc2:    f7ffffda    ....    BL       SPI_SingleWrite ; 0x1b7a
        0x00001bc6:    bf00        ..      NOP      
        0x00001bc8:    f7ffffef    ....    BL       SPI_IsBusy ; 0x1baa
        0x00001bcc:    2800        .(      CMP      r0,#0
        0x00001bce:    d1fb        ..      BNE      0x1bc8 ; SPI_WriteAndWait + 12
        0x00001bd0:    bd00        ..      POP      {pc}
    SPI_Read
        0x00001bd2:    b570        p.      PUSH     {r4-r6,lr}
        0x00001bd4:    4604        .F      MOV      r4,r0
        0x00001bd6:    2500        .%      MOVS     r5,#0
        0x00001bd8:    4841        AH      LDR      r0,[pc,#260] ; [0x1ce0] = 0x40034000
        0x00001bda:    6800        .h      LDR      r0,[r0,#0]
        0x00001bdc:    07c0        ..      LSLS     r0,r0,#31
        0x00001bde:    0fc0        ..      LSRS     r0,r0,#31
        0x00001be0:    d001        ..      BEQ      0x1be6 ; SPI_Read + 20
        0x00001be2:    2000        .       MOVS     r0,#0
        0x00001be4:    bd70        p.      POP      {r4-r6,pc}
        0x00001be6:    4620         F      MOV      r0,r4
        0x00001be8:    f7ffffe8    ....    BL       SPI_WriteAndWait ; 0x1bbc
        0x00001bec:    493c        <I      LDR      r1,[pc,#240] ; [0x1ce0] = 0x40034000
        0x00001bee:    6908        .i      LDR      r0,[r1,#0x10]
        0x00001bf0:    f002fcde    ....    BL       __aeabi_ui2f ; 0x45b0
        0x00001bf4:    4605        .F      MOV      r5,r0
        0x00001bf6:    4628        (F      MOV      r0,r5
        0x00001bf8:    e7f4        ..      B        0x1be4 ; SPI_Read + 18
    SPI_Sensor_Read
        0x00001bfa:    b5f0        ..      PUSH     {r4-r7,lr}
        0x00001bfc:    b089        ..      SUB      sp,sp,#0x24
        0x00001bfe:    4607        .F      MOV      r7,r0
        0x00001c00:    460d        .F      MOV      r5,r1
        0x00001c02:    4616        .F      MOV      r6,r2
        0x00001c04:    2000        .       MOVS     r0,#0
        0x00001c06:    9007        ..      STR      r0,[sp,#0x1c]
        0x00001c08:    9006        ..      STR      r0,[sp,#0x18]
        0x00001c0a:    2400        .$      MOVS     r4,#0
        0x00001c0c:    9005        ..      STR      r0,[sp,#0x14]
        0x00001c0e:    9004        ..      STR      r0,[sp,#0x10]
        0x00001c10:    4833        3H      LDR      r0,[pc,#204] ; [0x1ce0] = 0x40034000
        0x00001c12:    6800        .h      LDR      r0,[r0,#0]
        0x00001c14:    07c0        ..      LSLS     r0,r0,#31
        0x00001c16:    0fc0        ..      LSRS     r0,r0,#31
        0x00001c18:    d002        ..      BEQ      0x1c20 ; SPI_Sensor_Read + 38
        0x00001c1a:    2000        .       MOVS     r0,#0
        0x00001c1c:    b009        ..      ADD      sp,sp,#0x24
        0x00001c1e:    bdf0        ..      POP      {r4-r7,pc}
        0x00001c20:    4638        8F      MOV      r0,r7
        0x00001c22:    f7ffffcb    ....    BL       SPI_WriteAndWait ; 0x1bbc
        0x00001c26:    482e        .H      LDR      r0,[pc,#184] ; [0x1ce0] = 0x40034000
        0x00001c28:    6900        .i      LDR      r0,[r0,#0x10]
        0x00001c2a:    b2c0        ..      UXTB     r0,r0
        0x00001c2c:    9006        ..      STR      r0,[sp,#0x18]
        0x00001c2e:    4628        (F      MOV      r0,r5
        0x00001c30:    f7ffffc4    ....    BL       SPI_WriteAndWait ; 0x1bbc
        0x00001c34:    482a        *H      LDR      r0,[pc,#168] ; [0x1ce0] = 0x40034000
        0x00001c36:    6900        .i      LDR      r0,[r0,#0x10]
        0x00001c38:    b2c0        ..      UXTB     r0,r0
        0x00001c3a:    9007        ..      STR      r0,[sp,#0x1c]
        0x00001c3c:    9807        ..      LDR      r0,[sp,#0x1c]
        0x00001c3e:    0200        ..      LSLS     r0,r0,#8
        0x00001c40:    4304        .C      ORRS     r4,r4,r0
        0x00001c42:    9806        ..      LDR      r0,[sp,#0x18]
        0x00001c44:    4304        .C      ORRS     r4,r4,r0
        0x00001c46:    b220         .      SXTH     r0,r4
        0x00001c48:    9005        ..      STR      r0,[sp,#0x14]
        0x00001c4a:    2e00        ..      CMP      r6,#0
        0x00001c4c:    d10e        ..      BNE      0x1c6c ; SPI_Sensor_Read + 114
        0x00001c4e:    9805        ..      LDR      r0,[sp,#0x14]
        0x00001c50:    f002fa49    ..I.    BL       __aeabi_i2d ; 0x40e6
        0x00001c54:    2200        ."      MOVS     r2,#0
        0x00001c56:    4b23        #K      LDR      r3,[pc,#140] ; [0x1ce4] = 0x40d00000
        0x00001c58:    9101        ..      STR      r1,[sp,#4]
        0x00001c5a:    9000        ..      STR      r0,[sp,#0]
        0x00001c5c:    f001fffc    ....    BL       __aeabi_ddiv ; 0x3c58
        0x00001c60:    9103        ..      STR      r1,[sp,#0xc]
        0x00001c62:    9002        ..      STR      r0,[sp,#8]
        0x00001c64:    f001fe14    ....    BL       __aeabi_d2f ; 0x3890
        0x00001c68:    9004        ..      STR      r0,[sp,#0x10]
        0x00001c6a:    e00d        ..      B        0x1c88 ; SPI_Sensor_Read + 142
        0x00001c6c:    9805        ..      LDR      r0,[sp,#0x14]
        0x00001c6e:    f002fa3a    ..:.    BL       __aeabi_i2d ; 0x40e6
        0x00001c72:    4a1d        .J      LDR      r2,[pc,#116] ; [0x1ce8] = 0x66666666
        0x00001c74:    4b1d        .K      LDR      r3,[pc,#116] ; [0x1cec] = 0x40406666
        0x00001c76:    9101        ..      STR      r1,[sp,#4]
        0x00001c78:    9000        ..      STR      r0,[sp,#0]
        0x00001c7a:    f001ffed    ....    BL       __aeabi_ddiv ; 0x3c58
        0x00001c7e:    9103        ..      STR      r1,[sp,#0xc]
        0x00001c80:    9002        ..      STR      r0,[sp,#8]
        0x00001c82:    f001fe05    ....    BL       __aeabi_d2f ; 0x3890
        0x00001c86:    9004        ..      STR      r0,[sp,#0x10]
        0x00001c88:    9804        ..      LDR      r0,[sp,#0x10]
        0x00001c8a:    e7c7        ..      B        0x1c1c ; SPI_Sensor_Read + 34
    SPI_Sensor_Read_Int
        0x00001c8c:    b5fc        ..      PUSH     {r2-r7,lr}
        0x00001c8e:    4606        .F      MOV      r6,r0
        0x00001c90:    460d        .F      MOV      r5,r1
        0x00001c92:    2700        .'      MOVS     r7,#0
        0x00001c94:    2000        .       MOVS     r0,#0
        0x00001c96:    9001        ..      STR      r0,[sp,#4]
        0x00001c98:    2400        .$      MOVS     r4,#0
        0x00001c9a:    9000        ..      STR      r0,[sp,#0]
        0x00001c9c:    4810        .H      LDR      r0,[pc,#64] ; [0x1ce0] = 0x40034000
        0x00001c9e:    6800        .h      LDR      r0,[r0,#0]
        0x00001ca0:    07c0        ..      LSLS     r0,r0,#31
        0x00001ca2:    0fc0        ..      LSRS     r0,r0,#31
        0x00001ca4:    d001        ..      BEQ      0x1caa ; SPI_Sensor_Read_Int + 30
        0x00001ca6:    2000        .       MOVS     r0,#0
        0x00001ca8:    bdfc        ..      POP      {r2-r7,pc}
        0x00001caa:    4630        0F      MOV      r0,r6
        0x00001cac:    f7ffff86    ....    BL       SPI_WriteAndWait ; 0x1bbc
        0x00001cb0:    480b        .H      LDR      r0,[pc,#44] ; [0x1ce0] = 0x40034000
        0x00001cb2:    6900        .i      LDR      r0,[r0,#0x10]
        0x00001cb4:    b2c0        ..      UXTB     r0,r0
        0x00001cb6:    9001        ..      STR      r0,[sp,#4]
        0x00001cb8:    4628        (F      MOV      r0,r5
        0x00001cba:    f7ffff7f    ....    BL       SPI_WriteAndWait ; 0x1bbc
        0x00001cbe:    4808        .H      LDR      r0,[pc,#32] ; [0x1ce0] = 0x40034000
        0x00001cc0:    6900        .i      LDR      r0,[r0,#0x10]
        0x00001cc2:    b2c7        ..      UXTB     r7,r0
        0x00001cc4:    0238        8.      LSLS     r0,r7,#8
        0x00001cc6:    4304        .C      ORRS     r4,r4,r0
        0x00001cc8:    9801        ..      LDR      r0,[sp,#4]
        0x00001cca:    4304        .C      ORRS     r4,r4,r0
        0x00001ccc:    b220         .      SXTH     r0,r4
        0x00001cce:    9000        ..      STR      r0,[sp,#0]
        0x00001cd0:    9800        ..      LDR      r0,[sp,#0]
        0x00001cd2:    e7e9        ..      B        0x1ca8 ; SPI_Sensor_Read_Int + 28
    $d
        0x00001cd4:    50000200    ...P    DCD    1342177792
        0x00001cd8:    40010000    ...@    DCD    1073807360
        0x00001cdc:    ffff0f0f    ....    DCD    4294905615
        0x00001ce0:    40034000    .@.@    DCD    1073954816
        0x00001ce4:    40d00000    ...@    DCD    1087373312
        0x00001ce8:    66666666    ffff    DCD    1717986918
        0x00001cec:    40406666    ff@@    DCD    1077962342
    $t
    .text
    ConfigureMIPIMU
        0x00001cf0:    b510        ..      PUSH     {r4,lr}
        0x00001cf2:    4869        iH      LDR      r0,[pc,#420] ; [0x1e98] = 0x6a10
        0x00001cf4:    f7ffff62    ..b.    BL       SPI_WriteAndWait ; 0x1bbc
        0x00001cf8:    4868        hH      LDR      r0,[pc,#416] ; [0x1e9c] = 0x1907
        0x00001cfa:    f7ffff5f    .._.    BL       SPI_WriteAndWait ; 0x1bbc
        0x00001cfe:    200d        .       MOVS     r0,#0xd
        0x00001d00:    0240        @.      LSLS     r0,r0,#9
        0x00001d02:    f7ffff5b    ..[.    BL       SPI_WriteAndWait ; 0x1bbc
        0x00001d06:    4866        fH      LDR      r0,[pc,#408] ; [0x1ea0] = 0x1b10
        0x00001d08:    f7ffff58    ..X.    BL       SPI_WriteAndWait ; 0x1bbc
        0x00001d0c:    2007        .       MOVS     r0,#7
        0x00001d0e:    0280        ..      LSLS     r0,r0,#10
        0x00001d10:    f7ffff54    ..T.    BL       SPI_WriteAndWait ; 0x1bbc
        0x00001d14:    4863        cH      LDR      r0,[pc,#396] ; [0x1ea4] = 0x1d0c
        0x00001d16:    f7ffff51    ..Q.    BL       SPI_WriteAndWait ; 0x1bbc
        0x00001d1a:    200f        .       MOVS     r0,#0xf
        0x00001d1c:    0240        @.      LSLS     r0,r0,#9
        0x00001d1e:    f7ffff4d    ..M.    BL       SPI_WriteAndWait ; 0x1bbc
        0x00001d22:    201f        .       MOVS     r0,#0x1f
        0x00001d24:    0200        ..      LSLS     r0,r0,#8
        0x00001d26:    f7ffff49    ..I.    BL       SPI_WriteAndWait ; 0x1bbc
        0x00001d2a:    2023        #       MOVS     r0,#0x23
        0x00001d2c:    0200        ..      LSLS     r0,r0,#8
        0x00001d2e:    f7ffff45    ..E.    BL       SPI_WriteAndWait ; 0x1bbc
        0x00001d32:    2007        .       MOVS     r0,#7
        0x00001d34:    02c0        ..      LSLS     r0,r0,#11
        0x00001d36:    f7ffff41    ..A.    BL       SPI_WriteAndWait ; 0x1bbc
        0x00001d3a:    4857        WH      LDR      r0,[pc,#348] ; [0x1e98] = 0x6a10
        0x00001d3c:    30f1        .0      ADDS     r0,r0,#0xf1
        0x00001d3e:    f7ffff3d    ..=.    BL       SPI_WriteAndWait ; 0x1bbc
        0x00001d42:    201b        .       MOVS     r0,#0x1b
        0x00001d44:    0280        ..      LSLS     r0,r0,#10
        0x00001d46:    f7ffff39    ..9.    BL       SPI_WriteAndWait ; 0x1bbc
        0x00001d4a:    20c1        .       MOVS     r0,#0xc1
        0x00001d4c:    0200        ..      LSLS     r0,r0,#8
        0x00001d4e:    f7ffff35    ..5.    BL       SPI_WriteAndWait ; 0x1bbc
        0x00001d52:    bd10        ..      POP      {r4,pc}
    IMU_Update2
        0x00001d54:    b5f0        ..      PUSH     {r4-r7,lr}
        0x00001d56:    b087        ..      SUB      sp,sp,#0x1c
        0x00001d58:    21bf        .!      MOVS     r1,#0xbf
        0x00001d5a:    0209        ..      LSLS     r1,r1,#8
        0x00001d5c:    2003        .       MOVS     r0,#3
        0x00001d5e:    0380        ..      LSLS     r0,r0,#14
        0x00001d60:    f7ffff94    ....    BL       SPI_Sensor_Read_Int ; 0x1c8c
        0x00001d64:    4240        @B      RSBS     r0,r0,#0
        0x00001d66:    4950        PI      LDR      r1,[pc,#320] ; [0x1ea8] = 0x200000e4
        0x00001d68:    6008        .`      STR      r0,[r1,#0]
        0x00001d6a:    21bd        .!      MOVS     r1,#0xbd
        0x00001d6c:    0209        ..      LSLS     r1,r1,#8
        0x00001d6e:    205f        _       MOVS     r0,#0x5f
        0x00001d70:    0240        @.      LSLS     r0,r0,#9
        0x00001d72:    f7ffff8b    ....    BL       SPI_Sensor_Read_Int ; 0x1c8c
        0x00001d76:    4240        @B      RSBS     r0,r0,#0
        0x00001d78:    494c        LI      LDR      r1,[pc,#304] ; [0x1eac] = 0x200000e8
        0x00001d7a:    6008        .`      STR      r0,[r1,#0]
        0x00001d7c:    21c3        .!      MOVS     r1,#0xc3
        0x00001d7e:    0209        ..      LSLS     r1,r1,#8
        0x00001d80:    2031        1       MOVS     r0,#0x31
        0x00001d82:    0280        ..      LSLS     r0,r0,#10
        0x00001d84:    f7ffff82    ....    BL       SPI_Sensor_Read_Int ; 0x1c8c
        0x00001d88:    4949        II      LDR      r1,[pc,#292] ; [0x1eb0] = 0x200000fc
        0x00001d8a:    6008        .`      STR      r0,[r1,#0]
        0x00001d8c:    4608        .F      MOV      r0,r1
        0x00001d8e:    8800        ..      LDRH     r0,[r0,#0]
        0x00001d90:    0400        ..      LSLS     r0,r0,#16
        0x00001d92:    0e00        ..      LSRS     r0,r0,#24
        0x00001d94:    7809        .x      LDRB     r1,[r1,#0]
        0x00001d96:    4048        H@      EORS     r0,r0,r1
        0x00001d98:    28fe        .(      CMP      r0,#0xfe
        0x00001d9a:    da1d        ..      BGE      0x1dd8 ; IMU_Update2 + 132
        0x00001d9c:    4844        DH      LDR      r0,[pc,#272] ; [0x1eb0] = 0x200000fc
        0x00001d9e:    6800        .h      LDR      r0,[r0,#0]
        0x00001da0:    f002fbfe    ....    BL       __aeabi_i2f ; 0x45a0
        0x00001da4:    9001        ..      STR      r0,[sp,#4]
        0x00001da6:    f002fad5    ....    BL       __aeabi_f2d ; 0x4354
        0x00001daa:    4604        .F      MOV      r4,r0
        0x00001dac:    2200        ."      MOVS     r2,#0
        0x00001dae:    4b41        AK      LDR      r3,[pc,#260] ; [0x1eb4] = 0xbff00000
        0x00001db0:    f002f9a4    ....    BL       __aeabi_dmul ; 0x40fc
        0x00001db4:    4a40        @J      LDR      r2,[pc,#256] ; [0x1eb8] = 0xf01b866e
        0x00001db6:    4b41        AK      LDR      r3,[pc,#260] ; [0x1ebc] = 0x400921f9
        0x00001db8:    9103        ..      STR      r1,[sp,#0xc]
        0x00001dba:    9002        ..      STR      r0,[sp,#8]
        0x00001dbc:    f002f99e    ....    BL       __aeabi_dmul ; 0x40fc
        0x00001dc0:    4606        .F      MOV      r6,r0
        0x00001dc2:    2200        ."      MOVS     r2,#0
        0x00001dc4:    43d2        .C      MVNS     r2,r2
        0x00001dc6:    4b3e        >K      LDR      r3,[pc,#248] ; [0x1ec0] = 0x40b70fff
        0x00001dc8:    f001ff46    ..F.    BL       __aeabi_ddiv ; 0x3c58
        0x00001dcc:    9105        ..      STR      r1,[sp,#0x14]
        0x00001dce:    9004        ..      STR      r0,[sp,#0x10]
        0x00001dd0:    f001fd5e    ..^.    BL       __aeabi_d2f ; 0x3890
        0x00001dd4:    493b        ;I      LDR      r1,[pc,#236] ; [0x1ec4] = 0x20000108
        0x00001dd6:    6008        .`      STR      r0,[r1,#0]
        0x00001dd8:    4834        4H      LDR      r0,[pc,#208] ; [0x1eac] = 0x200000e8
        0x00001dda:    6800        .h      LDR      r0,[r0,#0]
        0x00001ddc:    f002f983    ....    BL       __aeabi_i2d ; 0x40e6
        0x00001de0:    9101        ..      STR      r1,[sp,#4]
        0x00001de2:    9000        ..      STR      r0,[sp,#0]
        0x00001de4:    4830        0H      LDR      r0,[pc,#192] ; [0x1ea8] = 0x200000e4
        0x00001de6:    6800        .h      LDR      r0,[r0,#0]
        0x00001de8:    f002f97d    ..}.    BL       __aeabi_i2d ; 0x40e6
        0x00001dec:    4606        .F      MOV      r6,r0
        0x00001dee:    9b01        ..      LDR      r3,[sp,#4]
        0x00001df0:    9a00        ..      LDR      r2,[sp,#0]
        0x00001df2:    f004f80d    ....    BL       atan2 ; 0x5e10
        0x00001df6:    4604        .F      MOV      r4,r0
        0x00001df8:    4a33        3J      LDR      r2,[pc,#204] ; [0x1ec8] = 0x8d4fdf3b
        0x00001dfa:    4b34        4K      LDR      r3,[pc,#208] ; [0x1ecc] = 0xbf726e97
        0x00001dfc:    f001feff    ....    BL       __aeabi_dadd ; 0x3bfe
        0x00001e00:    4a33        3J      LDR      r2,[pc,#204] ; [0x1ed0] = 0x9999999a
        0x00001e02:    4b34        4K      LDR      r3,[pc,#208] ; [0x1ed4] = 0x3fb99999
        0x00001e04:    9103        ..      STR      r1,[sp,#0xc]
        0x00001e06:    9002        ..      STR      r0,[sp,#8]
        0x00001e08:    f001fef9    ....    BL       __aeabi_dadd ; 0x3bfe
        0x00001e0c:    9105        ..      STR      r1,[sp,#0x14]
        0x00001e0e:    9004        ..      STR      r0,[sp,#0x10]
        0x00001e10:    f001fd3e    ..>.    BL       __aeabi_d2f ; 0x3890
        0x00001e14:    4930        0I      LDR      r1,[pc,#192] ; [0x1ed8] = 0x20000104
        0x00001e16:    6008        .`      STR      r0,[r1,#0]
        0x00001e18:    b007        ..      ADD      sp,sp,#0x1c
        0x00001e1a:    bdf0        ..      POP      {r4-r7,pc}
    Init_Digital_IMU2
        0x00001e1c:    b510        ..      PUSH     {r4,lr}
        0x00001e1e:    f7fffe3b    ..;.    BL       Init_SPI ; 0x1a98
        0x00001e22:    f7ffff65    ..e.    BL       ConfigureMIPIMU ; 0x1cf0
        0x00001e26:    f7ffff95    ....    BL       IMU_Update2 ; 0x1d54
        0x00001e2a:    bd10        ..      POP      {r4,pc}
    IMU_Update3
        0x00001e2c:    b510        ..      PUSH     {r4,lr}
        0x00001e2e:    21bb        .!      MOVS     r1,#0xbb
        0x00001e30:    0209        ..      LSLS     r1,r1,#8
        0x00001e32:    202f        /       MOVS     r0,#0x2f
        0x00001e34:    0280        ..      LSLS     r0,r0,#10
        0x00001e36:    f7ffff29    ..).    BL       SPI_Sensor_Read_Int ; 0x1c8c
        0x00001e3a:    4928        (I      LDR      r1,[pc,#160] ; [0x1edc] = 0x200000ec
        0x00001e3c:    6008        .`      STR      r0,[r1,#0]
        0x00001e3e:    21bd        .!      MOVS     r1,#0xbd
        0x00001e40:    0209        ..      LSLS     r1,r1,#8
        0x00001e42:    205f        _       MOVS     r0,#0x5f
        0x00001e44:    0240        @.      LSLS     r0,r0,#9
        0x00001e46:    f7ffff21    ..!.    BL       SPI_Sensor_Read_Int ; 0x1c8c
        0x00001e4a:    4925        %I      LDR      r1,[pc,#148] ; [0x1ee0] = 0x200000f0
        0x00001e4c:    6008        .`      STR      r0,[r1,#0]
        0x00001e4e:    21c3        .!      MOVS     r1,#0xc3
        0x00001e50:    0209        ..      LSLS     r1,r1,#8
        0x00001e52:    2031        1       MOVS     r0,#0x31
        0x00001e54:    0280        ..      LSLS     r0,r0,#10
        0x00001e56:    f7ffff19    ....    BL       SPI_Sensor_Read_Int ; 0x1c8c
        0x00001e5a:    4922        "I      LDR      r1,[pc,#136] ; [0x1ee4] = 0x200000f4
        0x00001e5c:    6008        .`      STR      r0,[r1,#0]
        0x00001e5e:    21c5        .!      MOVS     r1,#0xc5
        0x00001e60:    0209        ..      LSLS     r1,r1,#8
        0x00001e62:    2063        c       MOVS     r0,#0x63
        0x00001e64:    0240        @.      LSLS     r0,r0,#9
        0x00001e66:    f7ffff11    ....    BL       SPI_Sensor_Read_Int ; 0x1c8c
        0x00001e6a:    491f        .I      LDR      r1,[pc,#124] ; [0x1ee8] = 0x200000f8
        0x00001e6c:    6008        .`      STR      r0,[r1,#0]
        0x00001e6e:    bd10        ..      POP      {r4,pc}
    get_acc_theta
        0x00001e70:    4819        .H      LDR      r0,[pc,#100] ; [0x1ed8] = 0x20000104
        0x00001e72:    6800        .h      LDR      r0,[r0,#0]
        0x00001e74:    4770        pG      BX       lr
    get_gyro_thetad
        0x00001e76:    4813        .H      LDR      r0,[pc,#76] ; [0x1ec4] = 0x20000108
        0x00001e78:    6800        .h      LDR      r0,[r0,#0]
        0x00001e7a:    4770        pG      BX       lr
    Outputs4Debugging_IMU
        0x00001e7c:    b508        ..      PUSH     {r3,lr}
        0x00001e7e:    481a        .H      LDR      r0,[pc,#104] ; [0x1ee8] = 0x200000f8
        0x00001e80:    6800        .h      LDR      r0,[r0,#0]
        0x00001e82:    9000        ..      STR      r0,[sp,#0]
        0x00001e84:    4817        .H      LDR      r0,[pc,#92] ; [0x1ee4] = 0x200000f4
        0x00001e86:    6803        .h      LDR      r3,[r0,#0]
        0x00001e88:    4815        .H      LDR      r0,[pc,#84] ; [0x1ee0] = 0x200000f0
        0x00001e8a:    6802        .h      LDR      r2,[r0,#0]
        0x00001e8c:    4813        .H      LDR      r0,[pc,#76] ; [0x1edc] = 0x200000ec
        0x00001e8e:    6801        .h      LDR      r1,[r0,#0]
        0x00001e90:    a016        ..      ADR      r0,{pc}+0x5c ; 0x1eec
        0x00001e92:    f001fb59    ..Y.    BL       __2printf ; 0x3548
        0x00001e96:    bd08        ..      POP      {r3,pc}
    $d
        0x00001e98:    00006a10    .j..    DCD    27152
        0x00001e9c:    00001907    ....    DCD    6407
        0x00001ea0:    00001b10    ....    DCD    6928
        0x00001ea4:    00001d0c    ....    DCD    7436
        0x00001ea8:    200000e4    ...     DCD    536871140
        0x00001eac:    200000e8    ...     DCD    536871144
        0x00001eb0:    200000fc    ...     DCD    536871164
        0x00001eb4:    bff00000    ....    DCD    3220176896
        0x00001eb8:    f01b866e    n...    DCD    4028335726
        0x00001ebc:    400921f9    .!.@    DCD    1074340345
        0x00001ec0:    40b70fff    ...@    DCD    1085739007
        0x00001ec4:    20000108    ...     DCD    536871176
        0x00001ec8:    8d4fdf3b    ;.O.    DCD    2370821947
        0x00001ecc:    bf726e97    .nr.    DCD    3211947671
        0x00001ed0:    9999999a    ....    DCD    2576980378
        0x00001ed4:    3fb99999    ...?    DCD    1069128089
        0x00001ed8:    20000104    ...     DCD    536871172
        0x00001edc:    200000ec    ...     DCD    536871148
        0x00001ee0:    200000f0    ...     DCD    536871152
        0x00001ee4:    200000f4    ...     DCD    536871156
        0x00001ee8:    200000f8    ...     DCD    536871160
        0x00001eec:    646c2520     %ld    DCD    1684808992
        0x00001ef0:    646c2509    .%ld    DCD    1684808969
        0x00001ef4:    646c2509    .%ld    DCD    1684808969
        0x00001ef8:    646c2509    .%ld    DCD    1684808969
        0x00001efc:    00000a20     ...    DCD    2592
    $t
    .text
    Init_Timer0_ISR
        0x00001f00:    488f        .H      LDR      r0,[pc,#572] ; [0x2140] = 0x50000200
        0x00001f02:    6880        .h      LDR      r0,[r0,#8]
        0x00001f04:    2104        .!      MOVS     r1,#4
        0x00001f06:    4308        .C      ORRS     r0,r0,r1
        0x00001f08:    498d        .I      LDR      r1,[pc,#564] ; [0x2140] = 0x50000200
        0x00001f0a:    6088        .`      STR      r0,[r1,#8]
        0x00001f0c:    4608        .F      MOV      r0,r1
        0x00001f0e:    6940        @i      LDR      r0,[r0,#0x14]
        0x00001f10:    2107        .!      MOVS     r1,#7
        0x00001f12:    0209        ..      LSLS     r1,r1,#8
        0x00001f14:    4388        .C      BICS     r0,r0,r1
        0x00001f16:    498a        .I      LDR      r1,[pc,#552] ; [0x2140] = 0x50000200
        0x00001f18:    6148        Ha      STR      r0,[r1,#0x14]
        0x00001f1a:    2005        .       MOVS     r0,#5
        0x00001f1c:    0700        ..      LSLS     r0,r0,#28
        0x00001f1e:    68c0        .h      LDR      r0,[r0,#0xc]
        0x00001f20:    2104        .!      MOVS     r1,#4
        0x00001f22:    4308        .C      ORRS     r0,r0,r1
        0x00001f24:    2105        .!      MOVS     r1,#5
        0x00001f26:    0709        ..      LSLS     r1,r1,#28
        0x00001f28:    60c8        .`      STR      r0,[r1,#0xc]
        0x00001f2a:    4608        .F      MOV      r0,r1
        0x00001f2c:    68c0        .h      LDR      r0,[r0,#0xc]
        0x00001f2e:    2104        .!      MOVS     r1,#4
        0x00001f30:    4388        .C      BICS     r0,r0,r1
        0x00001f32:    2105        .!      MOVS     r1,#5
        0x00001f34:    0709        ..      LSLS     r1,r1,#28
        0x00001f36:    60c8        .`      STR      r0,[r1,#0xc]
        0x00001f38:    4882        .H      LDR      r0,[pc,#520] ; [0x2144] = 0x40010000
        0x00001f3a:    6800        .h      LDR      r0,[r0,#0]
        0x00001f3c:    2103        .!      MOVS     r1,#3
        0x00001f3e:    06c9        ..      LSLS     r1,r1,#27
        0x00001f40:    4388        .C      BICS     r0,r0,r1
        0x00001f42:    4980        .I      LDR      r1,[pc,#512] ; [0x2144] = 0x40010000
        0x00001f44:    6008        .`      STR      r0,[r1,#0]
        0x00001f46:    4608        .F      MOV      r0,r1
        0x00001f48:    6800        .h      LDR      r0,[r0,#0]
        0x00001f4a:    02c9        ..      LSLS     r1,r1,#11
        0x00001f4c:    4308        .C      ORRS     r0,r0,r1
        0x00001f4e:    497d        }I      LDR      r1,[pc,#500] ; [0x2144] = 0x40010000
        0x00001f50:    6008        .`      STR      r0,[r1,#0]
        0x00001f52:    4608        .F      MOV      r0,r1
        0x00001f54:    6800        .h      LDR      r0,[r0,#0]
        0x00001f56:    0a00        ..      LSRS     r0,r0,#8
        0x00001f58:    0200        ..      LSLS     r0,r0,#8
        0x00001f5a:    6008        .`      STR      r0,[r1,#0]
        0x00001f5c:    487a        zH      LDR      r0,[pc,#488] ; [0x2148] = 0x7530
        0x00001f5e:    6048        H`      STR      r0,[r1,#4]
        0x00001f60:    4608        .F      MOV      r0,r1
        0x00001f62:    6800        .h      LDR      r0,[r0,#0]
        0x00001f64:    0349        I.      LSLS     r1,r1,#13
        0x00001f66:    4308        .C      ORRS     r0,r0,r1
        0x00001f68:    4976        vI      LDR      r1,[pc,#472] ; [0x2144] = 0x40010000
        0x00001f6a:    6008        .`      STR      r0,[r1,#0]
        0x00001f6c:    1588        ..      ASRS     r0,r1,#22
        0x00001f6e:    4977        wI      LDR      r1,[pc,#476] ; [0x214c] = 0xe000e100
        0x00001f70:    6008        .`      STR      r0,[r1,#0]
        0x00001f72:    4874        tH      LDR      r0,[pc,#464] ; [0x2144] = 0x40010000
        0x00001f74:    6800        .h      LDR      r0,[r0,#0]
        0x00001f76:    2101        .!      MOVS     r1,#1
        0x00001f78:    0689        ..      LSLS     r1,r1,#26
        0x00001f7a:    4308        .C      ORRS     r0,r0,r1
        0x00001f7c:    4971        qI      LDR      r1,[pc,#452] ; [0x2144] = 0x40010000
        0x00001f7e:    6008        .`      STR      r0,[r1,#0]
        0x00001f80:    4608        .F      MOV      r0,r1
        0x00001f82:    6800        .h      LDR      r0,[r0,#0]
        0x00001f84:    0389        ..      LSLS     r1,r1,#14
        0x00001f86:    4308        .C      ORRS     r0,r0,r1
        0x00001f88:    496e        nI      LDR      r1,[pc,#440] ; [0x2144] = 0x40010000
        0x00001f8a:    6008        .`      STR      r0,[r1,#0]
        0x00001f8c:    4770        pG      BX       lr
    Init_Timer1_ISR
        0x00001f8e:    486c        lH      LDR      r0,[pc,#432] ; [0x2140] = 0x50000200
        0x00001f90:    6880        .h      LDR      r0,[r0,#8]
        0x00001f92:    2108        .!      MOVS     r1,#8
        0x00001f94:    4308        .C      ORRS     r0,r0,r1
        0x00001f96:    496a        jI      LDR      r1,[pc,#424] ; [0x2140] = 0x50000200
        0x00001f98:    6088        .`      STR      r0,[r1,#8]
        0x00001f9a:    4608        .F      MOV      r0,r1
        0x00001f9c:    6940        @i      LDR      r0,[r0,#0x14]
        0x00001f9e:    2107        .!      MOVS     r1,#7
        0x00001fa0:    0309        ..      LSLS     r1,r1,#12
        0x00001fa2:    4388        .C      BICS     r0,r0,r1
        0x00001fa4:    4966        fI      LDR      r1,[pc,#408] ; [0x2140] = 0x50000200
        0x00001fa6:    6148        Ha      STR      r0,[r1,#0x14]
        0x00001fa8:    2005        .       MOVS     r0,#5
        0x00001faa:    0700        ..      LSLS     r0,r0,#28
        0x00001fac:    68c0        .h      LDR      r0,[r0,#0xc]
        0x00001fae:    2108        .!      MOVS     r1,#8
        0x00001fb0:    4308        .C      ORRS     r0,r0,r1
        0x00001fb2:    2105        .!      MOVS     r1,#5
        0x00001fb4:    0709        ..      LSLS     r1,r1,#28
        0x00001fb6:    60c8        .`      STR      r0,[r1,#0xc]
        0x00001fb8:    4608        .F      MOV      r0,r1
        0x00001fba:    68c0        .h      LDR      r0,[r0,#0xc]
        0x00001fbc:    2108        .!      MOVS     r1,#8
        0x00001fbe:    4388        .C      BICS     r0,r0,r1
        0x00001fc0:    2105        .!      MOVS     r1,#5
        0x00001fc2:    0709        ..      LSLS     r1,r1,#28
        0x00001fc4:    60c8        .`      STR      r0,[r1,#0xc]
        0x00001fc6:    485f        _H      LDR      r0,[pc,#380] ; [0x2144] = 0x40010000
        0x00001fc8:    6a00        .j      LDR      r0,[r0,#0x20]
        0x00001fca:    2103        .!      MOVS     r1,#3
        0x00001fcc:    06c9        ..      LSLS     r1,r1,#27
        0x00001fce:    4388        .C      BICS     r0,r0,r1
        0x00001fd0:    495c        \I      LDR      r1,[pc,#368] ; [0x2144] = 0x40010000
        0x00001fd2:    6208        .b      STR      r0,[r1,#0x20]
        0x00001fd4:    4608        .F      MOV      r0,r1
        0x00001fd6:    6a00        .j      LDR      r0,[r0,#0x20]
        0x00001fd8:    02c9        ..      LSLS     r1,r1,#11
        0x00001fda:    4308        .C      ORRS     r0,r0,r1
        0x00001fdc:    4959        YI      LDR      r1,[pc,#356] ; [0x2144] = 0x40010000
        0x00001fde:    6208        .b      STR      r0,[r1,#0x20]
        0x00001fe0:    4608        .F      MOV      r0,r1
        0x00001fe2:    6a00        .j      LDR      r0,[r0,#0x20]
        0x00001fe4:    0a00        ..      LSRS     r0,r0,#8
        0x00001fe6:    0200        ..      LSLS     r0,r0,#8
        0x00001fe8:    6208        .b      STR      r0,[r1,#0x20]
        0x00001fea:    4859        YH      LDR      r0,[pc,#356] ; [0x2150] = 0xea60
        0x00001fec:    6248        Hb      STR      r0,[r1,#0x24]
        0x00001fee:    4608        .F      MOV      r0,r1
        0x00001ff0:    6a00        .j      LDR      r0,[r0,#0x20]
        0x00001ff2:    0349        I.      LSLS     r1,r1,#13
        0x00001ff4:    4308        .C      ORRS     r0,r0,r1
        0x00001ff6:    4953        SI      LDR      r1,[pc,#332] ; [0x2144] = 0x40010000
        0x00001ff8:    6208        .b      STR      r0,[r1,#0x20]
        0x00001ffa:    1548        H.      ASRS     r0,r1,#21
        0x00001ffc:    4953        SI      LDR      r1,[pc,#332] ; [0x214c] = 0xe000e100
        0x00001ffe:    6008        .`      STR      r0,[r1,#0]
        0x00002000:    4850        PH      LDR      r0,[pc,#320] ; [0x2144] = 0x40010000
        0x00002002:    6a00        .j      LDR      r0,[r0,#0x20]
        0x00002004:    2101        .!      MOVS     r1,#1
        0x00002006:    0689        ..      LSLS     r1,r1,#26
        0x00002008:    4308        .C      ORRS     r0,r0,r1
        0x0000200a:    494e        NI      LDR      r1,[pc,#312] ; [0x2144] = 0x40010000
        0x0000200c:    6208        .b      STR      r0,[r1,#0x20]
        0x0000200e:    4608        .F      MOV      r0,r1
        0x00002010:    6a00        .j      LDR      r0,[r0,#0x20]
        0x00002012:    0389        ..      LSLS     r1,r1,#14
        0x00002014:    4308        .C      ORRS     r0,r0,r1
        0x00002016:    494b        KI      LDR      r1,[pc,#300] ; [0x2144] = 0x40010000
        0x00002018:    6208        .b      STR      r0,[r1,#0x20]
        0x0000201a:    4770        pG      BX       lr
    Init_Timer2_ISR
        0x0000201c:    4848        HH      LDR      r0,[pc,#288] ; [0x2140] = 0x50000200
        0x0000201e:    6880        .h      LDR      r0,[r0,#8]
        0x00002020:    2110        .!      MOVS     r1,#0x10
        0x00002022:    4308        .C      ORRS     r0,r0,r1
        0x00002024:    4946        FI      LDR      r1,[pc,#280] ; [0x2140] = 0x50000200
        0x00002026:    6088        .`      STR      r0,[r1,#8]
        0x00002028:    4608        .F      MOV      r0,r1
        0x0000202a:    6940        @i      LDR      r0,[r0,#0x14]
        0x0000202c:    2107        .!      MOVS     r1,#7
        0x0000202e:    0409        ..      LSLS     r1,r1,#16
        0x00002030:    4388        .C      BICS     r0,r0,r1
        0x00002032:    4943        CI      LDR      r1,[pc,#268] ; [0x2140] = 0x50000200
        0x00002034:    6148        Ha      STR      r0,[r1,#0x14]
        0x00002036:    2005        .       MOVS     r0,#5
        0x00002038:    0700        ..      LSLS     r0,r0,#28
        0x0000203a:    68c0        .h      LDR      r0,[r0,#0xc]
        0x0000203c:    2110        .!      MOVS     r1,#0x10
        0x0000203e:    4308        .C      ORRS     r0,r0,r1
        0x00002040:    2105        .!      MOVS     r1,#5
        0x00002042:    0709        ..      LSLS     r1,r1,#28
        0x00002044:    60c8        .`      STR      r0,[r1,#0xc]
        0x00002046:    4608        .F      MOV      r0,r1
        0x00002048:    68c0        .h      LDR      r0,[r0,#0xc]
        0x0000204a:    2110        .!      MOVS     r1,#0x10
        0x0000204c:    4388        .C      BICS     r0,r0,r1
        0x0000204e:    2105        .!      MOVS     r1,#5
        0x00002050:    0709        ..      LSLS     r1,r1,#28
        0x00002052:    60c8        .`      STR      r0,[r1,#0xc]
        0x00002054:    483f        ?H      LDR      r0,[pc,#252] ; [0x2154] = 0x40110000
        0x00002056:    6800        .h      LDR      r0,[r0,#0]
        0x00002058:    2103        .!      MOVS     r1,#3
        0x0000205a:    06c9        ..      LSLS     r1,r1,#27
        0x0000205c:    4388        .C      BICS     r0,r0,r1
        0x0000205e:    493d        =I      LDR      r1,[pc,#244] ; [0x2154] = 0x40110000
        0x00002060:    6008        .`      STR      r0,[r1,#0]
        0x00002062:    4608        .F      MOV      r0,r1
        0x00002064:    6800        .h      LDR      r0,[r0,#0]
        0x00002066:    2101        .!      MOVS     r1,#1
        0x00002068:    06c9        ..      LSLS     r1,r1,#27
        0x0000206a:    4308        .C      ORRS     r0,r0,r1
        0x0000206c:    4939        9I      LDR      r1,[pc,#228] ; [0x2154] = 0x40110000
        0x0000206e:    6008        .`      STR      r0,[r1,#0]
        0x00002070:    4608        .F      MOV      r0,r1
        0x00002072:    6800        .h      LDR      r0,[r0,#0]
        0x00002074:    0a00        ..      LSRS     r0,r0,#8
        0x00002076:    0200        ..      LSLS     r0,r0,#8
        0x00002078:    6008        .`      STR      r0,[r1,#0]
        0x0000207a:    4837        7H      LDR      r0,[pc,#220] ; [0x2158] = 0x1d4c0
        0x0000207c:    6048        H`      STR      r0,[r1,#4]
        0x0000207e:    4608        .F      MOV      r0,r1
        0x00002080:    6800        .h      LDR      r0,[r0,#0]
        0x00002082:    0349        I.      LSLS     r1,r1,#13
        0x00002084:    4308        .C      ORRS     r0,r0,r1
        0x00002086:    4933        3I      LDR      r1,[pc,#204] ; [0x2154] = 0x40110000
        0x00002088:    6008        .`      STR      r0,[r1,#0]
        0x0000208a:    2001        .       MOVS     r0,#1
        0x0000208c:    0280        ..      LSLS     r0,r0,#10
        0x0000208e:    492f        /I      LDR      r1,[pc,#188] ; [0x214c] = 0xe000e100
        0x00002090:    6008        .`      STR      r0,[r1,#0]
        0x00002092:    4830        0H      LDR      r0,[pc,#192] ; [0x2154] = 0x40110000
        0x00002094:    6800        .h      LDR      r0,[r0,#0]
        0x00002096:    2101        .!      MOVS     r1,#1
        0x00002098:    0689        ..      LSLS     r1,r1,#26
        0x0000209a:    4308        .C      ORRS     r0,r0,r1
        0x0000209c:    492d        -I      LDR      r1,[pc,#180] ; [0x2154] = 0x40110000
        0x0000209e:    6008        .`      STR      r0,[r1,#0]
        0x000020a0:    4608        .F      MOV      r0,r1
        0x000020a2:    6800        .h      LDR      r0,[r0,#0]
        0x000020a4:    0389        ..      LSLS     r1,r1,#14
        0x000020a6:    4308        .C      ORRS     r0,r0,r1
        0x000020a8:    492a        *I      LDR      r1,[pc,#168] ; [0x2154] = 0x40110000
        0x000020aa:    6008        .`      STR      r0,[r1,#0]
        0x000020ac:    4770        pG      BX       lr
    Init_Timer3_ISR
        0x000020ae:    4824        $H      LDR      r0,[pc,#144] ; [0x2140] = 0x50000200
        0x000020b0:    6880        .h      LDR      r0,[r0,#8]
        0x000020b2:    2120         !      MOVS     r1,#0x20
        0x000020b4:    4308        .C      ORRS     r0,r0,r1
        0x000020b6:    4922        "I      LDR      r1,[pc,#136] ; [0x2140] = 0x50000200
        0x000020b8:    6088        .`      STR      r0,[r1,#8]
        0x000020ba:    4608        .F      MOV      r0,r1
        0x000020bc:    6940        @i      LDR      r0,[r0,#0x14]
        0x000020be:    2107        .!      MOVS     r1,#7
        0x000020c0:    0509        ..      LSLS     r1,r1,#20
        0x000020c2:    4388        .C      BICS     r0,r0,r1
        0x000020c4:    491e        .I      LDR      r1,[pc,#120] ; [0x2140] = 0x50000200
        0x000020c6:    6148        Ha      STR      r0,[r1,#0x14]
        0x000020c8:    2005        .       MOVS     r0,#5
        0x000020ca:    0700        ..      LSLS     r0,r0,#28
        0x000020cc:    68c0        .h      LDR      r0,[r0,#0xc]
        0x000020ce:    2120         !      MOVS     r1,#0x20
        0x000020d0:    4308        .C      ORRS     r0,r0,r1
        0x000020d2:    2105        .!      MOVS     r1,#5
        0x000020d4:    0709        ..      LSLS     r1,r1,#28
        0x000020d6:    60c8        .`      STR      r0,[r1,#0xc]
        0x000020d8:    4608        .F      MOV      r0,r1
        0x000020da:    68c0        .h      LDR      r0,[r0,#0xc]
        0x000020dc:    2120         !      MOVS     r1,#0x20
        0x000020de:    4388        .C      BICS     r0,r0,r1
        0x000020e0:    2105        .!      MOVS     r1,#5
        0x000020e2:    0709        ..      LSLS     r1,r1,#28
        0x000020e4:    60c8        .`      STR      r0,[r1,#0xc]
        0x000020e6:    481b        .H      LDR      r0,[pc,#108] ; [0x2154] = 0x40110000
        0x000020e8:    6a00        .j      LDR      r0,[r0,#0x20]
        0x000020ea:    2103        .!      MOVS     r1,#3
        0x000020ec:    06c9        ..      LSLS     r1,r1,#27
        0x000020ee:    4388        .C      BICS     r0,r0,r1
        0x000020f0:    4918        .I      LDR      r1,[pc,#96] ; [0x2154] = 0x40110000
        0x000020f2:    6208        .b      STR      r0,[r1,#0x20]
        0x000020f4:    4608        .F      MOV      r0,r1
        0x000020f6:    6a00        .j      LDR      r0,[r0,#0x20]
        0x000020f8:    2101        .!      MOVS     r1,#1
        0x000020fa:    06c9        ..      LSLS     r1,r1,#27
        0x000020fc:    4308        .C      ORRS     r0,r0,r1
        0x000020fe:    4915        .I      LDR      r1,[pc,#84] ; [0x2154] = 0x40110000
        0x00002100:    6208        .b      STR      r0,[r1,#0x20]
        0x00002102:    4608        .F      MOV      r0,r1
        0x00002104:    6a00        .j      LDR      r0,[r0,#0x20]
        0x00002106:    0a00        ..      LSRS     r0,r0,#8
        0x00002108:    0200        ..      LSLS     r0,r0,#8
        0x0000210a:    6208        .b      STR      r0,[r1,#0x20]
        0x0000210c:    4813        .H      LDR      r0,[pc,#76] ; [0x215c] = 0x15f90
        0x0000210e:    6248        Hb      STR      r0,[r1,#0x24]
        0x00002110:    4608        .F      MOV      r0,r1
        0x00002112:    6a00        .j      LDR      r0,[r0,#0x20]
        0x00002114:    0349        I.      LSLS     r1,r1,#13
        0x00002116:    4308        .C      ORRS     r0,r0,r1
        0x00002118:    490e        .I      LDR      r1,[pc,#56] ; [0x2154] = 0x40110000
        0x0000211a:    6208        .b      STR      r0,[r1,#0x20]
        0x0000211c:    2001        .       MOVS     r0,#1
        0x0000211e:    02c0        ..      LSLS     r0,r0,#11
        0x00002120:    490a        .I      LDR      r1,[pc,#40] ; [0x214c] = 0xe000e100
        0x00002122:    6008        .`      STR      r0,[r1,#0]
        0x00002124:    480b        .H      LDR      r0,[pc,#44] ; [0x2154] = 0x40110000
        0x00002126:    6a00        .j      LDR      r0,[r0,#0x20]
        0x00002128:    2101        .!      MOVS     r1,#1
        0x0000212a:    0689        ..      LSLS     r1,r1,#26
        0x0000212c:    4308        .C      ORRS     r0,r0,r1
        0x0000212e:    4909        .I      LDR      r1,[pc,#36] ; [0x2154] = 0x40110000
        0x00002130:    6208        .b      STR      r0,[r1,#0x20]
        0x00002132:    4608        .F      MOV      r0,r1
        0x00002134:    6a00        .j      LDR      r0,[r0,#0x20]
        0x00002136:    0389        ..      LSLS     r1,r1,#14
        0x00002138:    4308        .C      ORRS     r0,r0,r1
        0x0000213a:    4906        .I      LDR      r1,[pc,#24] ; [0x2154] = 0x40110000
        0x0000213c:    6208        .b      STR      r0,[r1,#0x20]
        0x0000213e:    4770        pG      BX       lr
    $d
        0x00002140:    50000200    ...P    DCD    1342177792
        0x00002144:    40010000    ...@    DCD    1073807360
        0x00002148:    00007530    0u..    DCD    30000
        0x0000214c:    e000e100    ....    DCD    3758153984
        0x00002150:    0000ea60    `...    DCD    60000
        0x00002154:    40110000    ...@    DCD    1074855936
        0x00002158:    0001d4c0    ....    DCD    120000
        0x0000215c:    00015f90    ._..    DCD    90000
    $t
    .text
    Init_GPIO_Output
        0x00002160:    b510        ..      PUSH     {r4,lr}
        0x00002162:    0003        ..      MOVS     r3,r0
        0x00002164:    f003f9fa    ....    BL       __ARM_common_switch8 ; 0x555c
    $d
        0x00002168:    2b160405    ...+    DCD    722863109
        0x0000216c:    00665440    @Tf.    DCD    6706240
    $t
        0x00002170:    4aaf        .J      LDR      r2,[pc,#700] ; [0x2430] = 0x50004000
        0x00002172:    6812        .h      LDR      r2,[r2,#0]
        0x00002174:    004c        L.      LSLS     r4,r1,#1
        0x00002176:    2301        .#      MOVS     r3,#1
        0x00002178:    40a3        .@      LSLS     r3,r3,r4
        0x0000217a:    431a        .C      ORRS     r2,r2,r3
        0x0000217c:    4bac        .K      LDR      r3,[pc,#688] ; [0x2430] = 0x50004000
        0x0000217e:    601a        .`      STR      r2,[r3,#0]
        0x00002180:    461a        .F      MOV      r2,r3
        0x00002182:    6812        .h      LDR      r2,[r2,#0]
        0x00002184:    004b        K.      LSLS     r3,r1,#1
        0x00002186:    1c5b        [.      ADDS     r3,r3,#1
        0x00002188:    2401        .$      MOVS     r4,#1
        0x0000218a:    409c        .@      LSLS     r4,r4,r3
        0x0000218c:    43a2        .C      BICS     r2,r2,r4
        0x0000218e:    4ba8        .K      LDR      r3,[pc,#672] ; [0x2430] = 0x50004000
        0x00002190:    601a        .`      STR      r2,[r3,#0]
        0x00002192:    e04f        O.      B        0x2234 ; Init_GPIO_Output + 212
        0x00002194:    4aa6        .J      LDR      r2,[pc,#664] ; [0x2430] = 0x50004000
        0x00002196:    3240        @2      ADDS     r2,r2,#0x40
        0x00002198:    6812        .h      LDR      r2,[r2,#0]
        0x0000219a:    004c        L.      LSLS     r4,r1,#1
        0x0000219c:    2301        .#      MOVS     r3,#1
        0x0000219e:    40a3        .@      LSLS     r3,r3,r4
        0x000021a0:    431a        .C      ORRS     r2,r2,r3
        0x000021a2:    4ba3        .K      LDR      r3,[pc,#652] ; [0x2430] = 0x50004000
        0x000021a4:    3340        @3      ADDS     r3,r3,#0x40
        0x000021a6:    601a        .`      STR      r2,[r3,#0]
        0x000021a8:    461a        .F      MOV      r2,r3
        0x000021aa:    6812        .h      LDR      r2,[r2,#0]
        0x000021ac:    004b        K.      LSLS     r3,r1,#1
        0x000021ae:    1c5b        [.      ADDS     r3,r3,#1
        0x000021b0:    2401        .$      MOVS     r4,#1
        0x000021b2:    409c        .@      LSLS     r4,r4,r3
        0x000021b4:    43a2        .C      BICS     r2,r2,r4
        0x000021b6:    4b9e        .K      LDR      r3,[pc,#632] ; [0x2430] = 0x50004000
        0x000021b8:    3340        @3      ADDS     r3,r3,#0x40
        0x000021ba:    601a        .`      STR      r2,[r3,#0]
        0x000021bc:    e03a        :.      B        0x2234 ; Init_GPIO_Output + 212
        0x000021be:    4a9c        .J      LDR      r2,[pc,#624] ; [0x2430] = 0x50004000
        0x000021c0:    3280        .2      ADDS     r2,r2,#0x80
        0x000021c2:    6812        .h      LDR      r2,[r2,#0]
        0x000021c4:    004c        L.      LSLS     r4,r1,#1
        0x000021c6:    2301        .#      MOVS     r3,#1
        0x000021c8:    40a3        .@      LSLS     r3,r3,r4
        0x000021ca:    431a        .C      ORRS     r2,r2,r3
        0x000021cc:    4b98        .K      LDR      r3,[pc,#608] ; [0x2430] = 0x50004000
        0x000021ce:    3380        .3      ADDS     r3,r3,#0x80
        0x000021d0:    601a        .`      STR      r2,[r3,#0]
        0x000021d2:    461a        .F      MOV      r2,r3
        0x000021d4:    6812        .h      LDR      r2,[r2,#0]
        0x000021d6:    004b        K.      LSLS     r3,r1,#1
        0x000021d8:    1c5b        [.      ADDS     r3,r3,#1
        0x000021da:    2401        .$      MOVS     r4,#1
        0x000021dc:    409c        .@      LSLS     r4,r4,r3
        0x000021de:    43a2        .C      BICS     r2,r2,r4
        0x000021e0:    4b93        .K      LDR      r3,[pc,#588] ; [0x2430] = 0x50004000
        0x000021e2:    3380        .3      ADDS     r3,r3,#0x80
        0x000021e4:    601a        .`      STR      r2,[r3,#0]
        0x000021e6:    e025        %.      B        0x2234 ; Init_GPIO_Output + 212
        0x000021e8:    4a91        .J      LDR      r2,[pc,#580] ; [0x2430] = 0x50004000
        0x000021ea:    32c0        .2      ADDS     r2,r2,#0xc0
        0x000021ec:    6813        .h      LDR      r3,[r2,#0]
        0x000021ee:    004c        L.      LSLS     r4,r1,#1
        0x000021f0:    2201        ."      MOVS     r2,#1
        0x000021f2:    40a2        .@      LSLS     r2,r2,r4
        0x000021f4:    4313        .C      ORRS     r3,r3,r2
        0x000021f6:    4a8e        .J      LDR      r2,[pc,#568] ; [0x2430] = 0x50004000
        0x000021f8:    32c0        .2      ADDS     r2,r2,#0xc0
        0x000021fa:    6013        .`      STR      r3,[r2,#0]
        0x000021fc:    6812        .h      LDR      r2,[r2,#0]
        0x000021fe:    004b        K.      LSLS     r3,r1,#1
        0x00002200:    1c5b        [.      ADDS     r3,r3,#1
        0x00002202:    2401        .$      MOVS     r4,#1
        0x00002204:    409c        .@      LSLS     r4,r4,r3
        0x00002206:    43a2        .C      BICS     r2,r2,r4
        0x00002208:    4b89        .K      LDR      r3,[pc,#548] ; [0x2430] = 0x50004000
        0x0000220a:    33c0        .3      ADDS     r3,r3,#0xc0
        0x0000220c:    601a        .`      STR      r2,[r3,#0]
        0x0000220e:    e011        ..      B        0x2234 ; Init_GPIO_Output + 212
        0x00002210:    4a88        .J      LDR      r2,[pc,#544] ; [0x2434] = 0x50004100
        0x00002212:    6812        .h      LDR      r2,[r2,#0]
        0x00002214:    004c        L.      LSLS     r4,r1,#1
        0x00002216:    2301        .#      MOVS     r3,#1
        0x00002218:    40a3        .@      LSLS     r3,r3,r4
        0x0000221a:    431a        .C      ORRS     r2,r2,r3
        0x0000221c:    4b85        .K      LDR      r3,[pc,#532] ; [0x2434] = 0x50004100
        0x0000221e:    601a        .`      STR      r2,[r3,#0]
        0x00002220:    461a        .F      MOV      r2,r3
        0x00002222:    6813        .h      LDR      r3,[r2,#0]
        0x00002224:    004a        J.      LSLS     r2,r1,#1
        0x00002226:    1c52        R.      ADDS     r2,r2,#1
        0x00002228:    2401        .$      MOVS     r4,#1
        0x0000222a:    4094        .@      LSLS     r4,r4,r2
        0x0000222c:    43a3        .C      BICS     r3,r3,r4
        0x0000222e:    4a81        .J      LDR      r2,[pc,#516] ; [0x2434] = 0x50004100
        0x00002230:    6013        .`      STR      r3,[r2,#0]
        0x00002232:    bf00        ..      NOP      
        0x00002234:    bf00        ..      NOP      
        0x00002236:    bd10        ..      POP      {r4,pc}
    Init_GPIO_Input
        0x00002238:    b510        ..      PUSH     {r4,lr}
        0x0000223a:    0003        ..      MOVS     r3,r0
        0x0000223c:    f003f98e    ....    BL       __ARM_common_switch8 ; 0x555c
    $d
        0x00002240:    29150405    ...)    DCD    689243141
        0x00002244:    0064523e    >Rd.    DCD    6574654
    $t
        0x00002248:    4a79        yJ      LDR      r2,[pc,#484] ; [0x2430] = 0x50004000
        0x0000224a:    6813        .h      LDR      r3,[r2,#0]
        0x0000224c:    004c        L.      LSLS     r4,r1,#1
        0x0000224e:    2201        ."      MOVS     r2,#1
        0x00002250:    40a2        .@      LSLS     r2,r2,r4
        0x00002252:    4393        .C      BICS     r3,r3,r2
        0x00002254:    4a76        vJ      LDR      r2,[pc,#472] ; [0x2430] = 0x50004000
        0x00002256:    6013        .`      STR      r3,[r2,#0]
        0x00002258:    6812        .h      LDR      r2,[r2,#0]
        0x0000225a:    004b        K.      LSLS     r3,r1,#1
        0x0000225c:    1c5b        [.      ADDS     r3,r3,#1
        0x0000225e:    2401        .$      MOVS     r4,#1
        0x00002260:    409c        .@      LSLS     r4,r4,r3
        0x00002262:    43a2        .C      BICS     r2,r2,r4
        0x00002264:    4b72        rK      LDR      r3,[pc,#456] ; [0x2430] = 0x50004000
        0x00002266:    601a        .`      STR      r2,[r3,#0]
        0x00002268:    e04e        N.      B        0x2308 ; Init_GPIO_Input + 208
        0x0000226a:    4a71        qJ      LDR      r2,[pc,#452] ; [0x2430] = 0x50004000
        0x0000226c:    3240        @2      ADDS     r2,r2,#0x40
        0x0000226e:    6813        .h      LDR      r3,[r2,#0]
        0x00002270:    004c        L.      LSLS     r4,r1,#1
        0x00002272:    2201        ."      MOVS     r2,#1
        0x00002274:    40a2        .@      LSLS     r2,r2,r4
        0x00002276:    4393        .C      BICS     r3,r3,r2
        0x00002278:    4a6d        mJ      LDR      r2,[pc,#436] ; [0x2430] = 0x50004000
        0x0000227a:    3240        @2      ADDS     r2,r2,#0x40
        0x0000227c:    6013        .`      STR      r3,[r2,#0]
        0x0000227e:    6813        .h      LDR      r3,[r2,#0]
        0x00002280:    004a        J.      LSLS     r2,r1,#1
        0x00002282:    1c52        R.      ADDS     r2,r2,#1
        0x00002284:    2401        .$      MOVS     r4,#1
        0x00002286:    4094        .@      LSLS     r4,r4,r2
        0x00002288:    43a3        .C      BICS     r3,r3,r4
        0x0000228a:    4a69        iJ      LDR      r2,[pc,#420] ; [0x2430] = 0x50004000
        0x0000228c:    3240        @2      ADDS     r2,r2,#0x40
        0x0000228e:    6013        .`      STR      r3,[r2,#0]
        0x00002290:    e03a        :.      B        0x2308 ; Init_GPIO_Input + 208
        0x00002292:    4a67        gJ      LDR      r2,[pc,#412] ; [0x2430] = 0x50004000
        0x00002294:    3280        .2      ADDS     r2,r2,#0x80
        0x00002296:    6812        .h      LDR      r2,[r2,#0]
        0x00002298:    004c        L.      LSLS     r4,r1,#1
        0x0000229a:    2301        .#      MOVS     r3,#1
        0x0000229c:    40a3        .@      LSLS     r3,r3,r4
        0x0000229e:    439a        .C      BICS     r2,r2,r3
        0x000022a0:    4b63        cK      LDR      r3,[pc,#396] ; [0x2430] = 0x50004000
        0x000022a2:    3380        .3      ADDS     r3,r3,#0x80
        0x000022a4:    601a        .`      STR      r2,[r3,#0]
        0x000022a6:    461a        .F      MOV      r2,r3
        0x000022a8:    6813        .h      LDR      r3,[r2,#0]
        0x000022aa:    004a        J.      LSLS     r2,r1,#1
        0x000022ac:    1c52        R.      ADDS     r2,r2,#1
        0x000022ae:    2401        .$      MOVS     r4,#1
        0x000022b0:    4094        .@      LSLS     r4,r4,r2
        0x000022b2:    43a3        .C      BICS     r3,r3,r4
        0x000022b4:    4a5e        ^J      LDR      r2,[pc,#376] ; [0x2430] = 0x50004000
        0x000022b6:    3280        .2      ADDS     r2,r2,#0x80
        0x000022b8:    6013        .`      STR      r3,[r2,#0]
        0x000022ba:    e025        %.      B        0x2308 ; Init_GPIO_Input + 208
        0x000022bc:    4a5d        ]J      LDR      r2,[pc,#372] ; [0x2434] = 0x50004100
        0x000022be:    3a40        @:      SUBS     r2,r2,#0x40
        0x000022c0:    6813        .h      LDR      r3,[r2,#0]
        0x000022c2:    004c        L.      LSLS     r4,r1,#1
        0x000022c4:    2201        ."      MOVS     r2,#1
        0x000022c6:    40a2        .@      LSLS     r2,r2,r4
        0x000022c8:    4393        .C      BICS     r3,r3,r2
        0x000022ca:    4a5a        ZJ      LDR      r2,[pc,#360] ; [0x2434] = 0x50004100
        0x000022cc:    3a40        @:      SUBS     r2,r2,#0x40
        0x000022ce:    6013        .`      STR      r3,[r2,#0]
        0x000022d0:    6812        .h      LDR      r2,[r2,#0]
        0x000022d2:    004b        K.      LSLS     r3,r1,#1
        0x000022d4:    1c5b        [.      ADDS     r3,r3,#1
        0x000022d6:    2401        .$      MOVS     r4,#1
        0x000022d8:    409c        .@      LSLS     r4,r4,r3
        0x000022da:    43a2        .C      BICS     r2,r2,r4
        0x000022dc:    4b55        UK      LDR      r3,[pc,#340] ; [0x2434] = 0x50004100
        0x000022de:    3b40        @;      SUBS     r3,r3,#0x40
        0x000022e0:    601a        .`      STR      r2,[r3,#0]
        0x000022e2:    e011        ..      B        0x2308 ; Init_GPIO_Input + 208
        0x000022e4:    4a53        SJ      LDR      r2,[pc,#332] ; [0x2434] = 0x50004100
        0x000022e6:    6812        .h      LDR      r2,[r2,#0]
        0x000022e8:    004c        L.      LSLS     r4,r1,#1
        0x000022ea:    2301        .#      MOVS     r3,#1
        0x000022ec:    40a3        .@      LSLS     r3,r3,r4
        0x000022ee:    439a        .C      BICS     r2,r2,r3
        0x000022f0:    4b50        PK      LDR      r3,[pc,#320] ; [0x2434] = 0x50004100
        0x000022f2:    601a        .`      STR      r2,[r3,#0]
        0x000022f4:    461a        .F      MOV      r2,r3
        0x000022f6:    6812        .h      LDR      r2,[r2,#0]
        0x000022f8:    004b        K.      LSLS     r3,r1,#1
        0x000022fa:    1c5b        [.      ADDS     r3,r3,#1
        0x000022fc:    2401        .$      MOVS     r4,#1
        0x000022fe:    409c        .@      LSLS     r4,r4,r3
        0x00002300:    43a2        .C      BICS     r2,r2,r4
        0x00002302:    4b4c        LK      LDR      r3,[pc,#304] ; [0x2434] = 0x50004100
        0x00002304:    601a        .`      STR      r2,[r3,#0]
        0x00002306:    bf00        ..      NOP      
        0x00002308:    bf00        ..      NOP      
        0x0000230a:    bd10        ..      POP      {r4,pc}
    digitalWrite
        0x0000230c:    b510        ..      PUSH     {r4,lr}
        0x0000230e:    2a01        .*      CMP      r2,#1
        0x00002310:    d135        5.      BNE      0x237e ; digitalWrite + 114
        0x00002312:    0003        ..      MOVS     r3,r0
        0x00002314:    f003f922    ..".    BL       __ARM_common_switch8 ; 0x555c
    $d
        0x00002318:    160c0405    ....    DCD    369886213
        0x0000231c:    00322a20     *2.    DCD    3287584
    $t
        0x00002320:    4b43        CK      LDR      r3,[pc,#268] ; [0x2430] = 0x50004000
        0x00002322:    689b        .h      LDR      r3,[r3,#8]
        0x00002324:    2401        .$      MOVS     r4,#1
        0x00002326:    408c        .@      LSLS     r4,r4,r1
        0x00002328:    4323        #C      ORRS     r3,r3,r4
        0x0000232a:    4c41        AL      LDR      r4,[pc,#260] ; [0x2430] = 0x50004000
        0x0000232c:    60a3        .`      STR      r3,[r4,#8]
        0x0000232e:    e025        %.      B        0x237c ; digitalWrite + 112
        0x00002330:    4b3f        ?K      LDR      r3,[pc,#252] ; [0x2430] = 0x50004000
        0x00002332:    3340        @3      ADDS     r3,r3,#0x40
        0x00002334:    689b        .h      LDR      r3,[r3,#8]
        0x00002336:    2401        .$      MOVS     r4,#1
        0x00002338:    408c        .@      LSLS     r4,r4,r1
        0x0000233a:    4323        #C      ORRS     r3,r3,r4
        0x0000233c:    4c3c        <L      LDR      r4,[pc,#240] ; [0x2430] = 0x50004000
        0x0000233e:    3440        @4      ADDS     r4,r4,#0x40
        0x00002340:    60a3        .`      STR      r3,[r4,#8]
        0x00002342:    e01b        ..      B        0x237c ; digitalWrite + 112
        0x00002344:    4b3a        :K      LDR      r3,[pc,#232] ; [0x2430] = 0x50004000
        0x00002346:    3380        .3      ADDS     r3,r3,#0x80
        0x00002348:    689b        .h      LDR      r3,[r3,#8]
        0x0000234a:    2401        .$      MOVS     r4,#1
        0x0000234c:    408c        .@      LSLS     r4,r4,r1
        0x0000234e:    4323        #C      ORRS     r3,r3,r4
        0x00002350:    4c37        7L      LDR      r4,[pc,#220] ; [0x2430] = 0x50004000
        0x00002352:    3480        .4      ADDS     r4,r4,#0x80
        0x00002354:    60a3        .`      STR      r3,[r4,#8]
        0x00002356:    e011        ..      B        0x237c ; digitalWrite + 112
        0x00002358:    4b36        6K      LDR      r3,[pc,#216] ; [0x2434] = 0x50004100
        0x0000235a:    3b40        @;      SUBS     r3,r3,#0x40
        0x0000235c:    689b        .h      LDR      r3,[r3,#8]
        0x0000235e:    2401        .$      MOVS     r4,#1
        0x00002360:    408c        .@      LSLS     r4,r4,r1
        0x00002362:    4323        #C      ORRS     r3,r3,r4
        0x00002364:    4c33        3L      LDR      r4,[pc,#204] ; [0x2434] = 0x50004100
        0x00002366:    3c40        @<      SUBS     r4,r4,#0x40
        0x00002368:    60a3        .`      STR      r3,[r4,#8]
        0x0000236a:    e007        ..      B        0x237c ; digitalWrite + 112
        0x0000236c:    4b31        1K      LDR      r3,[pc,#196] ; [0x2434] = 0x50004100
        0x0000236e:    689b        .h      LDR      r3,[r3,#8]
        0x00002370:    2401        .$      MOVS     r4,#1
        0x00002372:    408c        .@      LSLS     r4,r4,r1
        0x00002374:    4323        #C      ORRS     r3,r3,r4
        0x00002376:    4c2f        /L      LDR      r4,[pc,#188] ; [0x2434] = 0x50004100
        0x00002378:    60a3        .`      STR      r3,[r4,#8]
        0x0000237a:    bf00        ..      NOP      
        0x0000237c:    e035        5.      B        0x23ea ; digitalWrite + 222
        0x0000237e:    0003        ..      MOVS     r3,r0
        0x00002380:    f003f8ec    ....    BL       __ARM_common_switch8 ; 0x555c
    $d
        0x00002384:    160c0405    ....    DCD    369886213
        0x00002388:    00322a20     *2.    DCD    3287584
    $t
        0x0000238c:    4b28        (K      LDR      r3,[pc,#160] ; [0x2430] = 0x50004000
        0x0000238e:    689c        .h      LDR      r4,[r3,#8]
        0x00002390:    2301        .#      MOVS     r3,#1
        0x00002392:    408b        .@      LSLS     r3,r3,r1
        0x00002394:    439c        .C      BICS     r4,r4,r3
        0x00002396:    4b26        &K      LDR      r3,[pc,#152] ; [0x2430] = 0x50004000
        0x00002398:    609c        .`      STR      r4,[r3,#8]
        0x0000239a:    e025        %.      B        0x23e8 ; digitalWrite + 220
        0x0000239c:    4b24        $K      LDR      r3,[pc,#144] ; [0x2430] = 0x50004000
        0x0000239e:    3340        @3      ADDS     r3,r3,#0x40
        0x000023a0:    689b        .h      LDR      r3,[r3,#8]
        0x000023a2:    2401        .$      MOVS     r4,#1
        0x000023a4:    408c        .@      LSLS     r4,r4,r1
        0x000023a6:    43a3        .C      BICS     r3,r3,r4
        0x000023a8:    4c21        !L      LDR      r4,[pc,#132] ; [0x2430] = 0x50004000
        0x000023aa:    3440        @4      ADDS     r4,r4,#0x40
        0x000023ac:    60a3        .`      STR      r3,[r4,#8]
        0x000023ae:    e01b        ..      B        0x23e8 ; digitalWrite + 220
        0x000023b0:    4b1f        .K      LDR      r3,[pc,#124] ; [0x2430] = 0x50004000
        0x000023b2:    3380        .3      ADDS     r3,r3,#0x80
        0x000023b4:    689b        .h      LDR      r3,[r3,#8]
        0x000023b6:    2401        .$      MOVS     r4,#1
        0x000023b8:    408c        .@      LSLS     r4,r4,r1
        0x000023ba:    43a3        .C      BICS     r3,r3,r4
        0x000023bc:    4c1c        .L      LDR      r4,[pc,#112] ; [0x2430] = 0x50004000
        0x000023be:    3480        .4      ADDS     r4,r4,#0x80
        0x000023c0:    60a3        .`      STR      r3,[r4,#8]
        0x000023c2:    e011        ..      B        0x23e8 ; digitalWrite + 220
        0x000023c4:    4b1b        .K      LDR      r3,[pc,#108] ; [0x2434] = 0x50004100
        0x000023c6:    3b40        @;      SUBS     r3,r3,#0x40
        0x000023c8:    689b        .h      LDR      r3,[r3,#8]
        0x000023ca:    2401        .$      MOVS     r4,#1
        0x000023cc:    408c        .@      LSLS     r4,r4,r1
        0x000023ce:    43a3        .C      BICS     r3,r3,r4
        0x000023d0:    4c18        .L      LDR      r4,[pc,#96] ; [0x2434] = 0x50004100
        0x000023d2:    3c40        @<      SUBS     r4,r4,#0x40
        0x000023d4:    60a3        .`      STR      r3,[r4,#8]
        0x000023d6:    e007        ..      B        0x23e8 ; digitalWrite + 220
        0x000023d8:    4b16        .K      LDR      r3,[pc,#88] ; [0x2434] = 0x50004100
        0x000023da:    689b        .h      LDR      r3,[r3,#8]
        0x000023dc:    2401        .$      MOVS     r4,#1
        0x000023de:    408c        .@      LSLS     r4,r4,r1
        0x000023e0:    43a3        .C      BICS     r3,r3,r4
        0x000023e2:    4c14        .L      LDR      r4,[pc,#80] ; [0x2434] = 0x50004100
        0x000023e4:    60a3        .`      STR      r3,[r4,#8]
        0x000023e6:    bf00        ..      NOP      
        0x000023e8:    bf00        ..      NOP      
        0x000023ea:    bd10        ..      POP      {r4,pc}
    digitalRead
        0x000023ec:    b510        ..      PUSH     {r4,lr}
        0x000023ee:    4602        .F      MOV      r2,r0
        0x000023f0:    460c        .F      MOV      r4,r1
        0x000023f2:    0013        ..      MOVS     r3,r2
        0x000023f4:    f003f8b2    ....    BL       __ARM_common_switch8 ; 0x555c
    $d
        0x000023f8:    0b070405    ....    DCD    185009157
        0x000023fc:    0016130f    ....    DCD    1446671
    $t
        0x00002400:    4b0b        .K      LDR      r3,[pc,#44] ; [0x2430] = 0x50004000
        0x00002402:    6919        .i      LDR      r1,[r3,#0x10]
        0x00002404:    e00e        ..      B        0x2424 ; digitalRead + 56
        0x00002406:    4b0a        .K      LDR      r3,[pc,#40] ; [0x2430] = 0x50004000
        0x00002408:    3340        @3      ADDS     r3,r3,#0x40
        0x0000240a:    6919        .i      LDR      r1,[r3,#0x10]
        0x0000240c:    e00a        ..      B        0x2424 ; digitalRead + 56
        0x0000240e:    4b08        .K      LDR      r3,[pc,#32] ; [0x2430] = 0x50004000
        0x00002410:    3380        .3      ADDS     r3,r3,#0x80
        0x00002412:    6919        .i      LDR      r1,[r3,#0x10]
        0x00002414:    e006        ..      B        0x2424 ; digitalRead + 56
        0x00002416:    4b07        .K      LDR      r3,[pc,#28] ; [0x2434] = 0x50004100
        0x00002418:    3b40        @;      SUBS     r3,r3,#0x40
        0x0000241a:    6919        .i      LDR      r1,[r3,#0x10]
        0x0000241c:    e002        ..      B        0x2424 ; digitalRead + 56
        0x0000241e:    4b05        .K      LDR      r3,[pc,#20] ; [0x2434] = 0x50004100
        0x00002420:    6919        .i      LDR      r1,[r3,#0x10]
        0x00002422:    bf00        ..      NOP      
        0x00002424:    bf00        ..      NOP      
        0x00002426:    460b        .F      MOV      r3,r1
        0x00002428:    4123        #A      ASRS     r3,r3,r4
        0x0000242a:    07d8        ..      LSLS     r0,r3,#31
        0x0000242c:    0fc0        ..      LSRS     r0,r0,#31
        0x0000242e:    bd10        ..      POP      {r4,pc}
    $d
        0x00002430:    50004000    .@.P    DCD    1342193664
        0x00002434:    50004100    .A.P    DCD    1342193920
    $t
    .text
    Init_PWM
        0x00002438:    b500        ..      PUSH     {lr}
        0x0000243a:    0003        ..      MOVS     r3,r0
        0x0000243c:    f003f88e    ....    BL       __ARM_common_switch8 ; 0x555c
    $d
        0x00002440:    40230508    ..#@    DCD    1076036872
        0x00002444:    b8997a5d    ]z..    DCD    3097066077
        0x00002448:    f6d7        ..      DCW    63191
    $t
        0x0000244a:    2105        .!      MOVS     r1,#5
        0x0000244c:    0709        ..      LSLS     r1,r1,#28
        0x0000244e:    6b89        .k      LDR      r1,[r1,#0x38]
        0x00002450:    22ff        ."      MOVS     r2,#0xff
        0x00002452:    3202        .2      ADDS     r2,#2
        0x00002454:    4391        .C      BICS     r1,r1,r2
        0x00002456:    2205        ."      MOVS     r2,#5
        0x00002458:    0712        ..      LSLS     r2,r2,#28
        0x0000245a:    6391        .c      STR      r1,[r2,#0x38]
        0x0000245c:    4611        .F      MOV      r1,r2
        0x0000245e:    6b89        .k      LDR      r1,[r1,#0x38]
        0x00002460:    22ff        ."      MOVS     r2,#0xff
        0x00002462:    3201        .2      ADDS     r2,#1
        0x00002464:    4311        .C      ORRS     r1,r1,r2
        0x00002466:    2205        ."      MOVS     r2,#5
        0x00002468:    0712        ..      LSLS     r2,r2,#28
        0x0000246a:    6391        .c      STR      r1,[r2,#0x38]
        0x0000246c:    49e4        .I      LDR      r1,[pc,#912] ; [0x2800] = 0x50004080
        0x0000246e:    6809        .h      LDR      r1,[r1,#0]
        0x00002470:    0889        ..      LSRS     r1,r1,#2
        0x00002472:    0089        ..      LSLS     r1,r1,#2
        0x00002474:    4ae2        .J      LDR      r2,[pc,#904] ; [0x2800] = 0x50004080
        0x00002476:    6011        .`      STR      r1,[r2,#0]
        0x00002478:    4611        .F      MOV      r1,r2
        0x0000247a:    6809        .h      LDR      r1,[r1,#0]
        0x0000247c:    2201        ."      MOVS     r2,#1
        0x0000247e:    4311        .C      ORRS     r1,r1,r2
        0x00002480:    4adf        .J      LDR      r2,[pc,#892] ; [0x2800] = 0x50004080
        0x00002482:    6011        .`      STR      r1,[r2,#0]
        0x00002484:    e0d2        ..      B        0x262c ; Init_PWM + 500
        0x00002486:    2105        .!      MOVS     r1,#5
        0x00002488:    0709        ..      LSLS     r1,r1,#28
        0x0000248a:    6b89        .k      LDR      r1,[r1,#0x38]
        0x0000248c:    4add        .J      LDR      r2,[pc,#884] ; [0x2804] = 0xfffffdfd
        0x0000248e:    4011        .@      ANDS     r1,r1,r2
        0x00002490:    2205        ."      MOVS     r2,#5
        0x00002492:    0712        ..      LSLS     r2,r2,#28
        0x00002494:    6391        .c      STR      r1,[r2,#0x38]
        0x00002496:    4611        .F      MOV      r1,r2
        0x00002498:    6b89        .k      LDR      r1,[r1,#0x38]
        0x0000249a:    2201        ."      MOVS     r2,#1
        0x0000249c:    0252        R.      LSLS     r2,r2,#9
        0x0000249e:    4311        .C      ORRS     r1,r1,r2
        0x000024a0:    2205        ."      MOVS     r2,#5
        0x000024a2:    0712        ..      LSLS     r2,r2,#28
        0x000024a4:    6391        .c      STR      r1,[r2,#0x38]
        0x000024a6:    49d6        .I      LDR      r1,[pc,#856] ; [0x2800] = 0x50004080
        0x000024a8:    6809        .h      LDR      r1,[r1,#0]
        0x000024aa:    220c        ."      MOVS     r2,#0xc
        0x000024ac:    4391        .C      BICS     r1,r1,r2
        0x000024ae:    4ad4        .J      LDR      r2,[pc,#848] ; [0x2800] = 0x50004080
        0x000024b0:    6011        .`      STR      r1,[r2,#0]
        0x000024b2:    4611        .F      MOV      r1,r2
        0x000024b4:    6809        .h      LDR      r1,[r1,#0]
        0x000024b6:    2204        ."      MOVS     r2,#4
        0x000024b8:    4311        .C      ORRS     r1,r1,r2
        0x000024ba:    4ad1        .J      LDR      r2,[pc,#836] ; [0x2800] = 0x50004080
        0x000024bc:    6011        .`      STR      r1,[r2,#0]
        0x000024be:    e0b5        ..      B        0x262c ; Init_PWM + 500
        0x000024c0:    2105        .!      MOVS     r1,#5
        0x000024c2:    0709        ..      LSLS     r1,r1,#28
        0x000024c4:    6b89        .k      LDR      r1,[r1,#0x38]
        0x000024c6:    4ad0        .J      LDR      r2,[pc,#832] ; [0x2808] = 0xfffffbfb
        0x000024c8:    4011        .@      ANDS     r1,r1,r2
        0x000024ca:    2205        ."      MOVS     r2,#5
        0x000024cc:    0712        ..      LSLS     r2,r2,#28
        0x000024ce:    6391        .c      STR      r1,[r2,#0x38]
        0x000024d0:    4611        .F      MOV      r1,r2
        0x000024d2:    6b89        .k      LDR      r1,[r1,#0x38]
        0x000024d4:    2201        ."      MOVS     r2,#1
        0x000024d6:    0292        ..      LSLS     r2,r2,#10
        0x000024d8:    4311        .C      ORRS     r1,r1,r2
        0x000024da:    2205        ."      MOVS     r2,#5
        0x000024dc:    0712        ..      LSLS     r2,r2,#28
        0x000024de:    6391        .c      STR      r1,[r2,#0x38]
        0x000024e0:    49c7        .I      LDR      r1,[pc,#796] ; [0x2800] = 0x50004080
        0x000024e2:    6809        .h      LDR      r1,[r1,#0]
        0x000024e4:    2230        0"      MOVS     r2,#0x30
        0x000024e6:    4391        .C      BICS     r1,r1,r2
        0x000024e8:    4ac5        .J      LDR      r2,[pc,#788] ; [0x2800] = 0x50004080
        0x000024ea:    6011        .`      STR      r1,[r2,#0]
        0x000024ec:    4611        .F      MOV      r1,r2
        0x000024ee:    6809        .h      LDR      r1,[r1,#0]
        0x000024f0:    2210        ."      MOVS     r2,#0x10
        0x000024f2:    4311        .C      ORRS     r1,r1,r2
        0x000024f4:    4ac2        .J      LDR      r2,[pc,#776] ; [0x2800] = 0x50004080
        0x000024f6:    6011        .`      STR      r1,[r2,#0]
        0x000024f8:    e098        ..      B        0x262c ; Init_PWM + 500
        0x000024fa:    2105        .!      MOVS     r1,#5
        0x000024fc:    0709        ..      LSLS     r1,r1,#28
        0x000024fe:    6b89        .k      LDR      r1,[r1,#0x38]
        0x00002500:    4ac2        .J      LDR      r2,[pc,#776] ; [0x280c] = 0xfffff7f7
        0x00002502:    4011        .@      ANDS     r1,r1,r2
        0x00002504:    2205        ."      MOVS     r2,#5
        0x00002506:    0712        ..      LSLS     r2,r2,#28
        0x00002508:    6391        .c      STR      r1,[r2,#0x38]
        0x0000250a:    4611        .F      MOV      r1,r2
        0x0000250c:    6b89        .k      LDR      r1,[r1,#0x38]
        0x0000250e:    2201        ."      MOVS     r2,#1
        0x00002510:    02d2        ..      LSLS     r2,r2,#11
        0x00002512:    4311        .C      ORRS     r1,r1,r2
        0x00002514:    2205        ."      MOVS     r2,#5
        0x00002516:    0712        ..      LSLS     r2,r2,#28
        0x00002518:    6391        .c      STR      r1,[r2,#0x38]
        0x0000251a:    49b9        .I      LDR      r1,[pc,#740] ; [0x2800] = 0x50004080
        0x0000251c:    6809        .h      LDR      r1,[r1,#0]
        0x0000251e:    22c0        ."      MOVS     r2,#0xc0
        0x00002520:    4391        .C      BICS     r1,r1,r2
        0x00002522:    4ab7        .J      LDR      r2,[pc,#732] ; [0x2800] = 0x50004080
        0x00002524:    6011        .`      STR      r1,[r2,#0]
        0x00002526:    4611        .F      MOV      r1,r2
        0x00002528:    6809        .h      LDR      r1,[r1,#0]
        0x0000252a:    2240        @"      MOVS     r2,#0x40
        0x0000252c:    4311        .C      ORRS     r1,r1,r2
        0x0000252e:    4ab4        .J      LDR      r2,[pc,#720] ; [0x2800] = 0x50004080
        0x00002530:    6011        .`      STR      r1,[r2,#0]
        0x00002532:    e07b        {.      B        0x262c ; Init_PWM + 500
        0x00002534:    2105        .!      MOVS     r1,#5
        0x00002536:    0709        ..      LSLS     r1,r1,#28
        0x00002538:    6b89        .k      LDR      r1,[r1,#0x38]
        0x0000253a:    4ab5        .J      LDR      r2,[pc,#724] ; [0x2810] = 0xffffefef
        0x0000253c:    4011        .@      ANDS     r1,r1,r2
        0x0000253e:    2205        ."      MOVS     r2,#5
        0x00002540:    0712        ..      LSLS     r2,r2,#28
        0x00002542:    6391        .c      STR      r1,[r2,#0x38]
        0x00002544:    4611        .F      MOV      r1,r2
        0x00002546:    6b89        .k      LDR      r1,[r1,#0x38]
        0x00002548:    2201        ."      MOVS     r2,#1
        0x0000254a:    0312        ..      LSLS     r2,r2,#12
        0x0000254c:    4311        .C      ORRS     r1,r1,r2
        0x0000254e:    2205        ."      MOVS     r2,#5
        0x00002550:    0712        ..      LSLS     r2,r2,#28
        0x00002552:    6391        .c      STR      r1,[r2,#0x38]
        0x00002554:    49aa        .I      LDR      r1,[pc,#680] ; [0x2800] = 0x50004080
        0x00002556:    6809        .h      LDR      r1,[r1,#0]
        0x00002558:    2203        ."      MOVS     r2,#3
        0x0000255a:    0212        ..      LSLS     r2,r2,#8
        0x0000255c:    4391        .C      BICS     r1,r1,r2
        0x0000255e:    4aa8        .J      LDR      r2,[pc,#672] ; [0x2800] = 0x50004080
        0x00002560:    6011        .`      STR      r1,[r2,#0]
        0x00002562:    4611        .F      MOV      r1,r2
        0x00002564:    6809        .h      LDR      r1,[r1,#0]
        0x00002566:    22ff        ."      MOVS     r2,#0xff
        0x00002568:    3201        .2      ADDS     r2,#1
        0x0000256a:    4311        .C      ORRS     r1,r1,r2
        0x0000256c:    4aa4        .J      LDR      r2,[pc,#656] ; [0x2800] = 0x50004080
        0x0000256e:    6011        .`      STR      r1,[r2,#0]
        0x00002570:    e05c        \.      B        0x262c ; Init_PWM + 500
        0x00002572:    2105        .!      MOVS     r1,#5
        0x00002574:    0709        ..      LSLS     r1,r1,#28
        0x00002576:    6b89        .k      LDR      r1,[r1,#0x38]
        0x00002578:    4aa6        .J      LDR      r2,[pc,#664] ; [0x2814] = 0xffffdfdf
        0x0000257a:    4011        .@      ANDS     r1,r1,r2
        0x0000257c:    2205        ."      MOVS     r2,#5
        0x0000257e:    0712        ..      LSLS     r2,r2,#28
        0x00002580:    6391        .c      STR      r1,[r2,#0x38]
        0x00002582:    4611        .F      MOV      r1,r2
        0x00002584:    6b89        .k      LDR      r1,[r1,#0x38]
        0x00002586:    2201        ."      MOVS     r2,#1
        0x00002588:    0352        R.      LSLS     r2,r2,#13
        0x0000258a:    4311        .C      ORRS     r1,r1,r2
        0x0000258c:    2205        ."      MOVS     r2,#5
        0x0000258e:    0712        ..      LSLS     r2,r2,#28
        0x00002590:    6391        .c      STR      r1,[r2,#0x38]
        0x00002592:    499b        .I      LDR      r1,[pc,#620] ; [0x2800] = 0x50004080
        0x00002594:    6809        .h      LDR      r1,[r1,#0]
        0x00002596:    2203        ."      MOVS     r2,#3
        0x00002598:    0292        ..      LSLS     r2,r2,#10
        0x0000259a:    4391        .C      BICS     r1,r1,r2
        0x0000259c:    4a98        .J      LDR      r2,[pc,#608] ; [0x2800] = 0x50004080
        0x0000259e:    6011        .`      STR      r1,[r2,#0]
        0x000025a0:    4611        .F      MOV      r1,r2
        0x000025a2:    6809        .h      LDR      r1,[r1,#0]
        0x000025a4:    2201        ."      MOVS     r2,#1
        0x000025a6:    0292        ..      LSLS     r2,r2,#10
        0x000025a8:    4311        .C      ORRS     r1,r1,r2
        0x000025aa:    4a95        .J      LDR      r2,[pc,#596] ; [0x2800] = 0x50004080
        0x000025ac:    6011        .`      STR      r1,[r2,#0]
        0x000025ae:    e03d        =.      B        0x262c ; Init_PWM + 500
        0x000025b0:    2105        .!      MOVS     r1,#5
        0x000025b2:    0709        ..      LSLS     r1,r1,#28
        0x000025b4:    6b89        .k      LDR      r1,[r1,#0x38]
        0x000025b6:    4a98        .J      LDR      r2,[pc,#608] ; [0x2818] = 0xffffbfbf
        0x000025b8:    4011        .@      ANDS     r1,r1,r2
        0x000025ba:    2205        ."      MOVS     r2,#5
        0x000025bc:    0712        ..      LSLS     r2,r2,#28
        0x000025be:    6391        .c      STR      r1,[r2,#0x38]
        0x000025c0:    4611        .F      MOV      r1,r2
        0x000025c2:    6b89        .k      LDR      r1,[r1,#0x38]
        0x000025c4:    2201        ."      MOVS     r2,#1
        0x000025c6:    0392        ..      LSLS     r2,r2,#14
        0x000025c8:    4311        .C      ORRS     r1,r1,r2
        0x000025ca:    2205        ."      MOVS     r2,#5
        0x000025cc:    0712        ..      LSLS     r2,r2,#28
        0x000025ce:    6391        .c      STR      r1,[r2,#0x38]
        0x000025d0:    498b        .I      LDR      r1,[pc,#556] ; [0x2800] = 0x50004080
        0x000025d2:    6809        .h      LDR      r1,[r1,#0]
        0x000025d4:    2203        ."      MOVS     r2,#3
        0x000025d6:    0312        ..      LSLS     r2,r2,#12
        0x000025d8:    4391        .C      BICS     r1,r1,r2
        0x000025da:    4a89        .J      LDR      r2,[pc,#548] ; [0x2800] = 0x50004080
        0x000025dc:    6011        .`      STR      r1,[r2,#0]
        0x000025de:    4611        .F      MOV      r1,r2
        0x000025e0:    6809        .h      LDR      r1,[r1,#0]
        0x000025e2:    2201        ."      MOVS     r2,#1
        0x000025e4:    0312        ..      LSLS     r2,r2,#12
        0x000025e6:    4311        .C      ORRS     r1,r1,r2
        0x000025e8:    4a85        .J      LDR      r2,[pc,#532] ; [0x2800] = 0x50004080
        0x000025ea:    6011        .`      STR      r1,[r2,#0]
        0x000025ec:    e01e        ..      B        0x262c ; Init_PWM + 500
        0x000025ee:    2105        .!      MOVS     r1,#5
        0x000025f0:    0709        ..      LSLS     r1,r1,#28
        0x000025f2:    6b89        .k      LDR      r1,[r1,#0x38]
        0x000025f4:    4a89        .J      LDR      r2,[pc,#548] ; [0x281c] = 0xffff7f7f
        0x000025f6:    4011        .@      ANDS     r1,r1,r2
        0x000025f8:    2205        ."      MOVS     r2,#5
        0x000025fa:    0712        ..      LSLS     r2,r2,#28
        0x000025fc:    6391        .c      STR      r1,[r2,#0x38]
        0x000025fe:    4611        .F      MOV      r1,r2
        0x00002600:    6b89        .k      LDR      r1,[r1,#0x38]
        0x00002602:    2201        ."      MOVS     r2,#1
        0x00002604:    03d2        ..      LSLS     r2,r2,#15
        0x00002606:    4311        .C      ORRS     r1,r1,r2
        0x00002608:    2205        ."      MOVS     r2,#5
        0x0000260a:    0712        ..      LSLS     r2,r2,#28
        0x0000260c:    6391        .c      STR      r1,[r2,#0x38]
        0x0000260e:    497c        |I      LDR      r1,[pc,#496] ; [0x2800] = 0x50004080
        0x00002610:    6809        .h      LDR      r1,[r1,#0]
        0x00002612:    2203        ."      MOVS     r2,#3
        0x00002614:    0392        ..      LSLS     r2,r2,#14
        0x00002616:    4391        .C      BICS     r1,r1,r2
        0x00002618:    4a79        yJ      LDR      r2,[pc,#484] ; [0x2800] = 0x50004080
        0x0000261a:    6011        .`      STR      r1,[r2,#0]
        0x0000261c:    4611        .F      MOV      r1,r2
        0x0000261e:    6809        .h      LDR      r1,[r1,#0]
        0x00002620:    2201        ."      MOVS     r2,#1
        0x00002622:    0392        ..      LSLS     r2,r2,#14
        0x00002624:    4311        .C      ORRS     r1,r1,r2
        0x00002626:    4a76        vJ      LDR      r2,[pc,#472] ; [0x2800] = 0x50004080
        0x00002628:    6011        .`      STR      r1,[r2,#0]
        0x0000262a:    bf00        ..      NOP      
        0x0000262c:    bf00        ..      NOP      
        0x0000262e:    2800        .(      CMP      r0,#0
        0x00002630:    d101        ..      BNE      0x2636 ; Init_PWM + 510
        0x00002632:    2101        .!      MOVS     r1,#1
        0x00002634:    e000        ..      B        0x2638 ; Init_PWM + 512
        0x00002636:    2100        .!      MOVS     r1,#0
        0x00002638:    2801        .(      CMP      r0,#1
        0x0000263a:    d101        ..      BNE      0x2640 ; Init_PWM + 520
        0x0000263c:    2201        ."      MOVS     r2,#1
        0x0000263e:    e000        ..      B        0x2642 ; Init_PWM + 522
        0x00002640:    2200        ."      MOVS     r2,#0
        0x00002642:    4311        .C      ORRS     r1,r1,r2
        0x00002644:    d006        ..      BEQ      0x2654 ; Init_PWM + 540
        0x00002646:    4976        vI      LDR      r1,[pc,#472] ; [0x2820] = 0x50000200
        0x00002648:    6889        .h      LDR      r1,[r1,#8]
        0x0000264a:    2201        ."      MOVS     r2,#1
        0x0000264c:    0512        ..      LSLS     r2,r2,#20
        0x0000264e:    4311        .C      ORRS     r1,r1,r2
        0x00002650:    4a73        sJ      LDR      r2,[pc,#460] ; [0x2820] = 0x50000200
        0x00002652:    6091        .`      STR      r1,[r2,#8]
        0x00002654:    2802        .(      CMP      r0,#2
        0x00002656:    d101        ..      BNE      0x265c ; Init_PWM + 548
        0x00002658:    2101        .!      MOVS     r1,#1
        0x0000265a:    e000        ..      B        0x265e ; Init_PWM + 550
        0x0000265c:    2100        .!      MOVS     r1,#0
        0x0000265e:    2803        .(      CMP      r0,#3
        0x00002660:    d101        ..      BNE      0x2666 ; Init_PWM + 558
        0x00002662:    2201        ."      MOVS     r2,#1
        0x00002664:    e000        ..      B        0x2668 ; Init_PWM + 560
        0x00002666:    2200        ."      MOVS     r2,#0
        0x00002668:    4311        .C      ORRS     r1,r1,r2
        0x0000266a:    d006        ..      BEQ      0x267a ; Init_PWM + 578
        0x0000266c:    496c        lI      LDR      r1,[pc,#432] ; [0x2820] = 0x50000200
        0x0000266e:    6889        .h      LDR      r1,[r1,#8]
        0x00002670:    2201        ."      MOVS     r2,#1
        0x00002672:    0552        R.      LSLS     r2,r2,#21
        0x00002674:    4311        .C      ORRS     r1,r1,r2
        0x00002676:    4a6a        jJ      LDR      r2,[pc,#424] ; [0x2820] = 0x50000200
        0x00002678:    6091        .`      STR      r1,[r2,#8]
        0x0000267a:    2804        .(      CMP      r0,#4
        0x0000267c:    d101        ..      BNE      0x2682 ; Init_PWM + 586
        0x0000267e:    2101        .!      MOVS     r1,#1
        0x00002680:    e000        ..      B        0x2684 ; Init_PWM + 588
        0x00002682:    2100        .!      MOVS     r1,#0
        0x00002684:    2805        .(      CMP      r0,#5
        0x00002686:    d101        ..      BNE      0x268c ; Init_PWM + 596
        0x00002688:    2201        ."      MOVS     r2,#1
        0x0000268a:    e000        ..      B        0x268e ; Init_PWM + 598
        0x0000268c:    2200        ."      MOVS     r2,#0
        0x0000268e:    4311        .C      ORRS     r1,r1,r2
        0x00002690:    d006        ..      BEQ      0x26a0 ; Init_PWM + 616
        0x00002692:    4963        cI      LDR      r1,[pc,#396] ; [0x2820] = 0x50000200
        0x00002694:    6889        .h      LDR      r1,[r1,#8]
        0x00002696:    2201        ."      MOVS     r2,#1
        0x00002698:    0592        ..      LSLS     r2,r2,#22
        0x0000269a:    4311        .C      ORRS     r1,r1,r2
        0x0000269c:    4a60        `J      LDR      r2,[pc,#384] ; [0x2820] = 0x50000200
        0x0000269e:    6091        .`      STR      r1,[r2,#8]
        0x000026a0:    2806        .(      CMP      r0,#6
        0x000026a2:    d101        ..      BNE      0x26a8 ; Init_PWM + 624
        0x000026a4:    2101        .!      MOVS     r1,#1
        0x000026a6:    e000        ..      B        0x26aa ; Init_PWM + 626
        0x000026a8:    2100        .!      MOVS     r1,#0
        0x000026aa:    2807        .(      CMP      r0,#7
        0x000026ac:    d101        ..      BNE      0x26b2 ; Init_PWM + 634
        0x000026ae:    2201        ."      MOVS     r2,#1
        0x000026b0:    e000        ..      B        0x26b4 ; Init_PWM + 636
        0x000026b2:    2200        ."      MOVS     r2,#0
        0x000026b4:    4311        .C      ORRS     r1,r1,r2
        0x000026b6:    d006        ..      BEQ      0x26c6 ; Init_PWM + 654
        0x000026b8:    4959        YI      LDR      r1,[pc,#356] ; [0x2820] = 0x50000200
        0x000026ba:    6889        .h      LDR      r1,[r1,#8]
        0x000026bc:    2201        ."      MOVS     r2,#1
        0x000026be:    05d2        ..      LSLS     r2,r2,#23
        0x000026c0:    4311        .C      ORRS     r1,r1,r2
        0x000026c2:    4a57        WJ      LDR      r2,[pc,#348] ; [0x2820] = 0x50000200
        0x000026c4:    6091        .`      STR      r1,[r2,#8]
        0x000026c6:    17c1        ..      ASRS     r1,r0,#31
        0x000026c8:    1c49        I.      ADDS     r1,r1,#1
        0x000026ca:    2803        .(      CMP      r0,#3
        0x000026cc:    dc01        ..      BGT      0x26d2 ; Init_PWM + 666
        0x000026ce:    2201        ."      MOVS     r2,#1
        0x000026d0:    e000        ..      B        0x26d4 ; Init_PWM + 668
        0x000026d2:    2200        ."      MOVS     r2,#0
        0x000026d4:    4211        .B      TST      r1,r2
        0x000026d6:    d031        1.      BEQ      0x273c ; Init_PWM + 772
        0x000026d8:    4951        QI      LDR      r1,[pc,#324] ; [0x2820] = 0x50000200
        0x000026da:    6949        Ii      LDR      r1,[r1,#0x14]
        0x000026dc:    220f        ."      MOVS     r2,#0xf
        0x000026de:    0712        ..      LSLS     r2,r2,#28
        0x000026e0:    4311        .C      ORRS     r1,r1,r2
        0x000026e2:    4a4f        OJ      LDR      r2,[pc,#316] ; [0x2820] = 0x50000200
        0x000026e4:    6151        Qa      STR      r1,[r2,#0x14]
        0x000026e6:    494f        OI      LDR      r1,[pc,#316] ; [0x2824] = 0x40040000
        0x000026e8:    6809        .h      LDR      r1,[r1,#0]
        0x000026ea:    4a4f        OJ      LDR      r2,[pc,#316] ; [0x2828] = 0xc8ff0101
        0x000026ec:    4311        .C      ORRS     r1,r1,r2
        0x000026ee:    4a4d        MJ      LDR      r2,[pc,#308] ; [0x2824] = 0x40040000
        0x000026f0:    6011        .`      STR      r1,[r2,#0]
        0x000026f2:    4611        .F      MOV      r1,r2
        0x000026f4:    6849        Ih      LDR      r1,[r1,#4]
        0x000026f6:    4a4d        MJ      LDR      r2,[pc,#308] ; [0x282c] = 0x4444
        0x000026f8:    4311        .C      ORRS     r1,r1,r2
        0x000026fa:    4a4a        JJ      LDR      r2,[pc,#296] ; [0x2824] = 0x40040000
        0x000026fc:    6051        Q`      STR      r1,[r2,#4]
        0x000026fe:    4611        .F      MOV      r1,r2
        0x00002700:    6889        .h      LDR      r1,[r1,#8]
        0x00002702:    4a4b        KJ      LDR      r2,[pc,#300] ; [0x2830] = 0x8080808
        0x00002704:    4311        .C      ORRS     r1,r1,r2
        0x00002706:    4a47        GJ      LDR      r2,[pc,#284] ; [0x2824] = 0x40040000
        0x00002708:    6091        .`      STR      r1,[r2,#8]
        0x0000270a:    2145        E!      MOVS     r1,#0x45
        0x0000270c:    00c9        ..      LSLS     r1,r1,#3
        0x0000270e:    6311        .c      STR      r1,[r2,#0x30]
        0x00002710:    6251        Qb      STR      r1,[r2,#0x24]
        0x00002712:    6191        .a      STR      r1,[r2,#0x18]
        0x00002714:    60d1        .`      STR      r1,[r2,#0xc]
        0x00002716:    2100        .!      MOVS     r1,#0
        0x00002718:    6111        .a      STR      r1,[r2,#0x10]
        0x0000271a:    61d1        .a      STR      r1,[r2,#0x1c]
        0x0000271c:    6291        .b      STR      r1,[r2,#0x28]
        0x0000271e:    6351        Qc      STR      r1,[r2,#0x34]
        0x00002720:    4940        @I      LDR      r1,[pc,#256] ; [0x2824] = 0x40040000
        0x00002722:    3140        @1      ADDS     r1,r1,#0x40
        0x00002724:    6bc9        .k      LDR      r1,[r1,#0x3c]
        0x00002726:    220f        ."      MOVS     r2,#0xf
        0x00002728:    4311        .C      ORRS     r1,r1,r2
        0x0000272a:    4a3e        >J      LDR      r2,[pc,#248] ; [0x2824] = 0x40040000
        0x0000272c:    3240        @2      ADDS     r2,r2,#0x40
        0x0000272e:    63d1        .c      STR      r1,[r2,#0x3c]
        0x00002730:    0311        ..      LSLS     r1,r2,#12
        0x00002732:    6889        .h      LDR      r1,[r1,#8]
        0x00002734:    4a3f        ?J      LDR      r2,[pc,#252] ; [0x2834] = 0x1010101
        0x00002736:    4311        .C      ORRS     r1,r1,r2
        0x00002738:    4a3a        :J      LDR      r2,[pc,#232] ; [0x2824] = 0x40040000
        0x0000273a:    6091        .`      STR      r1,[r2,#8]
        0x0000273c:    2804        .(      CMP      r0,#4
        0x0000273e:    db01        ..      BLT      0x2744 ; Init_PWM + 780
        0x00002740:    2101        .!      MOVS     r1,#1
        0x00002742:    e000        ..      B        0x2746 ; Init_PWM + 782
        0x00002744:    2100        .!      MOVS     r1,#0
        0x00002746:    2807        .(      CMP      r0,#7
        0x00002748:    dc01        ..      BGT      0x274e ; Init_PWM + 790
        0x0000274a:    2201        ."      MOVS     r2,#1
        0x0000274c:    e000        ..      B        0x2750 ; Init_PWM + 792
        0x0000274e:    2200        ."      MOVS     r2,#0
        0x00002750:    4211        .B      TST      r1,r2
        0x00002752:    d030        0.      BEQ      0x27b6 ; Init_PWM + 894
        0x00002754:    4932        2I      LDR      r1,[pc,#200] ; [0x2820] = 0x50000200
        0x00002756:    69c9        .i      LDR      r1,[r1,#0x1c]
        0x00002758:    22f0        ."      MOVS     r2,#0xf0
        0x0000275a:    4311        .C      ORRS     r1,r1,r2
        0x0000275c:    4a30        0J      LDR      r2,[pc,#192] ; [0x2820] = 0x50000200
        0x0000275e:    61d1        .a      STR      r1,[r2,#0x1c]
        0x00002760:    4935        5I      LDR      r1,[pc,#212] ; [0x2838] = 0x40140000
        0x00002762:    6809        .h      LDR      r1,[r1,#0]
        0x00002764:    4a30        0J      LDR      r2,[pc,#192] ; [0x2828] = 0xc8ff0101
        0x00002766:    4311        .C      ORRS     r1,r1,r2
        0x00002768:    4a33        3J      LDR      r2,[pc,#204] ; [0x2838] = 0x40140000
        0x0000276a:    6011        .`      STR      r1,[r2,#0]
        0x0000276c:    4611        .F      MOV      r1,r2
        0x0000276e:    6849        Ih      LDR      r1,[r1,#4]
        0x00002770:    4a2e        .J      LDR      r2,[pc,#184] ; [0x282c] = 0x4444
        0x00002772:    4311        .C      ORRS     r1,r1,r2
        0x00002774:    4a30        0J      LDR      r2,[pc,#192] ; [0x2838] = 0x40140000
        0x00002776:    6051        Q`      STR      r1,[r2,#4]
        0x00002778:    4611        .F      MOV      r1,r2
        0x0000277a:    6889        .h      LDR      r1,[r1,#8]
        0x0000277c:    4a2c        ,J      LDR      r2,[pc,#176] ; [0x2830] = 0x8080808
        0x0000277e:    4311        .C      ORRS     r1,r1,r2
        0x00002780:    4a2d        -J      LDR      r2,[pc,#180] ; [0x2838] = 0x40140000
        0x00002782:    6091        .`      STR      r1,[r2,#8]
        0x00002784:    2145        E!      MOVS     r1,#0x45
        0x00002786:    00c9        ..      LSLS     r1,r1,#3
        0x00002788:    6311        .c      STR      r1,[r2,#0x30]
        0x0000278a:    6251        Qb      STR      r1,[r2,#0x24]
        0x0000278c:    6191        .a      STR      r1,[r2,#0x18]
        0x0000278e:    60d1        .`      STR      r1,[r2,#0xc]
        0x00002790:    2100        .!      MOVS     r1,#0
        0x00002792:    6111        .a      STR      r1,[r2,#0x10]
        0x00002794:    61d1        .a      STR      r1,[r2,#0x1c]
        0x00002796:    6291        .b      STR      r1,[r2,#0x28]
        0x00002798:    6351        Qc      STR      r1,[r2,#0x34]
        0x0000279a:    4927        'I      LDR      r1,[pc,#156] ; [0x2838] = 0x40140000
        0x0000279c:    3140        @1      ADDS     r1,r1,#0x40
        0x0000279e:    6bc9        .k      LDR      r1,[r1,#0x3c]
        0x000027a0:    220f        ."      MOVS     r2,#0xf
        0x000027a2:    4311        .C      ORRS     r1,r1,r2
        0x000027a4:    4a24        $J      LDR      r2,[pc,#144] ; [0x2838] = 0x40140000
        0x000027a6:    3240        @2      ADDS     r2,r2,#0x40
        0x000027a8:    63d1        .c      STR      r1,[r2,#0x3c]
        0x000027aa:    4923        #I      LDR      r1,[pc,#140] ; [0x2838] = 0x40140000
        0x000027ac:    6889        .h      LDR      r1,[r1,#8]
        0x000027ae:    4a21        !J      LDR      r2,[pc,#132] ; [0x2834] = 0x1010101
        0x000027b0:    4311        .C      ORRS     r1,r1,r2
        0x000027b2:    4a21        !J      LDR      r2,[pc,#132] ; [0x2838] = 0x40140000
        0x000027b4:    6091        .`      STR      r1,[r2,#8]
        0x000027b6:    bd00        ..      POP      {pc}
    PWM_Write
        0x000027b8:    b500        ..      PUSH     {lr}
        0x000027ba:    0003        ..      MOVS     r3,r0
        0x000027bc:    f002fece    ....    BL       __ARM_common_switch8 ; 0x555c
    $d
        0x000027c0:    0b080508    ....    DCD    185074952
        0x000027c4:    1714110e    ....    DCD    387191054
        0x000027c8:    1d1a        ..      DCW    7450
    $t
        0x000027ca:    4a16        .J      LDR      r2,[pc,#88] ; [0x2824] = 0x40040000
        0x000027cc:    6111        .a      STR      r1,[r2,#0x10]
        0x000027ce:    e014        ..      B        0x27fa ; PWM_Write + 66
        0x000027d0:    4a14        .J      LDR      r2,[pc,#80] ; [0x2824] = 0x40040000
        0x000027d2:    61d1        .a      STR      r1,[r2,#0x1c]
        0x000027d4:    e011        ..      B        0x27fa ; PWM_Write + 66
        0x000027d6:    4a13        .J      LDR      r2,[pc,#76] ; [0x2824] = 0x40040000
        0x000027d8:    6291        .b      STR      r1,[r2,#0x28]
        0x000027da:    e00e        ..      B        0x27fa ; PWM_Write + 66
        0x000027dc:    4a11        .J      LDR      r2,[pc,#68] ; [0x2824] = 0x40040000
        0x000027de:    6351        Qc      STR      r1,[r2,#0x34]
        0x000027e0:    e00b        ..      B        0x27fa ; PWM_Write + 66
        0x000027e2:    4a15        .J      LDR      r2,[pc,#84] ; [0x2838] = 0x40140000
        0x000027e4:    6111        .a      STR      r1,[r2,#0x10]
        0x000027e6:    e008        ..      B        0x27fa ; PWM_Write + 66
        0x000027e8:    4a13        .J      LDR      r2,[pc,#76] ; [0x2838] = 0x40140000
        0x000027ea:    61d1        .a      STR      r1,[r2,#0x1c]
        0x000027ec:    e005        ..      B        0x27fa ; PWM_Write + 66
        0x000027ee:    4a12        .J      LDR      r2,[pc,#72] ; [0x2838] = 0x40140000
        0x000027f0:    6291        .b      STR      r1,[r2,#0x28]
        0x000027f2:    e002        ..      B        0x27fa ; PWM_Write + 66
        0x000027f4:    4a10        .J      LDR      r2,[pc,#64] ; [0x2838] = 0x40140000
        0x000027f6:    6351        Qc      STR      r1,[r2,#0x34]
        0x000027f8:    bf00        ..      NOP      
        0x000027fa:    bf00        ..      NOP      
        0x000027fc:    bd00        ..      POP      {pc}
    $d
        0x000027fe:    0000        ..      DCW    0
        0x00002800:    50004080    .@.P    DCD    1342193792
        0x00002804:    fffffdfd    ....    DCD    4294966781
        0x00002808:    fffffbfb    ....    DCD    4294966267
        0x0000280c:    fffff7f7    ....    DCD    4294965239
        0x00002810:    ffffefef    ....    DCD    4294963183
        0x00002814:    ffffdfdf    ....    DCD    4294959071
        0x00002818:    ffffbfbf    ....    DCD    4294950847
        0x0000281c:    ffff7f7f    ....    DCD    4294934399
        0x00002820:    50000200    ...P    DCD    1342177792
        0x00002824:    40040000    ...@    DCD    1074003968
        0x00002828:    c8ff0101    ....    DCD    3372155137
        0x0000282c:    00004444    DD..    DCD    17476
        0x00002830:    08080808    ....    DCD    134744072
        0x00002834:    01010101    ....    DCD    16843009
        0x00002838:    40140000    ...@    DCD    1075052544
    $t
    .text
    Init_Port4_Ext_Int
        0x0000283c:    48fc        .H      LDR      r0,[pc,#1008] ; [0x2c30] = 0x50000040
        0x0000283e:    6800        .h      LDR      r0,[r0,#0]
        0x00002840:    49fc        .I      LDR      r1,[pc,#1008] ; [0x2c34] = 0xffffefef
        0x00002842:    4008        .@      ANDS     r0,r0,r1
        0x00002844:    49fa        .I      LDR      r1,[pc,#1000] ; [0x2c30] = 0x50000040
        0x00002846:    6008        .`      STR      r0,[r1,#0]
        0x00002848:    4608        .F      MOV      r0,r1
        0x0000284a:    6800        .h      LDR      r0,[r0,#0]
        0x0000284c:    0389        ..      LSLS     r1,r1,#14
        0x0000284e:    4308        .C      ORRS     r0,r0,r1
        0x00002850:    49f7        .I      LDR      r1,[pc,#988] ; [0x2c30] = 0x50000040
        0x00002852:    6008        .`      STR      r0,[r1,#0]
        0x00002854:    48f8        .H      LDR      r0,[pc,#992] ; [0x2c38] = 0x50004100
        0x00002856:    6800        .h      LDR      r0,[r0,#0]
        0x00002858:    2103        .!      MOVS     r1,#3
        0x0000285a:    0209        ..      LSLS     r1,r1,#8
        0x0000285c:    4308        .C      ORRS     r0,r0,r1
        0x0000285e:    49f6        .I      LDR      r1,[pc,#984] ; [0x2c38] = 0x50004100
        0x00002860:    6008        .`      STR      r0,[r1,#0]
        0x00002862:    4608        .F      MOV      r0,r1
        0x00002864:    6980        .i      LDR      r0,[r0,#0x18]
        0x00002866:    2110        .!      MOVS     r1,#0x10
        0x00002868:    4388        .C      BICS     r0,r0,r1
        0x0000286a:    49f3        .I      LDR      r1,[pc,#972] ; [0x2c38] = 0x50004100
        0x0000286c:    6188        .a      STR      r0,[r1,#0x18]
        0x0000286e:    4608        .F      MOV      r0,r1
        0x00002870:    69c0        .i      LDR      r0,[r0,#0x1c]
        0x00002872:    2101        .!      MOVS     r1,#1
        0x00002874:    0509        ..      LSLS     r1,r1,#20
        0x00002876:    4308        .C      ORRS     r0,r0,r1
        0x00002878:    49ef        .I      LDR      r1,[pc,#956] ; [0x2c38] = 0x50004100
        0x0000287a:    61c8        .a      STR      r0,[r1,#0x1c]
        0x0000287c:    48ef        .H      LDR      r0,[pc,#956] ; [0x2c3c] = 0x50004280
        0x0000287e:    6900        .i      LDR      r0,[r0,#0x10]
        0x00002880:    2101        .!      MOVS     r1,#1
        0x00002882:    4308        .C      ORRS     r0,r0,r1
        0x00002884:    49ed        .I      LDR      r1,[pc,#948] ; [0x2c3c] = 0x50004280
        0x00002886:    6108        .a      STR      r0,[r1,#0x10]
        0x00002888:    48e9        .H      LDR      r0,[pc,#932] ; [0x2c30] = 0x50000040
        0x0000288a:    6800        .h      LDR      r0,[r0,#0]
        0x0000288c:    49ec        .I      LDR      r1,[pc,#944] ; [0x2c40] = 0xffffdfdf
        0x0000288e:    4008        .@      ANDS     r0,r0,r1
        0x00002890:    49e7        .I      LDR      r1,[pc,#924] ; [0x2c30] = 0x50000040
        0x00002892:    6008        .`      STR      r0,[r1,#0]
        0x00002894:    4608        .F      MOV      r0,r1
        0x00002896:    6800        .h      LDR      r0,[r0,#0]
        0x00002898:    03c9        ..      LSLS     r1,r1,#15
        0x0000289a:    4308        .C      ORRS     r0,r0,r1
        0x0000289c:    49e4        .I      LDR      r1,[pc,#912] ; [0x2c30] = 0x50000040
        0x0000289e:    6008        .`      STR      r0,[r1,#0]
        0x000028a0:    48e5        .H      LDR      r0,[pc,#916] ; [0x2c38] = 0x50004100
        0x000028a2:    6800        .h      LDR      r0,[r0,#0]
        0x000028a4:    2103        .!      MOVS     r1,#3
        0x000028a6:    0289        ..      LSLS     r1,r1,#10
        0x000028a8:    4308        .C      ORRS     r0,r0,r1
        0x000028aa:    49e3        .I      LDR      r1,[pc,#908] ; [0x2c38] = 0x50004100
        0x000028ac:    6008        .`      STR      r0,[r1,#0]
        0x000028ae:    4608        .F      MOV      r0,r1
        0x000028b0:    6980        .i      LDR      r0,[r0,#0x18]
        0x000028b2:    2120         !      MOVS     r1,#0x20
        0x000028b4:    4388        .C      BICS     r0,r0,r1
        0x000028b6:    49e0        .I      LDR      r1,[pc,#896] ; [0x2c38] = 0x50004100
        0x000028b8:    6188        .a      STR      r0,[r1,#0x18]
        0x000028ba:    4608        .F      MOV      r0,r1
        0x000028bc:    69c0        .i      LDR      r0,[r0,#0x1c]
        0x000028be:    2101        .!      MOVS     r1,#1
        0x000028c0:    0549        I.      LSLS     r1,r1,#21
        0x000028c2:    4308        .C      ORRS     r0,r0,r1
        0x000028c4:    49dc        .I      LDR      r1,[pc,#880] ; [0x2c38] = 0x50004100
        0x000028c6:    61c8        .a      STR      r0,[r1,#0x1c]
        0x000028c8:    48dc        .H      LDR      r0,[pc,#880] ; [0x2c3c] = 0x50004280
        0x000028ca:    6940        @i      LDR      r0,[r0,#0x14]
        0x000028cc:    2101        .!      MOVS     r1,#1
        0x000028ce:    4308        .C      ORRS     r0,r0,r1
        0x000028d0:    49da        .I      LDR      r1,[pc,#872] ; [0x2c3c] = 0x50004280
        0x000028d2:    6148        Ha      STR      r0,[r1,#0x14]
        0x000028d4:    48db        .H      LDR      r0,[pc,#876] ; [0x2c44] = 0xe000e100
        0x000028d6:    6800        .h      LDR      r0,[r0,#0]
        0x000028d8:    2120         !      MOVS     r1,#0x20
        0x000028da:    4308        .C      ORRS     r0,r0,r1
        0x000028dc:    49d9        .I      LDR      r1,[pc,#868] ; [0x2c44] = 0xe000e100
        0x000028de:    6008        .`      STR      r0,[r1,#0]
        0x000028e0:    4770        pG      BX       lr
    Init_Port0_Ext_Int
        0x000028e2:    2005        .       MOVS     r0,#5
        0x000028e4:    0700        ..      LSLS     r0,r0,#28
        0x000028e6:    6b00        .k      LDR      r0,[r0,#0x30]
        0x000028e8:    49d7        .I      LDR      r1,[pc,#860] ; [0x2c48] = 0xfffffdfd
        0x000028ea:    4008        .@      ANDS     r0,r0,r1
        0x000028ec:    2105        .!      MOVS     r1,#5
        0x000028ee:    0709        ..      LSLS     r1,r1,#28
        0x000028f0:    6308        .c      STR      r0,[r1,#0x30]
        0x000028f2:    4608        .F      MOV      r0,r1
        0x000028f4:    6b00        .k      LDR      r0,[r0,#0x30]
        0x000028f6:    2101        .!      MOVS     r1,#1
        0x000028f8:    0449        I.      LSLS     r1,r1,#17
        0x000028fa:    4308        .C      ORRS     r0,r0,r1
        0x000028fc:    2105        .!      MOVS     r1,#5
        0x000028fe:    0709        ..      LSLS     r1,r1,#28
        0x00002900:    6308        .c      STR      r0,[r1,#0x30]
        0x00002902:    48d2        .H      LDR      r0,[pc,#840] ; [0x2c4c] = 0x50004000
        0x00002904:    6800        .h      LDR      r0,[r0,#0]
        0x00002906:    210c        .!      MOVS     r1,#0xc
        0x00002908:    4308        .C      ORRS     r0,r0,r1
        0x0000290a:    49d0        .I      LDR      r1,[pc,#832] ; [0x2c4c] = 0x50004000
        0x0000290c:    6008        .`      STR      r0,[r1,#0]
        0x0000290e:    4608        .F      MOV      r0,r1
        0x00002910:    6980        .i      LDR      r0,[r0,#0x18]
        0x00002912:    2102        .!      MOVS     r1,#2
        0x00002914:    4388        .C      BICS     r0,r0,r1
        0x00002916:    49cd        .I      LDR      r1,[pc,#820] ; [0x2c4c] = 0x50004000
        0x00002918:    6188        .a      STR      r0,[r1,#0x18]
        0x0000291a:    4608        .F      MOV      r0,r1
        0x0000291c:    69c0        .i      LDR      r0,[r0,#0x1c]
        0x0000291e:    2101        .!      MOVS     r1,#1
        0x00002920:    0449        I.      LSLS     r1,r1,#17
        0x00002922:    4308        .C      ORRS     r0,r0,r1
        0x00002924:    49c9        .I      LDR      r1,[pc,#804] ; [0x2c4c] = 0x50004000
        0x00002926:    61c8        .a      STR      r0,[r1,#0x1c]
        0x00002928:    48c4        .H      LDR      r0,[pc,#784] ; [0x2c3c] = 0x50004280
        0x0000292a:    3880        .8      SUBS     r0,r0,#0x80
        0x0000292c:    6840        @h      LDR      r0,[r0,#4]
        0x0000292e:    2101        .!      MOVS     r1,#1
        0x00002930:    4308        .C      ORRS     r0,r0,r1
        0x00002932:    49c2        .I      LDR      r1,[pc,#776] ; [0x2c3c] = 0x50004280
        0x00002934:    3980        .9      SUBS     r1,r1,#0x80
        0x00002936:    6048        H`      STR      r0,[r1,#4]
        0x00002938:    48c2        .H      LDR      r0,[pc,#776] ; [0x2c44] = 0xe000e100
        0x0000293a:    6800        .h      LDR      r0,[r0,#0]
        0x0000293c:    2110        .!      MOVS     r1,#0x10
        0x0000293e:    4308        .C      ORRS     r0,r0,r1
        0x00002940:    49c0        .I      LDR      r1,[pc,#768] ; [0x2c44] = 0xe000e100
        0x00002942:    6008        .`      STR      r0,[r1,#0]
        0x00002944:    4770        pG      BX       lr
    Init_Encoders
        0x00002946:    b500        ..      PUSH     {lr}
        0x00002948:    f7ffffcb    ....    BL       Init_Port0_Ext_Int ; 0x28e2
        0x0000294c:    f7ffff76    ..v.    BL       Init_Port4_Ext_Int ; 0x283c
        0x00002950:    bd00        ..      POP      {pc}
    Encoder_Update
        0x00002952:    b570        p.      PUSH     {r4-r6,lr}
        0x00002954:    48be        .H      LDR      r0,[pc,#760] ; [0x2c50] = 0x20000110
        0x00002956:    6801        .h      LDR      r1,[r0,#0]
        0x00002958:    48be        .H      LDR      r0,[pc,#760] ; [0x2c54] = 0x2000010c
        0x0000295a:    6800        .h      LDR      r0,[r0,#0]
        0x0000295c:    f003fbe0    ....    BL       __aeabi_fadd ; 0x6120
        0x00002960:    4605        .F      MOV      r5,r0
        0x00002962:    2101        .!      MOVS     r1,#1
        0x00002964:    0789        ..      LSLS     r1,r1,#30
        0x00002966:    f001fd21    ..!.    BL       __aeabi_fdiv ; 0x43ac
        0x0000296a:    4604        .F      MOV      r4,r0
        0x0000296c:    4620         F      MOV      r0,r4
        0x0000296e:    bd70        p.      POP      {r4-r6,pc}
    reset_Encoder
        0x00002970:    2000        .       MOVS     r0,#0
        0x00002972:    49b8        .I      LDR      r1,[pc,#736] ; [0x2c54] = 0x2000010c
        0x00002974:    6008        .`      STR      r0,[r1,#0]
        0x00002976:    49b6        .I      LDR      r1,[pc,#728] ; [0x2c50] = 0x20000110
        0x00002978:    6008        .`      STR      r0,[r1,#0]
        0x0000297a:    4770        pG      BX       lr
    encVelWMA_R
        0x0000297c:    b5f0        ..      PUSH     {r4-r7,lr}
        0x0000297e:    b08d        ..      SUB      sp,sp,#0x34
        0x00002980:    48b5        .H      LDR      r0,[pc,#724] ; [0x2c58] = 0x200003b0
        0x00002982:    6881        .h      LDR      r1,[r0,#8]
        0x00002984:    48b2        .H      LDR      r0,[pc,#712] ; [0x2c50] = 0x20000110
        0x00002986:    6800        .h      LDR      r0,[r0,#0]
        0x00002988:    f003fce8    ....    BL       __aeabi_fsub ; 0x635c
        0x0000298c:    4606        .F      MOV      r6,r0
        0x0000298e:    f001fce1    ....    BL       __aeabi_f2d ; 0x4354
        0x00002992:    4604        .F      MOV      r4,r0
        0x00002994:    4ab1        .J      LDR      r2,[pc,#708] ; [0x2c5c] = 0xeb851eb8
        0x00002996:    4bb2        .K      LDR      r3,[pc,#712] ; [0x2c60] = 0x3f9eb851
        0x00002998:    f001f95e    ..^.    BL       __aeabi_ddiv ; 0x3c58
        0x0000299c:    9107        ..      STR      r1,[sp,#0x1c]
        0x0000299e:    9006        ..      STR      r0,[sp,#0x18]
        0x000029a0:    48ad        .H      LDR      r0,[pc,#692] ; [0x2c58] = 0x200003b0
        0x000029a2:    6841        Ah      LDR      r1,[r0,#4]
        0x000029a4:    48aa        .H      LDR      r0,[pc,#680] ; [0x2c50] = 0x20000110
        0x000029a6:    6800        .h      LDR      r0,[r0,#0]
        0x000029a8:    f003fcd8    ....    BL       __aeabi_fsub ; 0x635c
        0x000029ac:    4607        .F      MOV      r7,r0
        0x000029ae:    2101        .!      MOVS     r1,#1
        0x000029b0:    0789        ..      LSLS     r1,r1,#30
        0x000029b2:    f003fc4f    ..O.    BL       __aeabi_fmul ; 0x6254
        0x000029b6:    4604        .F      MOV      r4,r0
        0x000029b8:    f001fccc    ....    BL       __aeabi_f2d ; 0x4354
        0x000029bc:    4605        .F      MOV      r5,r0
        0x000029be:    4aa9        .J      LDR      r2,[pc,#676] ; [0x2c64] = 0x47ae147b
        0x000029c0:    4ba9        .K      LDR      r3,[pc,#676] ; [0x2c68] = 0x3f947ae1
        0x000029c2:    f001f949    ..I.    BL       __aeabi_ddiv ; 0x3c58
        0x000029c6:    9103        ..      STR      r1,[sp,#0xc]
        0x000029c8:    9002        ..      STR      r0,[sp,#8]
        0x000029ca:    48a3        .H      LDR      r0,[pc,#652] ; [0x2c58] = 0x200003b0
        0x000029cc:    6801        .h      LDR      r1,[r0,#0]
        0x000029ce:    48a0        .H      LDR      r0,[pc,#640] ; [0x2c50] = 0x20000110
        0x000029d0:    6800        .h      LDR      r0,[r0,#0]
        0x000029d2:    f003fcc3    ....    BL       __aeabi_fsub ; 0x635c
        0x000029d6:    4607        .F      MOV      r7,r0
        0x000029d8:    2181        .!      MOVS     r1,#0x81
        0x000029da:    05c9        ..      LSLS     r1,r1,#23
        0x000029dc:    f003fc3a    ..:.    BL       __aeabi_fmul ; 0x6254
        0x000029e0:    4604        .F      MOV      r4,r0
        0x000029e2:    f001fcb7    ....    BL       __aeabi_f2d ; 0x4354
        0x000029e6:    4605        .F      MOV      r5,r0
        0x000029e8:    4a9e        .J      LDR      r2,[pc,#632] ; [0x2c64] = 0x47ae147b
        0x000029ea:    4ba0        .K      LDR      r3,[pc,#640] ; [0x2c6c] = 0x3f847ae1
        0x000029ec:    f001f934    ..4.    BL       __aeabi_ddiv ; 0x3c58
        0x000029f0:    9101        ..      STR      r1,[sp,#4]
        0x000029f2:    9000        ..      STR      r0,[sp,#0]
        0x000029f4:    9b03        ..      LDR      r3,[sp,#0xc]
        0x000029f6:    9a02        ..      LDR      r2,[sp,#8]
        0x000029f8:    f001f901    ....    BL       __aeabi_dadd ; 0x3bfe
        0x000029fc:    9105        ..      STR      r1,[sp,#0x14]
        0x000029fe:    9004        ..      STR      r0,[sp,#0x10]
        0x00002a00:    9b07        ..      LDR      r3,[sp,#0x1c]
        0x00002a02:    9a06        ..      LDR      r2,[sp,#0x18]
        0x00002a04:    f001f8fb    ....    BL       __aeabi_dadd ; 0x3bfe
        0x00002a08:    2200        ."      MOVS     r2,#0
        0x00002a0a:    4b99        .K      LDR      r3,[pc,#612] ; [0x2c70] = 0x401c0000
        0x00002a0c:    9109        ..      STR      r1,[sp,#0x24]
        0x00002a0e:    9008        ..      STR      r0,[sp,#0x20]
        0x00002a10:    f001f922    ..".    BL       __aeabi_ddiv ; 0x3c58
        0x00002a14:    910b        ..      STR      r1,[sp,#0x2c]
        0x00002a16:    900a        ..      STR      r0,[sp,#0x28]
        0x00002a18:    f000ff3a    ..:.    BL       __aeabi_d2f ; 0x3890
        0x00002a1c:    4995        .I      LDR      r1,[pc,#596] ; [0x2c74] = 0x20000128
        0x00002a1e:    6008        .`      STR      r0,[r1,#0]
        0x00002a20:    488d        .H      LDR      r0,[pc,#564] ; [0x2c58] = 0x200003b0
        0x00002a22:    6840        @h      LDR      r0,[r0,#4]
        0x00002a24:    498c        .I      LDR      r1,[pc,#560] ; [0x2c58] = 0x200003b0
        0x00002a26:    6088        .`      STR      r0,[r1,#8]
        0x00002a28:    4608        .F      MOV      r0,r1
        0x00002a2a:    6800        .h      LDR      r0,[r0,#0]
        0x00002a2c:    6048        H`      STR      r0,[r1,#4]
        0x00002a2e:    4888        .H      LDR      r0,[pc,#544] ; [0x2c50] = 0x20000110
        0x00002a30:    6800        .h      LDR      r0,[r0,#0]
        0x00002a32:    6008        .`      STR      r0,[r1,#0]
        0x00002a34:    488f        .H      LDR      r0,[pc,#572] ; [0x2c74] = 0x20000128
        0x00002a36:    6800        .h      LDR      r0,[r0,#0]
        0x00002a38:    b00d        ..      ADD      sp,sp,#0x34
        0x00002a3a:    bdf0        ..      POP      {r4-r7,pc}
    encVelWMA_L
        0x00002a3c:    b5f0        ..      PUSH     {r4-r7,lr}
        0x00002a3e:    b08d        ..      SUB      sp,sp,#0x34
        0x00002a40:    488d        .H      LDR      r0,[pc,#564] ; [0x2c78] = 0x200003a4
        0x00002a42:    6881        .h      LDR      r1,[r0,#8]
        0x00002a44:    4883        .H      LDR      r0,[pc,#524] ; [0x2c54] = 0x2000010c
        0x00002a46:    6800        .h      LDR      r0,[r0,#0]
        0x00002a48:    f003fc88    ....    BL       __aeabi_fsub ; 0x635c
        0x00002a4c:    4606        .F      MOV      r6,r0
        0x00002a4e:    f001fc81    ....    BL       __aeabi_f2d ; 0x4354
        0x00002a52:    4604        .F      MOV      r4,r0
        0x00002a54:    4a81        .J      LDR      r2,[pc,#516] ; [0x2c5c] = 0xeb851eb8
        0x00002a56:    4b82        .K      LDR      r3,[pc,#520] ; [0x2c60] = 0x3f9eb851
        0x00002a58:    f001f8fe    ....    BL       __aeabi_ddiv ; 0x3c58
        0x00002a5c:    9107        ..      STR      r1,[sp,#0x1c]
        0x00002a5e:    9006        ..      STR      r0,[sp,#0x18]
        0x00002a60:    4885        .H      LDR      r0,[pc,#532] ; [0x2c78] = 0x200003a4
        0x00002a62:    6841        Ah      LDR      r1,[r0,#4]
        0x00002a64:    487b        {H      LDR      r0,[pc,#492] ; [0x2c54] = 0x2000010c
        0x00002a66:    6800        .h      LDR      r0,[r0,#0]
        0x00002a68:    f003fc78    ..x.    BL       __aeabi_fsub ; 0x635c
        0x00002a6c:    4607        .F      MOV      r7,r0
        0x00002a6e:    2101        .!      MOVS     r1,#1
        0x00002a70:    0789        ..      LSLS     r1,r1,#30
        0x00002a72:    f003fbef    ....    BL       __aeabi_fmul ; 0x6254
        0x00002a76:    4604        .F      MOV      r4,r0
        0x00002a78:    f001fc6c    ..l.    BL       __aeabi_f2d ; 0x4354
        0x00002a7c:    4605        .F      MOV      r5,r0
        0x00002a7e:    4a79        yJ      LDR      r2,[pc,#484] ; [0x2c64] = 0x47ae147b
        0x00002a80:    4b79        yK      LDR      r3,[pc,#484] ; [0x2c68] = 0x3f947ae1
        0x00002a82:    f001f8e9    ....    BL       __aeabi_ddiv ; 0x3c58
        0x00002a86:    9103        ..      STR      r1,[sp,#0xc]
        0x00002a88:    9002        ..      STR      r0,[sp,#8]
        0x00002a8a:    487b        {H      LDR      r0,[pc,#492] ; [0x2c78] = 0x200003a4
        0x00002a8c:    6801        .h      LDR      r1,[r0,#0]
        0x00002a8e:    4871        qH      LDR      r0,[pc,#452] ; [0x2c54] = 0x2000010c
        0x00002a90:    6800        .h      LDR      r0,[r0,#0]
        0x00002a92:    f003fc63    ..c.    BL       __aeabi_fsub ; 0x635c
        0x00002a96:    4607        .F      MOV      r7,r0
        0x00002a98:    2181        .!      MOVS     r1,#0x81
        0x00002a9a:    05c9        ..      LSLS     r1,r1,#23
        0x00002a9c:    f003fbda    ....    BL       __aeabi_fmul ; 0x6254
        0x00002aa0:    4604        .F      MOV      r4,r0
        0x00002aa2:    f001fc57    ..W.    BL       __aeabi_f2d ; 0x4354
        0x00002aa6:    4605        .F      MOV      r5,r0
        0x00002aa8:    4a6e        nJ      LDR      r2,[pc,#440] ; [0x2c64] = 0x47ae147b
        0x00002aaa:    4b70        pK      LDR      r3,[pc,#448] ; [0x2c6c] = 0x3f847ae1
        0x00002aac:    f001f8d4    ....    BL       __aeabi_ddiv ; 0x3c58
        0x00002ab0:    9101        ..      STR      r1,[sp,#4]
        0x00002ab2:    9000        ..      STR      r0,[sp,#0]
        0x00002ab4:    9b03        ..      LDR      r3,[sp,#0xc]
        0x00002ab6:    9a02        ..      LDR      r2,[sp,#8]
        0x00002ab8:    f001f8a1    ....    BL       __aeabi_dadd ; 0x3bfe
        0x00002abc:    9105        ..      STR      r1,[sp,#0x14]
        0x00002abe:    9004        ..      STR      r0,[sp,#0x10]
        0x00002ac0:    9b07        ..      LDR      r3,[sp,#0x1c]
        0x00002ac2:    9a06        ..      LDR      r2,[sp,#0x18]
        0x00002ac4:    f001f89b    ....    BL       __aeabi_dadd ; 0x3bfe
        0x00002ac8:    2200        ."      MOVS     r2,#0
        0x00002aca:    4b69        iK      LDR      r3,[pc,#420] ; [0x2c70] = 0x401c0000
        0x00002acc:    9109        ..      STR      r1,[sp,#0x24]
        0x00002ace:    9008        ..      STR      r0,[sp,#0x20]
        0x00002ad0:    f001f8c2    ....    BL       __aeabi_ddiv ; 0x3c58
        0x00002ad4:    910b        ..      STR      r1,[sp,#0x2c]
        0x00002ad6:    900a        ..      STR      r0,[sp,#0x28]
        0x00002ad8:    f000feda    ....    BL       __aeabi_d2f ; 0x3890
        0x00002adc:    4967        gI      LDR      r1,[pc,#412] ; [0x2c7c] = 0x20000124
        0x00002ade:    6008        .`      STR      r0,[r1,#0]
        0x00002ae0:    4865        eH      LDR      r0,[pc,#404] ; [0x2c78] = 0x200003a4
        0x00002ae2:    6840        @h      LDR      r0,[r0,#4]
        0x00002ae4:    4964        dI      LDR      r1,[pc,#400] ; [0x2c78] = 0x200003a4
        0x00002ae6:    6088        .`      STR      r0,[r1,#8]
        0x00002ae8:    4608        .F      MOV      r0,r1
        0x00002aea:    6800        .h      LDR      r0,[r0,#0]
        0x00002aec:    6048        H`      STR      r0,[r1,#4]
        0x00002aee:    4859        YH      LDR      r0,[pc,#356] ; [0x2c54] = 0x2000010c
        0x00002af0:    6800        .h      LDR      r0,[r0,#0]
        0x00002af2:    6008        .`      STR      r0,[r1,#0]
        0x00002af4:    4861        aH      LDR      r0,[pc,#388] ; [0x2c7c] = 0x20000124
        0x00002af6:    6800        .h      LDR      r0,[r0,#0]
        0x00002af8:    b00d        ..      ADD      sp,sp,#0x34
        0x00002afa:    bdf0        ..      POP      {r4-r7,pc}
    encVelWMA_B
        0x00002afc:    b5f0        ..      PUSH     {r4-r7,lr}
        0x00002afe:    b08f        ..      SUB      sp,sp,#0x3c
        0x00002b00:    485f        _H      LDR      r0,[pc,#380] ; [0x2c80] = 0x200003bc
        0x00002b02:    6881        .h      LDR      r1,[r0,#8]
        0x00002b04:    485f        _H      LDR      r0,[pc,#380] ; [0x2c84] = 0x20000114
        0x00002b06:    6800        .h      LDR      r0,[r0,#0]
        0x00002b08:    f003fc28    ..(.    BL       __aeabi_fsub ; 0x635c
        0x00002b0c:    4607        .F      MOV      r7,r0
        0x00002b0e:    f001fc21    ..!.    BL       __aeabi_f2d ; 0x4354
        0x00002b12:    4605        .F      MOV      r5,r0
        0x00002b14:    4a51        QJ      LDR      r2,[pc,#324] ; [0x2c5c] = 0xeb851eb8
        0x00002b16:    4b52        RK      LDR      r3,[pc,#328] ; [0x2c60] = 0x3f9eb851
        0x00002b18:    f001f89e    ....    BL       __aeabi_ddiv ; 0x3c58
        0x00002b1c:    9109        ..      STR      r1,[sp,#0x24]
        0x00002b1e:    9008        ..      STR      r0,[sp,#0x20]
        0x00002b20:    4857        WH      LDR      r0,[pc,#348] ; [0x2c80] = 0x200003bc
        0x00002b22:    6841        Ah      LDR      r1,[r0,#4]
        0x00002b24:    4857        WH      LDR      r0,[pc,#348] ; [0x2c84] = 0x20000114
        0x00002b26:    6800        .h      LDR      r0,[r0,#0]
        0x00002b28:    f003fc18    ....    BL       __aeabi_fsub ; 0x635c
        0x00002b2c:    2101        .!      MOVS     r1,#1
        0x00002b2e:    0789        ..      LSLS     r1,r1,#30
        0x00002b30:    9001        ..      STR      r0,[sp,#4]
        0x00002b32:    f003fb8f    ....    BL       __aeabi_fmul ; 0x6254
        0x00002b36:    4607        .F      MOV      r7,r0
        0x00002b38:    f001fc0c    ....    BL       __aeabi_f2d ; 0x4354
        0x00002b3c:    4605        .F      MOV      r5,r0
        0x00002b3e:    4a49        IJ      LDR      r2,[pc,#292] ; [0x2c64] = 0x47ae147b
        0x00002b40:    4b49        IK      LDR      r3,[pc,#292] ; [0x2c68] = 0x3f947ae1
        0x00002b42:    f001f889    ....    BL       __aeabi_ddiv ; 0x3c58
        0x00002b46:    9105        ..      STR      r1,[sp,#0x14]
        0x00002b48:    9004        ..      STR      r0,[sp,#0x10]
        0x00002b4a:    484d        MH      LDR      r0,[pc,#308] ; [0x2c80] = 0x200003bc
        0x00002b4c:    6801        .h      LDR      r1,[r0,#0]
        0x00002b4e:    484d        MH      LDR      r0,[pc,#308] ; [0x2c84] = 0x20000114
        0x00002b50:    6800        .h      LDR      r0,[r0,#0]
        0x00002b52:    f003fc03    ....    BL       __aeabi_fsub ; 0x635c
        0x00002b56:    2181        .!      MOVS     r1,#0x81
        0x00002b58:    05c9        ..      LSLS     r1,r1,#23
        0x00002b5a:    9001        ..      STR      r0,[sp,#4]
        0x00002b5c:    f003fb7a    ..z.    BL       __aeabi_fmul ; 0x6254
        0x00002b60:    4607        .F      MOV      r7,r0
        0x00002b62:    f001fbf7    ....    BL       __aeabi_f2d ; 0x4354
        0x00002b66:    4605        .F      MOV      r5,r0
        0x00002b68:    4a3e        >J      LDR      r2,[pc,#248] ; [0x2c64] = 0x47ae147b
        0x00002b6a:    4b40        @K      LDR      r3,[pc,#256] ; [0x2c6c] = 0x3f847ae1
        0x00002b6c:    f001f874    ..t.    BL       __aeabi_ddiv ; 0x3c58
        0x00002b70:    9103        ..      STR      r1,[sp,#0xc]
        0x00002b72:    9002        ..      STR      r0,[sp,#8]
        0x00002b74:    9b05        ..      LDR      r3,[sp,#0x14]
        0x00002b76:    9a04        ..      LDR      r2,[sp,#0x10]
        0x00002b78:    f001f841    ..A.    BL       __aeabi_dadd ; 0x3bfe
        0x00002b7c:    9107        ..      STR      r1,[sp,#0x1c]
        0x00002b7e:    9006        ..      STR      r0,[sp,#0x18]
        0x00002b80:    9b09        ..      LDR      r3,[sp,#0x24]
        0x00002b82:    9a08        ..      LDR      r2,[sp,#0x20]
        0x00002b84:    f001f83b    ..;.    BL       __aeabi_dadd ; 0x3bfe
        0x00002b88:    2200        ."      MOVS     r2,#0
        0x00002b8a:    4b39        9K      LDR      r3,[pc,#228] ; [0x2c70] = 0x401c0000
        0x00002b8c:    910b        ..      STR      r1,[sp,#0x2c]
        0x00002b8e:    900a        ..      STR      r0,[sp,#0x28]
        0x00002b90:    f001f862    ..b.    BL       __aeabi_ddiv ; 0x3c58
        0x00002b94:    910d        ..      STR      r1,[sp,#0x34]
        0x00002b96:    900c        ..      STR      r0,[sp,#0x30]
        0x00002b98:    f000fe7a    ..z.    BL       __aeabi_d2f ; 0x3890
        0x00002b9c:    4604        .F      MOV      r4,r0
        0x00002b9e:    4838        8H      LDR      r0,[pc,#224] ; [0x2c80] = 0x200003bc
        0x00002ba0:    6840        @h      LDR      r0,[r0,#4]
        0x00002ba2:    4937        7I      LDR      r1,[pc,#220] ; [0x2c80] = 0x200003bc
        0x00002ba4:    6088        .`      STR      r0,[r1,#8]
        0x00002ba6:    4608        .F      MOV      r0,r1
        0x00002ba8:    6800        .h      LDR      r0,[r0,#0]
        0x00002baa:    6048        H`      STR      r0,[r1,#4]
        0x00002bac:    4835        5H      LDR      r0,[pc,#212] ; [0x2c84] = 0x20000114
        0x00002bae:    6800        .h      LDR      r0,[r0,#0]
        0x00002bb0:    6008        .`      STR      r0,[r1,#0]
        0x00002bb2:    4620         F      MOV      r0,r4
        0x00002bb4:    b00f        ..      ADD      sp,sp,#0x3c
        0x00002bb6:    bdf0        ..      POP      {r4-r7,pc}
    encVelLP_R
        0x00002bb8:    b5f0        ..      PUSH     {r4-r7,lr}
        0x00002bba:    b08d        ..      SUB      sp,sp,#0x34
        0x00002bbc:    4832        2H      LDR      r0,[pc,#200] ; [0x2c88] = 0x2000012c
        0x00002bbe:    6800        .h      LDR      r0,[r0,#0]
        0x00002bc0:    f001fbc8    ....    BL       __aeabi_f2d ; 0x4354
        0x00002bc4:    9103        ..      STR      r1,[sp,#0xc]
        0x00002bc6:    9002        ..      STR      r0,[sp,#8]
        0x00002bc8:    4830        0H      LDR      r0,[pc,#192] ; [0x2c8c] = 0x20000118
        0x00002bca:    6801        .h      LDR      r1,[r0,#0]
        0x00002bcc:    4820         H      LDR      r0,[pc,#128] ; [0x2c50] = 0x20000110
        0x00002bce:    6800        .h      LDR      r0,[r0,#0]
        0x00002bd0:    f003fbc4    ....    BL       __aeabi_fsub ; 0x635c
        0x00002bd4:    9001        ..      STR      r0,[sp,#4]
        0x00002bd6:    f001fbbd    ....    BL       __aeabi_f2d ; 0x4354
        0x00002bda:    4604        .F      MOV      r4,r0
        0x00002bdc:    4a21        !J      LDR      r2,[pc,#132] ; [0x2c64] = 0x47ae147b
        0x00002bde:    4b23        #K      LDR      r3,[pc,#140] ; [0x2c6c] = 0x3f847ae1
        0x00002be0:    f001f83a    ..:.    BL       __aeabi_ddiv ; 0x3c58
        0x00002be4:    4606        .F      MOV      r6,r0
        0x00002be6:    9b03        ..      LDR      r3,[sp,#0xc]
        0x00002be8:    9a02        ..      LDR      r2,[sp,#8]
        0x00002bea:    f001f813    ....    BL       __aeabi_dsub ; 0x3c14
        0x00002bee:    4a28        (J      LDR      r2,[pc,#160] ; [0x2c90] = 0x9d89d89d
        0x00002bf0:    4b28        (K      LDR      r3,[pc,#160] ; [0x2c94] = 0x3fcd89d8
        0x00002bf2:    9105        ..      STR      r1,[sp,#0x14]
        0x00002bf4:    9004        ..      STR      r0,[sp,#0x10]
        0x00002bf6:    f001fa81    ....    BL       __aeabi_dmul ; 0x40fc
        0x00002bfa:    9109        ..      STR      r1,[sp,#0x24]
        0x00002bfc:    9008        ..      STR      r0,[sp,#0x20]
        0x00002bfe:    4822        "H      LDR      r0,[pc,#136] ; [0x2c88] = 0x2000012c
        0x00002c00:    6800        .h      LDR      r0,[r0,#0]
        0x00002c02:    f001fba7    ....    BL       __aeabi_f2d ; 0x4354
        0x00002c06:    9107        ..      STR      r1,[sp,#0x1c]
        0x00002c08:    9006        ..      STR      r0,[sp,#0x18]
        0x00002c0a:    9b09        ..      LDR      r3,[sp,#0x24]
        0x00002c0c:    9a08        ..      LDR      r2,[sp,#0x20]
        0x00002c0e:    f000fff6    ....    BL       __aeabi_dadd ; 0x3bfe
        0x00002c12:    910b        ..      STR      r1,[sp,#0x2c]
        0x00002c14:    900a        ..      STR      r0,[sp,#0x28]
        0x00002c16:    f000fe3b    ..;.    BL       __aeabi_d2f ; 0x3890
        0x00002c1a:    491b        .I      LDR      r1,[pc,#108] ; [0x2c88] = 0x2000012c
        0x00002c1c:    6008        .`      STR      r0,[r1,#0]
        0x00002c1e:    480c        .H      LDR      r0,[pc,#48] ; [0x2c50] = 0x20000110
        0x00002c20:    6800        .h      LDR      r0,[r0,#0]
        0x00002c22:    491a        .I      LDR      r1,[pc,#104] ; [0x2c8c] = 0x20000118
        0x00002c24:    6008        .`      STR      r0,[r1,#0]
        0x00002c26:    4818        .H      LDR      r0,[pc,#96] ; [0x2c88] = 0x2000012c
        0x00002c28:    6800        .h      LDR      r0,[r0,#0]
        0x00002c2a:    b00d        ..      ADD      sp,sp,#0x34
        0x00002c2c:    bdf0        ..      POP      {r4-r7,pc}
    $d
        0x00002c2e:    0000        ..      DCW    0
        0x00002c30:    50000040    @..P    DCD    1342177344
        0x00002c34:    ffffefef    ....    DCD    4294963183
        0x00002c38:    50004100    .A.P    DCD    1342193920
        0x00002c3c:    50004280    .B.P    DCD    1342194304
        0x00002c40:    ffffdfdf    ....    DCD    4294959071
        0x00002c44:    e000e100    ....    DCD    3758153984
        0x00002c48:    fffffdfd    ....    DCD    4294966781
        0x00002c4c:    50004000    .@.P    DCD    1342193664
        0x00002c50:    20000110    ...     DCD    536871184
        0x00002c54:    2000010c    ...     DCD    536871180
        0x00002c58:    200003b0    ...     DCD    536871856
        0x00002c5c:    eb851eb8    ....    DCD    3951369912
        0x00002c60:    3f9eb851    Q..?    DCD    1067366481
        0x00002c64:    47ae147b    {..G    DCD    1202590843
        0x00002c68:    3f947ae1    .z.?    DCD    1066695393
        0x00002c6c:    3f847ae1    .z.?    DCD    1065646817
        0x00002c70:    401c0000    ...@    DCD    1075576832
        0x00002c74:    20000128    (..     DCD    536871208
        0x00002c78:    200003a4    ...     DCD    536871844
        0x00002c7c:    20000124    $..     DCD    536871204
        0x00002c80:    200003bc    ...     DCD    536871868
        0x00002c84:    20000114    ...     DCD    536871188
        0x00002c88:    2000012c    ,..     DCD    536871212
        0x00002c8c:    20000118    ...     DCD    536871192
        0x00002c90:    9d89d89d    ....    DCD    2643056797
        0x00002c94:    3fcd89d8    ...?    DCD    1070434776
    $t
    encVelLP_L
        0x00002c98:    b5f0        ..      PUSH     {r4-r7,lr}
        0x00002c9a:    b08d        ..      SUB      sp,sp,#0x34
        0x00002c9c:    4876        vH      LDR      r0,[pc,#472] ; [0x2e78] = 0x20000130
        0x00002c9e:    6800        .h      LDR      r0,[r0,#0]
        0x00002ca0:    f001fb58    ..X.    BL       __aeabi_f2d ; 0x4354
        0x00002ca4:    9103        ..      STR      r1,[sp,#0xc]
        0x00002ca6:    9002        ..      STR      r0,[sp,#8]
        0x00002ca8:    4874        tH      LDR      r0,[pc,#464] ; [0x2e7c] = 0x2000011c
        0x00002caa:    6801        .h      LDR      r1,[r0,#0]
        0x00002cac:    4874        tH      LDR      r0,[pc,#464] ; [0x2e80] = 0x2000010c
        0x00002cae:    6800        .h      LDR      r0,[r0,#0]
        0x00002cb0:    f003fb54    ..T.    BL       __aeabi_fsub ; 0x635c
        0x00002cb4:    9001        ..      STR      r0,[sp,#4]
        0x00002cb6:    f001fb4d    ..M.    BL       __aeabi_f2d ; 0x4354
        0x00002cba:    4604        .F      MOV      r4,r0
        0x00002cbc:    4a71        qJ      LDR      r2,[pc,#452] ; [0x2e84] = 0x47ae147b
        0x00002cbe:    4b72        rK      LDR      r3,[pc,#456] ; [0x2e88] = 0x3f847ae1
        0x00002cc0:    f000ffca    ....    BL       __aeabi_ddiv ; 0x3c58
        0x00002cc4:    4606        .F      MOV      r6,r0
        0x00002cc6:    9b03        ..      LDR      r3,[sp,#0xc]
        0x00002cc8:    9a02        ..      LDR      r2,[sp,#8]
        0x00002cca:    f000ffa3    ....    BL       __aeabi_dsub ; 0x3c14
        0x00002cce:    4a6f        oJ      LDR      r2,[pc,#444] ; [0x2e8c] = 0x9d89d89d
        0x00002cd0:    4b6f        oK      LDR      r3,[pc,#444] ; [0x2e90] = 0x3fcd89d8
        0x00002cd2:    9105        ..      STR      r1,[sp,#0x14]
        0x00002cd4:    9004        ..      STR      r0,[sp,#0x10]
        0x00002cd6:    f001fa11    ....    BL       __aeabi_dmul ; 0x40fc
        0x00002cda:    9109        ..      STR      r1,[sp,#0x24]
        0x00002cdc:    9008        ..      STR      r0,[sp,#0x20]
        0x00002cde:    4866        fH      LDR      r0,[pc,#408] ; [0x2e78] = 0x20000130
        0x00002ce0:    6800        .h      LDR      r0,[r0,#0]
        0x00002ce2:    f001fb37    ..7.    BL       __aeabi_f2d ; 0x4354
        0x00002ce6:    9107        ..      STR      r1,[sp,#0x1c]
        0x00002ce8:    9006        ..      STR      r0,[sp,#0x18]
        0x00002cea:    9b09        ..      LDR      r3,[sp,#0x24]
        0x00002cec:    9a08        ..      LDR      r2,[sp,#0x20]
        0x00002cee:    f000ff86    ....    BL       __aeabi_dadd ; 0x3bfe
        0x00002cf2:    910b        ..      STR      r1,[sp,#0x2c]
        0x00002cf4:    900a        ..      STR      r0,[sp,#0x28]
        0x00002cf6:    f000fdcb    ....    BL       __aeabi_d2f ; 0x3890
        0x00002cfa:    495f        _I      LDR      r1,[pc,#380] ; [0x2e78] = 0x20000130
        0x00002cfc:    6008        .`      STR      r0,[r1,#0]
        0x00002cfe:    4860        `H      LDR      r0,[pc,#384] ; [0x2e80] = 0x2000010c
        0x00002d00:    6800        .h      LDR      r0,[r0,#0]
        0x00002d02:    495e        ^I      LDR      r1,[pc,#376] ; [0x2e7c] = 0x2000011c
        0x00002d04:    6008        .`      STR      r0,[r1,#0]
        0x00002d06:    485c        \H      LDR      r0,[pc,#368] ; [0x2e78] = 0x20000130
        0x00002d08:    6800        .h      LDR      r0,[r0,#0]
        0x00002d0a:    b00d        ..      ADD      sp,sp,#0x34
        0x00002d0c:    bdf0        ..      POP      {r4-r7,pc}
    get_encoderLcount
        0x00002d0e:    485c        \H      LDR      r0,[pc,#368] ; [0x2e80] = 0x2000010c
        0x00002d10:    6800        .h      LDR      r0,[r0,#0]
        0x00002d12:    4770        pG      BX       lr
    get_encoderRcount
        0x00002d14:    485f        _H      LDR      r0,[pc,#380] ; [0x2e94] = 0x20000110
        0x00002d16:    6800        .h      LDR      r0,[r0,#0]
        0x00002d18:    4770        pG      BX       lr
    Outputs4Debugging_Encoders
        0x00002d1a:    b570        p.      PUSH     {r4-r6,lr}
        0x00002d1c:    485e        ^H      LDR      r0,[pc,#376] ; [0x2e98] = 0x20000148
        0x00002d1e:    6800        .h      LDR      r0,[r0,#0]
        0x00002d20:    f001fb18    ....    BL       __aeabi_f2d ; 0x4354
        0x00002d24:    4604        .F      MOV      r4,r0
        0x00002d26:    4622        "F      MOV      r2,r4
        0x00002d28:    460b        .F      MOV      r3,r1
        0x00002d2a:    a05c        \.      ADR      r0,{pc}+0x172 ; 0x2e9c
        0x00002d2c:    f000fc0c    ....    BL       __2printf ; 0x3548
        0x00002d30:    bd70        p.      POP      {r4-r6,pc}
    GPIOP0P1_IRQHandler
        0x00002d32:    b510        ..      PUSH     {r4,lr}
        0x00002d34:    485b        [H      LDR      r0,[pc,#364] ; [0x2ea4] = 0x20000134
        0x00002d36:    8800        ..      LDRH     r0,[r0,#0]
        0x00002d38:    1c40        @.      ADDS     r0,r0,#1
        0x00002d3a:    495a        ZI      LDR      r1,[pc,#360] ; [0x2ea4] = 0x20000134
        0x00002d3c:    8008        ..      STRH     r0,[r1,#0]
        0x00002d3e:    217f        .!      MOVS     r1,#0x7f
        0x00002d40:    05c9        ..      LSLS     r1,r1,#23
        0x00002d42:    4859        YH      LDR      r0,[pc,#356] ; [0x2ea8] = 0x20000120
        0x00002d44:    6800        .h      LDR      r0,[r0,#0]
        0x00002d46:    f003f9eb    ....    BL       __aeabi_fadd ; 0x6120
        0x00002d4a:    4957        WI      LDR      r1,[pc,#348] ; [0x2ea8] = 0x20000120
        0x00002d4c:    6008        .`      STR      r0,[r1,#0]
        0x00002d4e:    f7fefa1f    ....    BL       millis ; 0x1190
        0x00002d52:    4604        .F      MOV      r4,r0
        0x00002d54:    4855        UH      LDR      r0,[pc,#340] ; [0x2eac] = 0x20000154
        0x00002d56:    6801        .h      LDR      r1,[r0,#0]
        0x00002d58:    4620         F      MOV      r0,r4
        0x00002d5a:    f003faff    ....    BL       __aeabi_fsub ; 0x635c
        0x00002d5e:    4954        TI      LDR      r1,[pc,#336] ; [0x2eb0] = 0x20000150
        0x00002d60:    6008        .`      STR      r0,[r1,#0]
        0x00002d62:    f7fefa15    ....    BL       millis ; 0x1190
        0x00002d66:    4951        QI      LDR      r1,[pc,#324] ; [0x2eac] = 0x20000154
        0x00002d68:    6008        .`      STR      r0,[r1,#0]
        0x00002d6a:    4852        RH      LDR      r0,[pc,#328] ; [0x2eb4] = 0x50004000
        0x00002d6c:    6a00        .j      LDR      r0,[r0,#0x20]
        0x00002d6e:    4951        QI      LDR      r1,[pc,#324] ; [0x2eb4] = 0x50004000
        0x00002d70:    6208        .b      STR      r0,[r1,#0x20]
        0x00002d72:    bd10        ..      POP      {r4,pc}
    reset_pulse
        0x00002d74:    2000        .       MOVS     r0,#0
        0x00002d76:    4950        PI      LDR      r1,[pc,#320] ; [0x2eb8] = 0x20000140
        0x00002d78:    6008        .`      STR      r0,[r1,#0]
        0x00002d7a:    4947        GI      LDR      r1,[pc,#284] ; [0x2e98] = 0x20000148
        0x00002d7c:    6008        .`      STR      r0,[r1,#0]
        0x00002d7e:    494c        LI      LDR      r1,[pc,#304] ; [0x2eb0] = 0x20000150
        0x00002d80:    6008        .`      STR      r0,[r1,#0]
        0x00002d82:    4770        pG      BX       lr
    get_pulse
        0x00002d84:    b5f8        ..      PUSH     {r3-r7,lr}
        0x00002d86:    4604        .F      MOV      r4,r0
        0x00002d88:    2500        .%      MOVS     r5,#0
        0x00002d8a:    2c00        .,      CMP      r4,#0
        0x00002d8c:    d004        ..      BEQ      0x2d98 ; get_pulse + 20
        0x00002d8e:    2c01        .,      CMP      r4,#1
        0x00002d90:    d014        ..      BEQ      0x2dbc ; get_pulse + 56
        0x00002d92:    2c02        .,      CMP      r4,#2
        0x00002d94:    d136        6.      BNE      0x2e04 ; get_pulse + 128
        0x00002d96:    e023        #.      B        0x2de0 ; get_pulse + 92
        0x00002d98:    f7fef9fa    ....    BL       millis ; 0x1190
        0x00002d9c:    4607        .F      MOV      r7,r0
        0x00002d9e:    4847        GH      LDR      r0,[pc,#284] ; [0x2ebc] = 0x2000014c
        0x00002da0:    6801        .h      LDR      r1,[r0,#0]
        0x00002da2:    4638        8F      MOV      r0,r7
        0x00002da4:    f003fada    ....    BL       __aeabi_fsub ; 0x635c
        0x00002da8:    4606        .F      MOV      r6,r0
        0x00002daa:    4945        EI      LDR      r1,[pc,#276] ; [0x2ec0] = 0x43160000
        0x00002dac:    f003faaa    ....    BL       __aeabi_cfrcmple ; 0x6304
        0x00002db0:    d201        ..      BCS      0x2db6 ; get_pulse + 50
        0x00002db2:    4d44        DM      LDR      r5,[pc,#272] ; [0x2ec4] = 0x47c35000
        0x00002db4:    e001        ..      B        0x2dba ; get_pulse + 54
        0x00002db6:    4838        8H      LDR      r0,[pc,#224] ; [0x2e98] = 0x20000148
        0x00002db8:    6805        .h      LDR      r5,[r0,#0]
        0x00002dba:    e023        #.      B        0x2e04 ; get_pulse + 128
        0x00002dbc:    f7fef9e8    ....    BL       millis ; 0x1190
        0x00002dc0:    4607        .F      MOV      r7,r0
        0x00002dc2:    4841        AH      LDR      r0,[pc,#260] ; [0x2ec8] = 0x20000144
        0x00002dc4:    6801        .h      LDR      r1,[r0,#0]
        0x00002dc6:    4638        8F      MOV      r0,r7
        0x00002dc8:    f003fac8    ....    BL       __aeabi_fsub ; 0x635c
        0x00002dcc:    4606        .F      MOV      r6,r0
        0x00002dce:    493c        <I      LDR      r1,[pc,#240] ; [0x2ec0] = 0x43160000
        0x00002dd0:    f003fa98    ....    BL       __aeabi_cfrcmple ; 0x6304
        0x00002dd4:    d201        ..      BCS      0x2dda ; get_pulse + 86
        0x00002dd6:    4d3b        ;M      LDR      r5,[pc,#236] ; [0x2ec4] = 0x47c35000
        0x00002dd8:    e001        ..      B        0x2dde ; get_pulse + 90
        0x00002dda:    4837        7H      LDR      r0,[pc,#220] ; [0x2eb8] = 0x20000140
        0x00002ddc:    6805        .h      LDR      r5,[r0,#0]
        0x00002dde:    e011        ..      B        0x2e04 ; get_pulse + 128
        0x00002de0:    f7fef9d6    ....    BL       millis ; 0x1190
        0x00002de4:    4607        .F      MOV      r7,r0
        0x00002de6:    4831        1H      LDR      r0,[pc,#196] ; [0x2eac] = 0x20000154
        0x00002de8:    6801        .h      LDR      r1,[r0,#0]
        0x00002dea:    4638        8F      MOV      r0,r7
        0x00002dec:    f003fab6    ....    BL       __aeabi_fsub ; 0x635c
        0x00002df0:    4606        .F      MOV      r6,r0
        0x00002df2:    4933        3I      LDR      r1,[pc,#204] ; [0x2ec0] = 0x43160000
        0x00002df4:    f003fa86    ....    BL       __aeabi_cfrcmple ; 0x6304
        0x00002df8:    d201        ..      BCS      0x2dfe ; get_pulse + 122
        0x00002dfa:    4d32        2M      LDR      r5,[pc,#200] ; [0x2ec4] = 0x47c35000
        0x00002dfc:    e001        ..      B        0x2e02 ; get_pulse + 126
        0x00002dfe:    482c        ,H      LDR      r0,[pc,#176] ; [0x2eb0] = 0x20000150
        0x00002e00:    6805        .h      LDR      r5,[r0,#0]
        0x00002e02:    bf00        ..      NOP      
        0x00002e04:    bf00        ..      NOP      
        0x00002e06:    4628        (F      MOV      r0,r5
        0x00002e08:    bdf8        ..      POP      {r3-r7,pc}
    GPIOP2P3P4_IRQHandler
        0x00002e0a:    b510        ..      PUSH     {r4,lr}
        0x00002e0c:    482f        /H      LDR      r0,[pc,#188] ; [0x2ecc] = 0x50004100
        0x00002e0e:    6a00        .j      LDR      r0,[r0,#0x20]
        0x00002e10:    2120         !      MOVS     r1,#0x20
        0x00002e12:    4208        .B      TST      r0,r1
        0x00002e14:    d012        ..      BEQ      0x2e3c ; GPIOP2P3P4_IRQHandler + 50
        0x00002e16:    482e        .H      LDR      r0,[pc,#184] ; [0x2ed0] = 0x20000138
        0x00002e18:    8800        ..      LDRH     r0,[r0,#0]
        0x00002e1a:    1c40        @.      ADDS     r0,r0,#1
        0x00002e1c:    492c        ,I      LDR      r1,[pc,#176] ; [0x2ed0] = 0x20000138
        0x00002e1e:    8008        ..      STRH     r0,[r1,#0]
        0x00002e20:    f7fef9b6    ....    BL       millis ; 0x1190
        0x00002e24:    4604        .F      MOV      r4,r0
        0x00002e26:    4825        %H      LDR      r0,[pc,#148] ; [0x2ebc] = 0x2000014c
        0x00002e28:    6801        .h      LDR      r1,[r0,#0]
        0x00002e2a:    4620         F      MOV      r0,r4
        0x00002e2c:    f003fa96    ....    BL       __aeabi_fsub ; 0x635c
        0x00002e30:    4919        .I      LDR      r1,[pc,#100] ; [0x2e98] = 0x20000148
        0x00002e32:    6008        .`      STR      r0,[r1,#0]
        0x00002e34:    f7fef9ac    ....    BL       millis ; 0x1190
        0x00002e38:    4920         I      LDR      r1,[pc,#128] ; [0x2ebc] = 0x2000014c
        0x00002e3a:    6008        .`      STR      r0,[r1,#0]
        0x00002e3c:    4823        #H      LDR      r0,[pc,#140] ; [0x2ecc] = 0x50004100
        0x00002e3e:    6a00        .j      LDR      r0,[r0,#0x20]
        0x00002e40:    2110        .!      MOVS     r1,#0x10
        0x00002e42:    4208        .B      TST      r0,r1
        0x00002e44:    d012        ..      BEQ      0x2e6c ; GPIOP2P3P4_IRQHandler + 98
        0x00002e46:    f7fef9a3    ....    BL       millis ; 0x1190
        0x00002e4a:    4604        .F      MOV      r4,r0
        0x00002e4c:    481e        .H      LDR      r0,[pc,#120] ; [0x2ec8] = 0x20000144
        0x00002e4e:    6801        .h      LDR      r1,[r0,#0]
        0x00002e50:    4620         F      MOV      r0,r4
        0x00002e52:    f003fa83    ....    BL       __aeabi_fsub ; 0x635c
        0x00002e56:    4918        .I      LDR      r1,[pc,#96] ; [0x2eb8] = 0x20000140
        0x00002e58:    6008        .`      STR      r0,[r1,#0]
        0x00002e5a:    f7fef999    ....    BL       millis ; 0x1190
        0x00002e5e:    491a        .I      LDR      r1,[pc,#104] ; [0x2ec8] = 0x20000144
        0x00002e60:    6008        .`      STR      r0,[r1,#0]
        0x00002e62:    481c        .H      LDR      r0,[pc,#112] ; [0x2ed4] = 0x20000136
        0x00002e64:    8800        ..      LDRH     r0,[r0,#0]
        0x00002e66:    1c40        @.      ADDS     r0,r0,#1
        0x00002e68:    491a        .I      LDR      r1,[pc,#104] ; [0x2ed4] = 0x20000136
        0x00002e6a:    8008        ..      STRH     r0,[r1,#0]
        0x00002e6c:    4817        .H      LDR      r0,[pc,#92] ; [0x2ecc] = 0x50004100
        0x00002e6e:    6a00        .j      LDR      r0,[r0,#0x20]
        0x00002e70:    4916        .I      LDR      r1,[pc,#88] ; [0x2ecc] = 0x50004100
        0x00002e72:    6208        .b      STR      r0,[r1,#0x20]
        0x00002e74:    bd10        ..      POP      {r4,pc}
    $d
        0x00002e76:    0000        ..      DCW    0
        0x00002e78:    20000130    0..     DCD    536871216
        0x00002e7c:    2000011c    ...     DCD    536871196
        0x00002e80:    2000010c    ...     DCD    536871180
        0x00002e84:    47ae147b    {..G    DCD    1202590843
        0x00002e88:    3f847ae1    .z.?    DCD    1065646817
        0x00002e8c:    9d89d89d    ....    DCD    2643056797
        0x00002e90:    3fcd89d8    ...?    DCD    1070434776
        0x00002e94:    20000110    ...     DCD    536871184
        0x00002e98:    20000148    H..     DCD    536871240
        0x00002e9c:    66332e25    %.3f    DCD    1714630181
        0x00002ea0:    000a2020      ..    DCD    663584
        0x00002ea4:    20000134    4..     DCD    536871220
        0x00002ea8:    20000120     ..     DCD    536871200
        0x00002eac:    20000154    T..     DCD    536871252
        0x00002eb0:    20000150    P..     DCD    536871248
        0x00002eb4:    50004000    .@.P    DCD    1342193664
        0x00002eb8:    20000140    @..     DCD    536871232
        0x00002ebc:    2000014c    L..     DCD    536871244
        0x00002ec0:    43160000    ...C    DCD    1125515264
        0x00002ec4:    47c35000    .P.G    DCD    1203982336
        0x00002ec8:    20000144    D..     DCD    536871236
        0x00002ecc:    50004100    .A.P    DCD    1342193920
        0x00002ed0:    20000138    8..     DCD    536871224
        0x00002ed4:    20000136    6..     DCD    536871222
    $t
    .text
    Init_Motors
        0x00002ed8:    b510        ..      PUSH     {r4,lr}
        0x00002eda:    2000        .       MOVS     r0,#0
        0x00002edc:    f7fffaac    ....    BL       Init_PWM ; 0x2438
        0x00002ee0:    2104        .!      MOVS     r1,#4
        0x00002ee2:    2001        .       MOVS     r0,#1
        0x00002ee4:    f7fff93c    ..<.    BL       Init_GPIO_Output ; 0x2160
        0x00002ee8:    2001        .       MOVS     r0,#1
        0x00002eea:    f7fffaa5    ....    BL       Init_PWM ; 0x2438
        0x00002eee:    2102        .!      MOVS     r1,#2
        0x00002ef0:    2003        .       MOVS     r0,#3
        0x00002ef2:    f7fff935    ..5.    BL       Init_GPIO_Output ; 0x2160
        0x00002ef6:    2002        .       MOVS     r0,#2
        0x00002ef8:    f7fffa9e    ....    BL       Init_PWM ; 0x2438
        0x00002efc:    2103        .!      MOVS     r1,#3
        0x00002efe:    4608        .F      MOV      r0,r1
        0x00002f00:    f7fff92e    ....    BL       Init_GPIO_Output ; 0x2160
        0x00002f04:    2103        .!      MOVS     r1,#3
        0x00002f06:    2004        .       MOVS     r0,#4
        0x00002f08:    f7fff92a    ..*.    BL       Init_GPIO_Output ; 0x2160
        0x00002f0c:    2003        .       MOVS     r0,#3
        0x00002f0e:    f7fffa93    ....    BL       Init_PWM ; 0x2438
        0x00002f12:    2103        .!      MOVS     r1,#3
        0x00002f14:    2000        .       MOVS     r0,#0
        0x00002f16:    f7fff923    ..#.    BL       Init_GPIO_Output ; 0x2160
        0x00002f1a:    2102        .!      MOVS     r1,#2
        0x00002f1c:    2000        .       MOVS     r0,#0
        0x00002f1e:    f7fff91f    ....    BL       Init_GPIO_Output ; 0x2160
        0x00002f22:    2004        .       MOVS     r0,#4
        0x00002f24:    f7fffa88    ....    BL       Init_PWM ; 0x2438
        0x00002f28:    2107        .!      MOVS     r1,#7
        0x00002f2a:    2003        .       MOVS     r0,#3
        0x00002f2c:    f7fff918    ....    BL       Init_GPIO_Output ; 0x2160
        0x00002f30:    2107        .!      MOVS     r1,#7
        0x00002f32:    2001        .       MOVS     r0,#1
        0x00002f34:    f7fff914    ....    BL       Init_GPIO_Output ; 0x2160
        0x00002f38:    2005        .       MOVS     r0,#5
        0x00002f3a:    f7fffa7d    ..}.    BL       Init_PWM ; 0x2438
        0x00002f3e:    2106        .!      MOVS     r1,#6
        0x00002f40:    2002        .       MOVS     r0,#2
        0x00002f42:    f7fff90d    ....    BL       Init_GPIO_Output ; 0x2160
        0x00002f46:    2107        .!      MOVS     r1,#7
        0x00002f48:    2002        .       MOVS     r0,#2
        0x00002f4a:    f7fff909    ....    BL       Init_GPIO_Output ; 0x2160
        0x00002f4e:    2100        .!      MOVS     r1,#0
        0x00002f50:    2004        .       MOVS     r0,#4
        0x00002f52:    f7fff905    ....    BL       Init_GPIO_Output ; 0x2160
        0x00002f56:    2101        .!      MOVS     r1,#1
        0x00002f58:    2004        .       MOVS     r0,#4
        0x00002f5a:    f7fff901    ....    BL       Init_GPIO_Output ; 0x2160
        0x00002f5e:    2102        .!      MOVS     r1,#2
        0x00002f60:    2004        .       MOVS     r0,#4
        0x00002f62:    f7fff8fd    ....    BL       Init_GPIO_Output ; 0x2160
        0x00002f66:    bd10        ..      POP      {r4,pc}
    motorEnable
        0x00002f68:    b510        ..      PUSH     {r4,lr}
        0x00002f6a:    2201        ."      MOVS     r2,#1
        0x00002f6c:    2100        .!      MOVS     r1,#0
        0x00002f6e:    2004        .       MOVS     r0,#4
        0x00002f70:    f7fff9cc    ....    BL       digitalWrite ; 0x230c
        0x00002f74:    2201        ."      MOVS     r2,#1
        0x00002f76:    4611        .F      MOV      r1,r2
        0x00002f78:    2004        .       MOVS     r0,#4
        0x00002f7a:    f7fff9c7    ....    BL       digitalWrite ; 0x230c
        0x00002f7e:    2201        ."      MOVS     r2,#1
        0x00002f80:    2102        .!      MOVS     r1,#2
        0x00002f82:    2004        .       MOVS     r0,#4
        0x00002f84:    f7fff9c2    ....    BL       digitalWrite ; 0x230c
        0x00002f88:    bd10        ..      POP      {r4,pc}
    motorESTOP
        0x00002f8a:    b510        ..      PUSH     {r4,lr}
        0x00002f8c:    2200        ."      MOVS     r2,#0
        0x00002f8e:    4611        .F      MOV      r1,r2
        0x00002f90:    2004        .       MOVS     r0,#4
        0x00002f92:    f7fff9bb    ....    BL       digitalWrite ; 0x230c
        0x00002f96:    2200        ."      MOVS     r2,#0
        0x00002f98:    2101        .!      MOVS     r1,#1
        0x00002f9a:    2004        .       MOVS     r0,#4
        0x00002f9c:    f7fff9b6    ....    BL       digitalWrite ; 0x230c
        0x00002fa0:    2200        ."      MOVS     r2,#0
        0x00002fa2:    2102        .!      MOVS     r1,#2
        0x00002fa4:    2004        .       MOVS     r0,#4
        0x00002fa6:    f7fff9b1    ....    BL       digitalWrite ; 0x230c
        0x00002faa:    bd10        ..      POP      {r4,pc}
    Drive_Motor
        0x00002fac:    b5f8        ..      PUSH     {r3-r7,lr}
        0x00002fae:    4604        .F      MOV      r4,r0
        0x00002fb0:    460e        .F      MOV      r6,r1
        0x00002fb2:    4615        .F      MOV      r5,r2
        0x00002fb4:    2700        .'      MOVS     r7,#0
        0x00002fb6:    1c68        h.      ADDS     r0,r5,#1
        0x00002fb8:    d101        ..      BNE      0x2fbe ; Drive_Motor + 18
        0x00002fba:    2500        .%      MOVS     r5,#0
        0x00002fbc:    2701        .'      MOVS     r7,#1
        0x00002fbe:    0023        #.      MOVS     r3,r4
        0x00002fc0:    f002facc    ....    BL       __ARM_common_switch8 ; 0x555c
    $d
        0x00002fc4:    0f055407    .T..    DCD    252007431
        0x00002fc8:    46372819    .(7F    DCD    1178019865
        0x00002fcc:    0054        T.      DCW    84
    $t
        0x00002fce:    4631        1F      MOV      r1,r6
        0x00002fd0:    2000        .       MOVS     r0,#0
        0x00002fd2:    f7fffbf1    ....    BL       PWM_Write ; 0x27b8
        0x00002fd6:    462a        *F      MOV      r2,r5
        0x00002fd8:    2104        .!      MOVS     r1,#4
        0x00002fda:    2001        .       MOVS     r0,#1
        0x00002fdc:    f7fff996    ....    BL       digitalWrite ; 0x230c
        0x00002fe0:    bf00        ..      NOP      
        0x00002fe2:    4631        1F      MOV      r1,r6
        0x00002fe4:    2001        .       MOVS     r0,#1
        0x00002fe6:    f7fffbe7    ....    BL       PWM_Write ; 0x27b8
        0x00002fea:    462a        *F      MOV      r2,r5
        0x00002fec:    2102        .!      MOVS     r1,#2
        0x00002fee:    2003        .       MOVS     r0,#3
        0x00002ff0:    f7fff98c    ....    BL       digitalWrite ; 0x230c
        0x00002ff4:    bf00        ..      NOP      
        0x00002ff6:    4631        1F      MOV      r1,r6
        0x00002ff8:    2002        .       MOVS     r0,#2
        0x00002ffa:    f7fffbdd    ....    BL       PWM_Write ; 0x27b8
        0x00002ffe:    462a        *F      MOV      r2,r5
        0x00003000:    2103        .!      MOVS     r1,#3
        0x00003002:    4608        .F      MOV      r0,r1
        0x00003004:    f7fff982    ....    BL       digitalWrite ; 0x230c
        0x00003008:    463a        :F      MOV      r2,r7
        0x0000300a:    2103        .!      MOVS     r1,#3
        0x0000300c:    2004        .       MOVS     r0,#4
        0x0000300e:    f7fff97d    ..}.    BL       digitalWrite ; 0x230c
        0x00003012:    bf00        ..      NOP      
        0x00003014:    4631        1F      MOV      r1,r6
        0x00003016:    2003        .       MOVS     r0,#3
        0x00003018:    f7fffbce    ....    BL       PWM_Write ; 0x27b8
        0x0000301c:    462a        *F      MOV      r2,r5
        0x0000301e:    2103        .!      MOVS     r1,#3
        0x00003020:    2000        .       MOVS     r0,#0
        0x00003022:    f7fff973    ..s.    BL       digitalWrite ; 0x230c
        0x00003026:    463a        :F      MOV      r2,r7
        0x00003028:    2102        .!      MOVS     r1,#2
        0x0000302a:    2000        .       MOVS     r0,#0
        0x0000302c:    f7fff96e    ..n.    BL       digitalWrite ; 0x230c
        0x00003030:    bf00        ..      NOP      
        0x00003032:    4631        1F      MOV      r1,r6
        0x00003034:    2004        .       MOVS     r0,#4
        0x00003036:    f7fffbbf    ....    BL       PWM_Write ; 0x27b8
        0x0000303a:    462a        *F      MOV      r2,r5
        0x0000303c:    2107        .!      MOVS     r1,#7
        0x0000303e:    2003        .       MOVS     r0,#3
        0x00003040:    f7fff964    ..d.    BL       digitalWrite ; 0x230c
        0x00003044:    463a        :F      MOV      r2,r7
        0x00003046:    2107        .!      MOVS     r1,#7
        0x00003048:    2001        .       MOVS     r0,#1
        0x0000304a:    f7fff95f    .._.    BL       digitalWrite ; 0x230c
        0x0000304e:    bf00        ..      NOP      
        0x00003050:    4631        1F      MOV      r1,r6
        0x00003052:    2005        .       MOVS     r0,#5
        0x00003054:    f7fffbb0    ....    BL       PWM_Write ; 0x27b8
        0x00003058:    462a        *F      MOV      r2,r5
        0x0000305a:    2106        .!      MOVS     r1,#6
        0x0000305c:    2002        .       MOVS     r0,#2
        0x0000305e:    f7fff955    ..U.    BL       digitalWrite ; 0x230c
        0x00003062:    463a        :F      MOV      r2,r7
        0x00003064:    2107        .!      MOVS     r1,#7
        0x00003066:    2002        .       MOVS     r0,#2
        0x00003068:    f7fff950    ..P.    BL       digitalWrite ; 0x230c
        0x0000306c:    bdf8        ..      POP      {r3-r7,pc}
    Drive_Motor_by_U
        0x0000306e:    b5fe        ..      PUSH     {r1-r7,lr}
        0x00003070:    4604        .F      MOV      r4,r0
        0x00003072:    460d        .F      MOV      r5,r1
        0x00003074:    2601        .&      MOVS     r6,#1
        0x00003076:    2000        .       MOVS     r0,#0
        0x00003078:    9001        ..      STR      r0,[sp,#4]
        0x0000307a:    2100        .!      MOVS     r1,#0
        0x0000307c:    4628        (F      MOV      r0,r5
        0x0000307e:    f003f8bf    ....    BL       __aeabi_cfcmple ; 0x6200
        0x00003082:    d802        ..      BHI      0x308a ; Drive_Motor_by_U + 28
        0x00003084:    2600        .&      MOVS     r6,#0
        0x00003086:    2001        .       MOVS     r0,#1
        0x00003088:    9001        ..      STR      r0,[sp,#4]
        0x0000308a:    0023        #.      MOVS     r3,r4
        0x0000308c:    f002fa66    ..f.    BL       __ARM_common_switch8 ; 0x555c
    $d
        0x00003090:    17058407    ....    DCD    386237447
        0x00003094:    6e574029    )@Wn    DCD    1851211817
        0x00003098:    0084        ..      DCW    132
    $t
        0x0000309a:    4988        .I      LDR      r1,[pc,#544] ; [0x32bc] = 0x440a0000
        0x0000309c:    4628        (F      MOV      r0,r5
        0x0000309e:    f003f8d9    ....    BL       __aeabi_fmul ; 0x6254
        0x000030a2:    9000        ..      STR      r0,[sp,#0]
        0x000030a4:    f001fa32    ..2.    BL       __aeabi_f2iz ; 0x450c
        0x000030a8:    4607        .F      MOV      r7,r0
        0x000030aa:    4639        9F      MOV      r1,r7
        0x000030ac:    2000        .       MOVS     r0,#0
        0x000030ae:    f7fffb83    ....    BL       PWM_Write ; 0x27b8
        0x000030b2:    4632        2F      MOV      r2,r6
        0x000030b4:    2104        .!      MOVS     r1,#4
        0x000030b6:    2001        .       MOVS     r0,#1
        0x000030b8:    f7fff928    ..(.    BL       digitalWrite ; 0x230c
        0x000030bc:    bf00        ..      NOP      
        0x000030be:    497f        .I      LDR      r1,[pc,#508] ; [0x32bc] = 0x440a0000
        0x000030c0:    4628        (F      MOV      r0,r5
        0x000030c2:    f003f8c7    ....    BL       __aeabi_fmul ; 0x6254
        0x000030c6:    9000        ..      STR      r0,[sp,#0]
        0x000030c8:    f001fa20    .. .    BL       __aeabi_f2iz ; 0x450c
        0x000030cc:    4607        .F      MOV      r7,r0
        0x000030ce:    4639        9F      MOV      r1,r7
        0x000030d0:    2001        .       MOVS     r0,#1
        0x000030d2:    f7fffb71    ..q.    BL       PWM_Write ; 0x27b8
        0x000030d6:    4632        2F      MOV      r2,r6
        0x000030d8:    2102        .!      MOVS     r1,#2
        0x000030da:    2003        .       MOVS     r0,#3
        0x000030dc:    f7fff916    ....    BL       digitalWrite ; 0x230c
        0x000030e0:    bf00        ..      NOP      
        0x000030e2:    4976        vI      LDR      r1,[pc,#472] ; [0x32bc] = 0x440a0000
        0x000030e4:    4628        (F      MOV      r0,r5
        0x000030e6:    f003f8b5    ....    BL       __aeabi_fmul ; 0x6254
        0x000030ea:    9000        ..      STR      r0,[sp,#0]
        0x000030ec:    f001fa0e    ....    BL       __aeabi_f2iz ; 0x450c
        0x000030f0:    4607        .F      MOV      r7,r0
        0x000030f2:    4639        9F      MOV      r1,r7
        0x000030f4:    2002        .       MOVS     r0,#2
        0x000030f6:    f7fffb5f    .._.    BL       PWM_Write ; 0x27b8
        0x000030fa:    4632        2F      MOV      r2,r6
        0x000030fc:    2103        .!      MOVS     r1,#3
        0x000030fe:    4608        .F      MOV      r0,r1
        0x00003100:    f7fff904    ....    BL       digitalWrite ; 0x230c
        0x00003104:    2103        .!      MOVS     r1,#3
        0x00003106:    2004        .       MOVS     r0,#4
        0x00003108:    9a01        ..      LDR      r2,[sp,#4]
        0x0000310a:    f7fff8ff    ....    BL       digitalWrite ; 0x230c
        0x0000310e:    bf00        ..      NOP      
        0x00003110:    496a        jI      LDR      r1,[pc,#424] ; [0x32bc] = 0x440a0000
        0x00003112:    4628        (F      MOV      r0,r5
        0x00003114:    f003f89e    ....    BL       __aeabi_fmul ; 0x6254
        0x00003118:    9000        ..      STR      r0,[sp,#0]
        0x0000311a:    f001f9f7    ....    BL       __aeabi_f2iz ; 0x450c
        0x0000311e:    4607        .F      MOV      r7,r0
        0x00003120:    4639        9F      MOV      r1,r7
        0x00003122:    2003        .       MOVS     r0,#3
        0x00003124:    f7fffb48    ..H.    BL       PWM_Write ; 0x27b8
        0x00003128:    4632        2F      MOV      r2,r6
        0x0000312a:    2103        .!      MOVS     r1,#3
        0x0000312c:    2000        .       MOVS     r0,#0
        0x0000312e:    f7fff8ed    ....    BL       digitalWrite ; 0x230c
        0x00003132:    2102        .!      MOVS     r1,#2
        0x00003134:    2000        .       MOVS     r0,#0
        0x00003136:    9a01        ..      LDR      r2,[sp,#4]
        0x00003138:    f7fff8e8    ....    BL       digitalWrite ; 0x230c
        0x0000313c:    bf00        ..      NOP      
        0x0000313e:    495f        _I      LDR      r1,[pc,#380] ; [0x32bc] = 0x440a0000
        0x00003140:    4628        (F      MOV      r0,r5
        0x00003142:    f003f887    ....    BL       __aeabi_fmul ; 0x6254
        0x00003146:    9000        ..      STR      r0,[sp,#0]
        0x00003148:    f001f9e0    ....    BL       __aeabi_f2iz ; 0x450c
        0x0000314c:    4607        .F      MOV      r7,r0
        0x0000314e:    4639        9F      MOV      r1,r7
        0x00003150:    2004        .       MOVS     r0,#4
        0x00003152:    f7fffb31    ..1.    BL       PWM_Write ; 0x27b8
        0x00003156:    4632        2F      MOV      r2,r6
        0x00003158:    2107        .!      MOVS     r1,#7
        0x0000315a:    2003        .       MOVS     r0,#3
        0x0000315c:    f7fff8d6    ....    BL       digitalWrite ; 0x230c
        0x00003160:    2107        .!      MOVS     r1,#7
        0x00003162:    2001        .       MOVS     r0,#1
        0x00003164:    9a01        ..      LDR      r2,[sp,#4]
        0x00003166:    f7fff8d1    ....    BL       digitalWrite ; 0x230c
        0x0000316a:    bf00        ..      NOP      
        0x0000316c:    4953        SI      LDR      r1,[pc,#332] ; [0x32bc] = 0x440a0000
        0x0000316e:    4628        (F      MOV      r0,r5
        0x00003170:    f003f870    ..p.    BL       __aeabi_fmul ; 0x6254
        0x00003174:    9000        ..      STR      r0,[sp,#0]
        0x00003176:    f001f9c9    ....    BL       __aeabi_f2iz ; 0x450c
        0x0000317a:    4607        .F      MOV      r7,r0
        0x0000317c:    4639        9F      MOV      r1,r7
        0x0000317e:    2005        .       MOVS     r0,#5
        0x00003180:    f7fffb1a    ....    BL       PWM_Write ; 0x27b8
        0x00003184:    4632        2F      MOV      r2,r6
        0x00003186:    2106        .!      MOVS     r1,#6
        0x00003188:    2002        .       MOVS     r0,#2
        0x0000318a:    f7fff8bf    ....    BL       digitalWrite ; 0x230c
        0x0000318e:    2107        .!      MOVS     r1,#7
        0x00003190:    2002        .       MOVS     r0,#2
        0x00003192:    9a01        ..      LDR      r2,[sp,#4]
        0x00003194:    f7fff8ba    ....    BL       digitalWrite ; 0x230c
        0x00003198:    bdfe        ..      POP      {r1-r7,pc}
    driveMotors
        0x0000319a:    b5f8        ..      PUSH     {r3-r7,lr}
        0x0000319c:    4604        .F      MOV      r4,r0
        0x0000319e:    2100        .!      MOVS     r1,#0
        0x000031a0:    6820         h      LDR      r0,[r4,#0]
        0x000031a2:    f003f82d    ..-.    BL       __aeabi_cfcmple ; 0x6200
        0x000031a6:    d216        ..      BCS      0x31d6 ; driveMotors + 60
        0x000031a8:    207f        .       MOVS     r0,#0x7f
        0x000031aa:    05c0        ..      LSLS     r0,r0,#23
        0x000031ac:    6821        !h      LDR      r1,[r4,#0]
        0x000031ae:    f002ffb7    ....    BL       __aeabi_fadd ; 0x6120
        0x000031b2:    4607        .F      MOV      r7,r0
        0x000031b4:    4941        AI      LDR      r1,[pc,#260] ; [0x32bc] = 0x440a0000
        0x000031b6:    f003f84d    ..M.    BL       __aeabi_fmul ; 0x6254
        0x000031ba:    4606        .F      MOV      r6,r0
        0x000031bc:    f001f9a6    ....    BL       __aeabi_f2iz ; 0x450c
        0x000031c0:    4605        .F      MOV      r5,r0
        0x000031c2:    4629        )F      MOV      r1,r5
        0x000031c4:    2001        .       MOVS     r0,#1
        0x000031c6:    f7fffaf7    ....    BL       PWM_Write ; 0x27b8
        0x000031ca:    2201        ."      MOVS     r2,#1
        0x000031cc:    2102        .!      MOVS     r1,#2
        0x000031ce:    2003        .       MOVS     r0,#3
        0x000031d0:    f7fff89c    ....    BL       digitalWrite ; 0x230c
        0x000031d4:    e011        ..      B        0x31fa ; driveMotors + 96
        0x000031d6:    4839        9H      LDR      r0,[pc,#228] ; [0x32bc] = 0x440a0000
        0x000031d8:    6821        !h      LDR      r1,[r4,#0]
        0x000031da:    f003f83b    ..;.    BL       __aeabi_fmul ; 0x6254
        0x000031de:    4606        .F      MOV      r6,r0
        0x000031e0:    f001f994    ....    BL       __aeabi_f2iz ; 0x450c
        0x000031e4:    4605        .F      MOV      r5,r0
        0x000031e6:    4629        )F      MOV      r1,r5
        0x000031e8:    2001        .       MOVS     r0,#1
        0x000031ea:    f7fffae5    ....    BL       PWM_Write ; 0x27b8
        0x000031ee:    2200        ."      MOVS     r2,#0
        0x000031f0:    2102        .!      MOVS     r1,#2
        0x000031f2:    2003        .       MOVS     r0,#3
        0x000031f4:    f7fff88a    ....    BL       digitalWrite ; 0x230c
        0x000031f8:    bf00        ..      NOP      
        0x000031fa:    2100        .!      MOVS     r1,#0
        0x000031fc:    6860        `h      LDR      r0,[r4,#4]
        0x000031fe:    f003f881    ....    BL       __aeabi_cfrcmple ; 0x6304
        0x00003202:    d216        ..      BCS      0x3232 ; driveMotors + 152
        0x00003204:    207f        .       MOVS     r0,#0x7f
        0x00003206:    05c0        ..      LSLS     r0,r0,#23
        0x00003208:    6861        ah      LDR      r1,[r4,#4]
        0x0000320a:    f003f8a7    ....    BL       __aeabi_fsub ; 0x635c
        0x0000320e:    4607        .F      MOV      r7,r0
        0x00003210:    492a        *I      LDR      r1,[pc,#168] ; [0x32bc] = 0x440a0000
        0x00003212:    f003f81f    ....    BL       __aeabi_fmul ; 0x6254
        0x00003216:    4606        .F      MOV      r6,r0
        0x00003218:    f001f978    ..x.    BL       __aeabi_f2iz ; 0x450c
        0x0000321c:    4605        .F      MOV      r5,r0
        0x0000321e:    4629        )F      MOV      r1,r5
        0x00003220:    2000        .       MOVS     r0,#0
        0x00003222:    f7fffac9    ....    BL       PWM_Write ; 0x27b8
        0x00003226:    2201        ."      MOVS     r2,#1
        0x00003228:    2104        .!      MOVS     r1,#4
        0x0000322a:    4610        .F      MOV      r0,r2
        0x0000322c:    f7fff86e    ..n.    BL       digitalWrite ; 0x230c
        0x00003230:    e010        ..      B        0x3254 ; driveMotors + 186
        0x00003232:    4823        #H      LDR      r0,[pc,#140] ; [0x32c0] = 0xc40a0000
        0x00003234:    6861        ah      LDR      r1,[r4,#4]
        0x00003236:    f003f80d    ....    BL       __aeabi_fmul ; 0x6254
        0x0000323a:    4606        .F      MOV      r6,r0
        0x0000323c:    f001f966    ..f.    BL       __aeabi_f2iz ; 0x450c
        0x00003240:    4605        .F      MOV      r5,r0
        0x00003242:    4629        )F      MOV      r1,r5
        0x00003244:    2000        .       MOVS     r0,#0
        0x00003246:    f7fffab7    ....    BL       PWM_Write ; 0x27b8
        0x0000324a:    2200        ."      MOVS     r2,#0
        0x0000324c:    2104        .!      MOVS     r1,#4
        0x0000324e:    2001        .       MOVS     r0,#1
        0x00003250:    f7fff85c    ..\.    BL       digitalWrite ; 0x230c
        0x00003254:    2100        .!      MOVS     r1,#0
        0x00003256:    68a0        .h      LDR      r0,[r4,#8]
        0x00003258:    f002ffd2    ....    BL       __aeabi_cfcmple ; 0x6200
        0x0000325c:    d216        ..      BCS      0x328c ; driveMotors + 242
        0x0000325e:    4818        .H      LDR      r0,[pc,#96] ; [0x32c0] = 0xc40a0000
        0x00003260:    68a1        .h      LDR      r1,[r4,#8]
        0x00003262:    f002fff7    ....    BL       __aeabi_fmul ; 0x6254
        0x00003266:    4606        .F      MOV      r6,r0
        0x00003268:    f001f950    ..P.    BL       __aeabi_f2iz ; 0x450c
        0x0000326c:    4605        .F      MOV      r5,r0
        0x0000326e:    4629        )F      MOV      r1,r5
        0x00003270:    2003        .       MOVS     r0,#3
        0x00003272:    f7fffaa1    ....    BL       PWM_Write ; 0x27b8
        0x00003276:    2200        ."      MOVS     r2,#0
        0x00003278:    2102        .!      MOVS     r1,#2
        0x0000327a:    4610        .F      MOV      r0,r2
        0x0000327c:    f7fff846    ..F.    BL       digitalWrite ; 0x230c
        0x00003280:    2201        ."      MOVS     r2,#1
        0x00003282:    2103        .!      MOVS     r1,#3
        0x00003284:    2000        .       MOVS     r0,#0
        0x00003286:    f7fff841    ..A.    BL       digitalWrite ; 0x230c
        0x0000328a:    e015        ..      B        0x32b8 ; driveMotors + 286
        0x0000328c:    480b        .H      LDR      r0,[pc,#44] ; [0x32bc] = 0x440a0000
        0x0000328e:    68a1        .h      LDR      r1,[r4,#8]
        0x00003290:    f002ffe0    ....    BL       __aeabi_fmul ; 0x6254
        0x00003294:    4606        .F      MOV      r6,r0
        0x00003296:    f001f939    ..9.    BL       __aeabi_f2iz ; 0x450c
        0x0000329a:    4605        .F      MOV      r5,r0
        0x0000329c:    4629        )F      MOV      r1,r5
        0x0000329e:    2003        .       MOVS     r0,#3
        0x000032a0:    f7fffa8a    ....    BL       PWM_Write ; 0x27b8
        0x000032a4:    2201        ."      MOVS     r2,#1
        0x000032a6:    2102        .!      MOVS     r1,#2
        0x000032a8:    2000        .       MOVS     r0,#0
        0x000032aa:    f7fff82f    ../.    BL       digitalWrite ; 0x230c
        0x000032ae:    2200        ."      MOVS     r2,#0
        0x000032b0:    2103        .!      MOVS     r1,#3
        0x000032b2:    4610        .F      MOV      r0,r2
        0x000032b4:    f7fff82a    ..*.    BL       digitalWrite ; 0x230c
        0x000032b8:    bdf8        ..      POP      {r3-r7,pc}
    $d
        0x000032ba:    0000        ..      DCW    0
        0x000032bc:    440a0000    ...D    DCD    1141506048
        0x000032c0:    c40a0000    ....    DCD    3288989696
    $t
    .text
    Init_Interrupt_Priority
        0x000032c4:    b500        ..      PUSH     {lr}
        0x000032c6:    0003        ..      MOVS     r3,r0
        0x000032c8:    f002f948    ..H.    BL       __ARM_common_switch8 ; 0x555c
    $d
        0x000032cc:    3c073b0b    .;.<    DCD    1007106827
        0x000032d0:    9b8d7f64    d...    DCD    2609741668
        0x000032d4:    feecd1a9    ....    DCD    4276933033
        0x000032d8:    003b        ;.      DCW    59
    $t
        0x000032da:    4994        .I      LDR      r1,[pc,#592] ; [0x352c] = 0xe000e400
        0x000032dc:    6889        .h      LDR      r1,[r1,#8]
        0x000032de:    2240        @"      MOVS     r2,#0x40
        0x000032e0:    4311        .C      ORRS     r1,r1,r2
        0x000032e2:    4a92        .J      LDR      r2,[pc,#584] ; [0x352c] = 0xe000e400
        0x000032e4:    6091        .`      STR      r1,[r2,#8]
        0x000032e6:    4611        .F      MOV      r1,r2
        0x000032e8:    6889        .h      LDR      r1,[r1,#8]
        0x000032ea:    2201        ."      MOVS     r2,#1
        0x000032ec:    0392        ..      LSLS     r2,r2,#14
        0x000032ee:    4311        .C      ORRS     r1,r1,r2
        0x000032f0:    4a8e        .J      LDR      r2,[pc,#568] ; [0x352c] = 0xe000e400
        0x000032f2:    6091        .`      STR      r1,[r2,#8]
        0x000032f4:    4611        .F      MOV      r1,r2
        0x000032f6:    6889        .h      LDR      r1,[r1,#8]
        0x000032f8:    2201        ."      MOVS     r2,#1
        0x000032fa:    0592        ..      LSLS     r2,r2,#22
        0x000032fc:    4311        .C      ORRS     r1,r1,r2
        0x000032fe:    4a8b        .J      LDR      r2,[pc,#556] ; [0x352c] = 0xe000e400
        0x00003300:    6091        .`      STR      r1,[r2,#8]
        0x00003302:    4611        .F      MOV      r1,r2
        0x00003304:    6889        .h      LDR      r1,[r1,#8]
        0x00003306:    0512        ..      LSLS     r2,r2,#20
        0x00003308:    4311        .C      ORRS     r1,r1,r2
        0x0000330a:    4a88        .J      LDR      r2,[pc,#544] ; [0x352c] = 0xe000e400
        0x0000330c:    6091        .`      STR      r1,[r2,#8]
        0x0000330e:    4611        .F      MOV      r1,r2
        0x00003310:    68c9        .h      LDR      r1,[r1,#0xc]
        0x00003312:    2240        @"      MOVS     r2,#0x40
        0x00003314:    4311        .C      ORRS     r1,r1,r2
        0x00003316:    4a85        .J      LDR      r2,[pc,#532] ; [0x352c] = 0xe000e400
        0x00003318:    60d1        .`      STR      r1,[r2,#0xc]
        0x0000331a:    4611        .F      MOV      r1,r2
        0x0000331c:    68c9        .h      LDR      r1,[r1,#0xc]
        0x0000331e:    2280        ."      MOVS     r2,#0x80
        0x00003320:    4311        .C      ORRS     r1,r1,r2
        0x00003322:    4a82        .J      LDR      r2,[pc,#520] ; [0x352c] = 0xe000e400
        0x00003324:    60d1        .`      STR      r1,[r2,#0xc]
        0x00003326:    4611        .F      MOV      r1,r2
        0x00003328:    68c9        .h      LDR      r1,[r1,#0xc]
        0x0000332a:    2201        ."      MOVS     r2,#1
        0x0000332c:    0392        ..      LSLS     r2,r2,#14
        0x0000332e:    4311        .C      ORRS     r1,r1,r2
        0x00003330:    4a7e        ~J      LDR      r2,[pc,#504] ; [0x352c] = 0xe000e400
        0x00003332:    60d1        .`      STR      r1,[r2,#0xc]
        0x00003334:    4611        .F      MOV      r1,r2
        0x00003336:    68c9        .h      LDR      r1,[r1,#0xc]
        0x00003338:    2201        ."      MOVS     r2,#1
        0x0000333a:    03d2        ..      LSLS     r2,r2,#15
        0x0000333c:    4311        .C      ORRS     r1,r1,r2
        0x0000333e:    4a7b        {J      LDR      r2,[pc,#492] ; [0x352c] = 0xe000e400
        0x00003340:    60d1        .`      STR      r1,[r2,#0xc]
        0x00003342:    e0f0        ..      B        0x3526 ; Init_Interrupt_Priority + 610
        0x00003344:    4979        yI      LDR      r1,[pc,#484] ; [0x352c] = 0xe000e400
        0x00003346:    6889        .h      LDR      r1,[r1,#8]
        0x00003348:    2240        @"      MOVS     r2,#0x40
        0x0000334a:    4311        .C      ORRS     r1,r1,r2
        0x0000334c:    4a77        wJ      LDR      r2,[pc,#476] ; [0x352c] = 0xe000e400
        0x0000334e:    6091        .`      STR      r1,[r2,#8]
        0x00003350:    4611        .F      MOV      r1,r2
        0x00003352:    6889        .h      LDR      r1,[r1,#8]
        0x00003354:    2201        ."      MOVS     r2,#1
        0x00003356:    0392        ..      LSLS     r2,r2,#14
        0x00003358:    4311        .C      ORRS     r1,r1,r2
        0x0000335a:    4a74        tJ      LDR      r2,[pc,#464] ; [0x352c] = 0xe000e400
        0x0000335c:    6091        .`      STR      r1,[r2,#8]
        0x0000335e:    4611        .F      MOV      r1,r2
        0x00003360:    6889        .h      LDR      r1,[r1,#8]
        0x00003362:    2201        ."      MOVS     r2,#1
        0x00003364:    0592        ..      LSLS     r2,r2,#22
        0x00003366:    4311        .C      ORRS     r1,r1,r2
        0x00003368:    4a70        pJ      LDR      r2,[pc,#448] ; [0x352c] = 0xe000e400
        0x0000336a:    6091        .`      STR      r1,[r2,#8]
        0x0000336c:    4611        .F      MOV      r1,r2
        0x0000336e:    6889        .h      LDR      r1,[r1,#8]
        0x00003370:    0512        ..      LSLS     r2,r2,#20
        0x00003372:    4311        .C      ORRS     r1,r1,r2
        0x00003374:    4a6d        mJ      LDR      r2,[pc,#436] ; [0x352c] = 0xe000e400
        0x00003376:    6091        .`      STR      r1,[r2,#8]
        0x00003378:    4611        .F      MOV      r1,r2
        0x0000337a:    68c9        .h      LDR      r1,[r1,#0xc]
        0x0000337c:    2280        ."      MOVS     r2,#0x80
        0x0000337e:    4311        .C      ORRS     r1,r1,r2
        0x00003380:    4a6a        jJ      LDR      r2,[pc,#424] ; [0x352c] = 0xe000e400
        0x00003382:    60d1        .`      STR      r1,[r2,#0xc]
        0x00003384:    4611        .F      MOV      r1,r2
        0x00003386:    68c9        .h      LDR      r1,[r1,#0xc]
        0x00003388:    2201        ."      MOVS     r2,#1
        0x0000338a:    03d2        ..      LSLS     r2,r2,#15
        0x0000338c:    4311        .C      ORRS     r1,r1,r2
        0x0000338e:    4a67        gJ      LDR      r2,[pc,#412] ; [0x352c] = 0xe000e400
        0x00003390:    60d1        .`      STR      r1,[r2,#0xc]
        0x00003392:    e0c8        ..      B        0x3526 ; Init_Interrupt_Priority + 610
        0x00003394:    4965        eI      LDR      r1,[pc,#404] ; [0x352c] = 0xe000e400
        0x00003396:    68c9        .h      LDR      r1,[r1,#0xc]
        0x00003398:    2240        @"      MOVS     r2,#0x40
        0x0000339a:    4311        .C      ORRS     r1,r1,r2
        0x0000339c:    4a63        cJ      LDR      r2,[pc,#396] ; [0x352c] = 0xe000e400
        0x0000339e:    60d1        .`      STR      r1,[r2,#0xc]
        0x000033a0:    4611        .F      MOV      r1,r2
        0x000033a2:    68c9        .h      LDR      r1,[r1,#0xc]
        0x000033a4:    2280        ."      MOVS     r2,#0x80
        0x000033a6:    4311        .C      ORRS     r1,r1,r2
        0x000033a8:    4a60        `J      LDR      r2,[pc,#384] ; [0x352c] = 0xe000e400
        0x000033aa:    60d1        .`      STR      r1,[r2,#0xc]
        0x000033ac:    4611        .F      MOV      r1,r2
        0x000033ae:    68c9        .h      LDR      r1,[r1,#0xc]
        0x000033b0:    2201        ."      MOVS     r2,#1
        0x000033b2:    0392        ..      LSLS     r2,r2,#14
        0x000033b4:    4311        .C      ORRS     r1,r1,r2
        0x000033b6:    4a5d        ]J      LDR      r2,[pc,#372] ; [0x352c] = 0xe000e400
        0x000033b8:    60d1        .`      STR      r1,[r2,#0xc]
        0x000033ba:    4611        .F      MOV      r1,r2
        0x000033bc:    68c9        .h      LDR      r1,[r1,#0xc]
        0x000033be:    2201        ."      MOVS     r2,#1
        0x000033c0:    03d2        ..      LSLS     r2,r2,#15
        0x000033c2:    4311        .C      ORRS     r1,r1,r2
        0x000033c4:    4a59        YJ      LDR      r2,[pc,#356] ; [0x352c] = 0xe000e400
        0x000033c6:    60d1        .`      STR      r1,[r2,#0xc]
        0x000033c8:    e0ad        ..      B        0x3526 ; Init_Interrupt_Priority + 610
        0x000033ca:    4958        XI      LDR      r1,[pc,#352] ; [0x352c] = 0xe000e400
        0x000033cc:    68c9        .h      LDR      r1,[r1,#0xc]
        0x000033ce:    2280        ."      MOVS     r2,#0x80
        0x000033d0:    4311        .C      ORRS     r1,r1,r2
        0x000033d2:    4a56        VJ      LDR      r2,[pc,#344] ; [0x352c] = 0xe000e400
        0x000033d4:    60d1        .`      STR      r1,[r2,#0xc]
        0x000033d6:    4611        .F      MOV      r1,r2
        0x000033d8:    68c9        .h      LDR      r1,[r1,#0xc]
        0x000033da:    2201        ."      MOVS     r2,#1
        0x000033dc:    03d2        ..      LSLS     r2,r2,#15
        0x000033de:    4311        .C      ORRS     r1,r1,r2
        0x000033e0:    4a52        RJ      LDR      r2,[pc,#328] ; [0x352c] = 0xe000e400
        0x000033e2:    60d1        .`      STR      r1,[r2,#0xc]
        0x000033e4:    e09f        ..      B        0x3526 ; Init_Interrupt_Priority + 610
        0x000033e6:    4951        QI      LDR      r1,[pc,#324] ; [0x352c] = 0xe000e400
        0x000033e8:    68c9        .h      LDR      r1,[r1,#0xc]
        0x000033ea:    2240        @"      MOVS     r2,#0x40
        0x000033ec:    4311        .C      ORRS     r1,r1,r2
        0x000033ee:    4a4f        OJ      LDR      r2,[pc,#316] ; [0x352c] = 0xe000e400
        0x000033f0:    60d1        .`      STR      r1,[r2,#0xc]
        0x000033f2:    4611        .F      MOV      r1,r2
        0x000033f4:    68c9        .h      LDR      r1,[r1,#0xc]
        0x000033f6:    2201        ."      MOVS     r2,#1
        0x000033f8:    0392        ..      LSLS     r2,r2,#14
        0x000033fa:    4311        .C      ORRS     r1,r1,r2
        0x000033fc:    4a4b        KJ      LDR      r2,[pc,#300] ; [0x352c] = 0xe000e400
        0x000033fe:    60d1        .`      STR      r1,[r2,#0xc]
        0x00003400:    e091        ..      B        0x3526 ; Init_Interrupt_Priority + 610
        0x00003402:    494b        KI      LDR      r1,[pc,#300] ; [0x3530] = 0xc0c00000
        0x00003404:    4a49        IJ      LDR      r2,[pc,#292] ; [0x352c] = 0xe000e400
        0x00003406:    6011        .`      STR      r1,[r2,#0]
        0x00003408:    6051        Q`      STR      r1,[r2,#4]
        0x0000340a:    494a        JI      LDR      r1,[pc,#296] ; [0x3534] = 0x40c0c000
        0x0000340c:    6091        .`      STR      r1,[r2,#8]
        0x0000340e:    494a        JI      LDR      r1,[pc,#296] ; [0x3538] = 0xc0c0c0
        0x00003410:    60d1        .`      STR      r1,[r2,#0xc]
        0x00003412:    494a        JI      LDR      r1,[pc,#296] ; [0x353c] = 0xc0c0c0c0
        0x00003414:    6111        .a      STR      r1,[r2,#0x10]
        0x00003416:    6191        .a      STR      r1,[r2,#0x18]
        0x00003418:    4949        II      LDR      r1,[pc,#292] ; [0x3540] = 0xc0c04000
        0x0000341a:    61d1        .a      STR      r1,[r2,#0x1c]
        0x0000341c:    e083        ..      B        0x3526 ; Init_Interrupt_Priority + 610
        0x0000341e:    4943        CI      LDR      r1,[pc,#268] ; [0x352c] = 0xe000e400
        0x00003420:    6889        .h      LDR      r1,[r1,#8]
        0x00003422:    2240        @"      MOVS     r2,#0x40
        0x00003424:    4311        .C      ORRS     r1,r1,r2
        0x00003426:    4a41        AJ      LDR      r2,[pc,#260] ; [0x352c] = 0xe000e400
        0x00003428:    6091        .`      STR      r1,[r2,#8]
        0x0000342a:    4611        .F      MOV      r1,r2
        0x0000342c:    6889        .h      LDR      r1,[r1,#8]
        0x0000342e:    2201        ."      MOVS     r2,#1
        0x00003430:    0392        ..      LSLS     r2,r2,#14
        0x00003432:    4311        .C      ORRS     r1,r1,r2
        0x00003434:    4a3d        =J      LDR      r2,[pc,#244] ; [0x352c] = 0xe000e400
        0x00003436:    6091        .`      STR      r1,[r2,#8]
        0x00003438:    4611        .F      MOV      r1,r2
        0x0000343a:    6889        .h      LDR      r1,[r1,#8]
        0x0000343c:    2201        ."      MOVS     r2,#1
        0x0000343e:    0592        ..      LSLS     r2,r2,#22
        0x00003440:    4311        .C      ORRS     r1,r1,r2
        0x00003442:    4a3a        :J      LDR      r2,[pc,#232] ; [0x352c] = 0xe000e400
        0x00003444:    6091        .`      STR      r1,[r2,#8]
        0x00003446:    4611        .F      MOV      r1,r2
        0x00003448:    6889        .h      LDR      r1,[r1,#8]
        0x0000344a:    0512        ..      LSLS     r2,r2,#20
        0x0000344c:    4311        .C      ORRS     r1,r1,r2
        0x0000344e:    4a37        7J      LDR      r2,[pc,#220] ; [0x352c] = 0xe000e400
        0x00003450:    6091        .`      STR      r1,[r2,#8]
        0x00003452:    4611        .F      MOV      r1,r2
        0x00003454:    68c9        .h      LDR      r1,[r1,#0xc]
        0x00003456:    2240        @"      MOVS     r2,#0x40
        0x00003458:    4311        .C      ORRS     r1,r1,r2
        0x0000345a:    4a34        4J      LDR      r2,[pc,#208] ; [0x352c] = 0xe000e400
        0x0000345c:    60d1        .`      STR      r1,[r2,#0xc]
        0x0000345e:    4611        .F      MOV      r1,r2
        0x00003460:    68c9        .h      LDR      r1,[r1,#0xc]
        0x00003462:    2201        ."      MOVS     r2,#1
        0x00003464:    0392        ..      LSLS     r2,r2,#14
        0x00003466:    4311        .C      ORRS     r1,r1,r2
        0x00003468:    4a30        0J      LDR      r2,[pc,#192] ; [0x352c] = 0xe000e400
        0x0000346a:    60d1        .`      STR      r1,[r2,#0xc]
        0x0000346c:    e05b        [.      B        0x3526 ; Init_Interrupt_Priority + 610
        0x0000346e:    492f        /I      LDR      r1,[pc,#188] ; [0x352c] = 0xe000e400
        0x00003470:    6889        .h      LDR      r1,[r1,#8]
        0x00003472:    2240        @"      MOVS     r2,#0x40
        0x00003474:    4311        .C      ORRS     r1,r1,r2
        0x00003476:    4a2d        -J      LDR      r2,[pc,#180] ; [0x352c] = 0xe000e400
        0x00003478:    6091        .`      STR      r1,[r2,#8]
        0x0000347a:    4611        .F      MOV      r1,r2
        0x0000347c:    6889        .h      LDR      r1,[r1,#8]
        0x0000347e:    2201        ."      MOVS     r2,#1
        0x00003480:    0392        ..      LSLS     r2,r2,#14
        0x00003482:    4311        .C      ORRS     r1,r1,r2
        0x00003484:    4a29        )J      LDR      r2,[pc,#164] ; [0x352c] = 0xe000e400
        0x00003486:    6091        .`      STR      r1,[r2,#8]
        0x00003488:    4611        .F      MOV      r1,r2
        0x0000348a:    6889        .h      LDR      r1,[r1,#8]
        0x0000348c:    2201        ."      MOVS     r2,#1
        0x0000348e:    0592        ..      LSLS     r2,r2,#22
        0x00003490:    4311        .C      ORRS     r1,r1,r2
        0x00003492:    4a26        &J      LDR      r2,[pc,#152] ; [0x352c] = 0xe000e400
        0x00003494:    6091        .`      STR      r1,[r2,#8]
        0x00003496:    4611        .F      MOV      r1,r2
        0x00003498:    6889        .h      LDR      r1,[r1,#8]
        0x0000349a:    0512        ..      LSLS     r2,r2,#20
        0x0000349c:    4311        .C      ORRS     r1,r1,r2
        0x0000349e:    4a23        #J      LDR      r2,[pc,#140] ; [0x352c] = 0xe000e400
        0x000034a0:    6091        .`      STR      r1,[r2,#8]
        0x000034a2:    e040        @.      B        0x3526 ; Init_Interrupt_Priority + 610
        0x000034a4:    4921        !I      LDR      r1,[pc,#132] ; [0x352c] = 0xe000e400
        0x000034a6:    6889        .h      LDR      r1,[r1,#8]
        0x000034a8:    2240        @"      MOVS     r2,#0x40
        0x000034aa:    4311        .C      ORRS     r1,r1,r2
        0x000034ac:    4a1f        .J      LDR      r2,[pc,#124] ; [0x352c] = 0xe000e400
        0x000034ae:    6091        .`      STR      r1,[r2,#8]
        0x000034b0:    4611        .F      MOV      r1,r2
        0x000034b2:    6889        .h      LDR      r1,[r1,#8]
        0x000034b4:    2201        ."      MOVS     r2,#1
        0x000034b6:    0392        ..      LSLS     r2,r2,#14
        0x000034b8:    4311        .C      ORRS     r1,r1,r2
        0x000034ba:    4a1c        .J      LDR      r2,[pc,#112] ; [0x352c] = 0xe000e400
        0x000034bc:    6091        .`      STR      r1,[r2,#8]
        0x000034be:    4611        .F      MOV      r1,r2
        0x000034c0:    6889        .h      LDR      r1,[r1,#8]
        0x000034c2:    2201        ."      MOVS     r2,#1
        0x000034c4:    0592        ..      LSLS     r2,r2,#22
        0x000034c6:    e000        ..      B        0x34ca ; Init_Interrupt_Priority + 518
        0x000034c8:    e01f        ..      B        0x350a ; Init_Interrupt_Priority + 582
        0x000034ca:    4311        .C      ORRS     r1,r1,r2
        0x000034cc:    4a17        .J      LDR      r2,[pc,#92] ; [0x352c] = 0xe000e400
        0x000034ce:    6091        .`      STR      r1,[r2,#8]
        0x000034d0:    4611        .F      MOV      r1,r2
        0x000034d2:    6889        .h      LDR      r1,[r1,#8]
        0x000034d4:    0512        ..      LSLS     r2,r2,#20
        0x000034d6:    4311        .C      ORRS     r1,r1,r2
        0x000034d8:    4a14        .J      LDR      r2,[pc,#80] ; [0x352c] = 0xe000e400
        0x000034da:    6091        .`      STR      r1,[r2,#8]
        0x000034dc:    4611        .F      MOV      r1,r2
        0x000034de:    68c9        .h      LDR      r1,[r1,#0xc]
        0x000034e0:    2280        ."      MOVS     r2,#0x80
        0x000034e2:    4311        .C      ORRS     r1,r1,r2
        0x000034e4:    4a11        .J      LDR      r2,[pc,#68] ; [0x352c] = 0xe000e400
        0x000034e6:    60d1        .`      STR      r1,[r2,#0xc]
        0x000034e8:    4611        .F      MOV      r1,r2
        0x000034ea:    68c9        .h      LDR      r1,[r1,#0xc]
        0x000034ec:    2201        ."      MOVS     r2,#1
        0x000034ee:    03d2        ..      LSLS     r2,r2,#15
        0x000034f0:    4311        .C      ORRS     r1,r1,r2
        0x000034f2:    4a0e        .J      LDR      r2,[pc,#56] ; [0x352c] = 0xe000e400
        0x000034f4:    60d1        .`      STR      r1,[r2,#0xc]
        0x000034f6:    4611        .F      MOV      r1,r2
        0x000034f8:    68c9        .h      LDR      r1,[r1,#0xc]
        0x000034fa:    0552        R.      LSLS     r2,r2,#21
        0x000034fc:    4311        .C      ORRS     r1,r1,r2
        0x000034fe:    4a0b        .J      LDR      r2,[pc,#44] ; [0x352c] = 0xe000e400
        0x00003500:    60d1        .`      STR      r1,[r2,#0xc]
        0x00003502:    490e        .I      LDR      r1,[pc,#56] ; [0x353c] = 0xc0c0c0c0
        0x00003504:    6151        Qa      STR      r1,[r2,#0x14]
        0x00003506:    6191        .a      STR      r1,[r2,#0x18]
        0x00003508:    e00d        ..      B        0x3526 ; Init_Interrupt_Priority + 610
        0x0000350a:    4909        .I      LDR      r1,[pc,#36] ; [0x3530] = 0xc0c00000
        0x0000350c:    4a07        .J      LDR      r2,[pc,#28] ; [0x352c] = 0xe000e400
        0x0000350e:    6011        .`      STR      r1,[r2,#0]
        0x00003510:    6051        Q`      STR      r1,[r2,#4]
        0x00003512:    490c        .I      LDR      r1,[pc,#48] ; [0x3544] = 0x40404000
        0x00003514:    6091        .`      STR      r1,[r2,#8]
        0x00003516:    4908        .I      LDR      r1,[pc,#32] ; [0x3538] = 0xc0c0c0
        0x00003518:    60d1        .`      STR      r1,[r2,#0xc]
        0x0000351a:    4908        .I      LDR      r1,[pc,#32] ; [0x353c] = 0xc0c0c0c0
        0x0000351c:    6111        .a      STR      r1,[r2,#0x10]
        0x0000351e:    6191        .a      STR      r1,[r2,#0x18]
        0x00003520:    4907        .I      LDR      r1,[pc,#28] ; [0x3540] = 0xc0c04000
        0x00003522:    61d1        .a      STR      r1,[r2,#0x1c]
        0x00003524:    bf00        ..      NOP      
        0x00003526:    bf00        ..      NOP      
        0x00003528:    bd00        ..      POP      {pc}
    $d
        0x0000352a:    0000        ..      DCW    0
        0x0000352c:    e000e400    ....    DCD    3758154752
        0x00003530:    c0c00000    ....    DCD    3233808384
        0x00003534:    40c0c000    ...@    DCD    1086373888
        0x00003538:    00c0c0c0    ....    DCD    12632256
        0x0000353c:    c0c0c0c0    ....    DCD    3233857728
        0x00003540:    c0c04000    .@..    DCD    3233824768
        0x00003544:    40404000    .@@@    DCD    1077952512
    $t
    .text
    __2printf
        0x00003548:    b40f        ..      PUSH     {r0-r3}
        0x0000354a:    4905        .I      LDR      r1,[pc,#20] ; [0x3560] = 0x20000094
        0x0000354c:    b510        ..      PUSH     {r4,lr}
        0x0000354e:    aa03        ..      ADD      r2,sp,#0xc
        0x00003550:    9802        ..      LDR      r0,[sp,#8]
        0x00003552:    f001fa9d    ....    BL       _printf_char_file ; 0x4a90
        0x00003556:    bc10        ..      POP      {r4}
        0x00003558:    bc08        ..      POP      {r3}
        0x0000355a:    b004        ..      ADD      sp,sp,#0x10
        0x0000355c:    4718        .G      BX       r3
    $d
        0x0000355e:    0000        ..      DCW    0
        0x00003560:    20000094    ...     DCD    536871060
    $t
    .text
    _printf_int_dec
        0x00003564:    b5f7        ..      PUSH     {r0-r2,r4-r7,lr}
        0x00003566:    2500        .%      MOVS     r5,#0
        0x00003568:    2975        u)      CMP      r1,#0x75
        0x0000356a:    6810        .h      LDR      r0,[r2,#0]
        0x0000356c:    9900        ..      LDR      r1,[sp,#0]
        0x0000356e:    a614        ..      ADR      r6,{pc}+0x52 ; 0x35c0
        0x00003570:    d011        ..      BEQ      0x3596 ; _printf_int_dec + 50
        0x00003572:    46c0        .F      MOV      r8,r8
        0x00003574:    46c0        .F      MOV      r8,r8
        0x00003576:    2800        .(      CMP      r0,#0
        0x00003578:    da02        ..      BGE      0x3580 ; _printf_int_dec + 28
        0x0000357a:    4240        @B      RSBS     r0,r0,#0
        0x0000357c:    a611        ..      ADR      r6,{pc}+0x48 ; 0x35c4
        0x0000357e:    e008        ..      B        0x3592 ; _printf_int_dec + 46
        0x00003580:    9900        ..      LDR      r1,[sp,#0]
        0x00003582:    6809        .h      LDR      r1,[r1,#0]
        0x00003584:    078a        ..      LSLS     r2,r1,#30
        0x00003586:    d501        ..      BPL      0x358c ; _printf_int_dec + 40
        0x00003588:    a60f        ..      ADR      r6,{pc}+0x40 ; 0x35c8
        0x0000358a:    e002        ..      B        0x3592 ; _printf_int_dec + 46
        0x0000358c:    0749        I.      LSLS     r1,r1,#29
        0x0000358e:    d504        ..      BPL      0x359a ; _printf_int_dec + 54
        0x00003590:    a60e        ..      ADR      r6,{pc}+0x3c ; 0x35cc
        0x00003592:    2501        .%      MOVS     r5,#1
        0x00003594:    e001        ..      B        0x359a ; _printf_int_dec + 54
        0x00003596:    46c0        .F      MOV      r8,r8
        0x00003598:    46c0        .F      MOV      r8,r8
        0x0000359a:    9f00        ..      LDR      r7,[sp,#0]
        0x0000359c:    2400        .$      MOVS     r4,#0
        0x0000359e:    3724        $7      ADDS     r7,r7,#0x24
        0x000035a0:    e004        ..      B        0x35ac ; _printf_int_dec + 72
        0x000035a2:    f001fa89    ....    BL       __rt_udiv10 ; 0x4ab8
        0x000035a6:    3130        01      ADDS     r1,r1,#0x30
        0x000035a8:    5539        9U      STRB     r1,[r7,r4]
        0x000035aa:    1c64        d.      ADDS     r4,r4,#1
        0x000035ac:    2800        .(      CMP      r0,#0
        0x000035ae:    d1f8        ..      BNE      0x35a2 ; _printf_int_dec + 62
        0x000035b0:    462b        +F      MOV      r3,r5
        0x000035b2:    4632        2F      MOV      r2,r6
        0x000035b4:    4621        !F      MOV      r1,r4
        0x000035b6:    9800        ..      LDR      r0,[sp,#0]
        0x000035b8:    f001f808    ....    BL       _printf_int_common ; 0x45cc
        0x000035bc:    bdfe        ..      POP      {r1-r7,pc}
    $d
        0x000035be:    0000        ..      DCW    0
        0x000035c0:    00000000    ....    DCD    0
        0x000035c4:    0000002d    -...    DCD    45
        0x000035c8:    0000002b    +...    DCD    43
        0x000035cc:    00000020     ...    DCD    32
    $t
    .text
    __printf
        0x000035d0:    b5f3        ..      PUSH     {r0,r1,r4-r7,lr}
        0x000035d2:    4604        .F      MOV      r4,r0
        0x000035d4:    2000        .       MOVS     r0,#0
        0x000035d6:    b081        ..      SUB      sp,sp,#4
        0x000035d8:    6220         b      STR      r0,[r4,#0x20]
        0x000035da:    4620         F      MOV      r0,r4
        0x000035dc:    68e1        .h      LDR      r1,[r4,#0xc]
        0x000035de:    4788        .G      BLX      r1
        0x000035e0:    2800        .(      CMP      r0,#0
        0x000035e2:    d072        r.      BEQ      0x36ca ; __printf + 250
        0x000035e4:    2825        %(      CMP      r0,#0x25
        0x000035e6:    d002        ..      BEQ      0x35ee ; __printf + 30
        0x000035e8:    6862        bh      LDR      r2,[r4,#4]
        0x000035ea:    68a1        .h      LDR      r1,[r4,#8]
        0x000035ec:    e09a        ..      B        0x3724 ; __printf + 340
        0x000035ee:    68e1        .h      LDR      r1,[r4,#0xc]
        0x000035f0:    4620         F      MOV      r0,r4
        0x000035f2:    2600        .&      MOVS     r6,#0
        0x000035f4:    4788        .G      BLX      r1
        0x000035f6:    4605        .F      MOV      r5,r0
        0x000035f8:    2000        .       MOVS     r0,#0
        0x000035fa:    61e0        .a      STR      r0,[r4,#0x1c]
        0x000035fc:    4607        .F      MOV      r7,r0
        0x000035fe:    61a0        .a      STR      r0,[r4,#0x18]
        0x00003600:    2d2a        *-      CMP      r5,#0x2a
        0x00003602:    d00a        ..      BEQ      0x361a ; __printf + 74
        0x00003604:    4628        (F      MOV      r0,r5
        0x00003606:    f002faeb    ....    BL       _is_digit ; 0x5be0
        0x0000360a:    2800        .(      CMP      r0,#0
        0x0000360c:    d027        '.      BEQ      0x365e ; __printf + 142
        0x0000360e:    3d30        0=      SUBS     r5,r5,#0x30
        0x00003610:    00b8        ..      LSLS     r0,r7,#2
        0x00003612:    1900        ..      ADDS     r0,r0,r4
        0x00003614:    9000        ..      STR      r0,[sp,#0]
        0x00003616:    6185        .a      STR      r5,[r0,#0x18]
        0x00003618:    e019        ..      B        0x364e ; __printf + 126
        0x0000361a:    9802        ..      LDR      r0,[sp,#8]
        0x0000361c:    00ba        ..      LSLS     r2,r7,#2
        0x0000361e:    1912        ..      ADDS     r2,r2,r4
        0x00003620:    c802        ..      LDM      r0!,{r1}
        0x00003622:    6191        .a      STR      r1,[r2,#0x18]
        0x00003624:    9002        ..      STR      r0,[sp,#8]
        0x00003626:    4620         F      MOV      r0,r4
        0x00003628:    68e1        .h      LDR      r1,[r4,#0xc]
        0x0000362a:    4788        .G      BLX      r1
        0x0000362c:    2f01        ./      CMP      r7,#1
        0x0000362e:    4605        .F      MOV      r5,r0
        0x00003630:    d117        ..      BNE      0x3662 ; __printf + 146
        0x00003632:    69e0        .i      LDR      r0,[r4,#0x1c]
        0x00003634:    2800        .(      CMP      r0,#0
        0x00003636:    da1f        ..      BGE      0x3678 ; __printf + 168
        0x00003638:    2020                MOVS     r0,#0x20
        0x0000363a:    4386        .C      BICS     r6,r6,r0
        0x0000363c:    e01c        ..      B        0x3678 ; __printf + 168
        0x0000363e:    9800        ..      LDR      r0,[sp,#0]
        0x00003640:    210a        .!      MOVS     r1,#0xa
        0x00003642:    6980        .i      LDR      r0,[r0,#0x18]
        0x00003644:    4348        HC      MULS     r0,r1,r0
        0x00003646:    9900        ..      LDR      r1,[sp,#0]
        0x00003648:    1940        @.      ADDS     r0,r0,r5
        0x0000364a:    3830        08      SUBS     r0,r0,#0x30
        0x0000364c:    6188        .a      STR      r0,[r1,#0x18]
        0x0000364e:    4620         F      MOV      r0,r4
        0x00003650:    68e1        .h      LDR      r1,[r4,#0xc]
        0x00003652:    4788        .G      BLX      r1
        0x00003654:    4605        .F      MOV      r5,r0
        0x00003656:    f002fac3    ....    BL       _is_digit ; 0x5be0
        0x0000365a:    2800        .(      CMP      r0,#0
        0x0000365c:    d1ef        ..      BNE      0x363e ; __printf + 110
        0x0000365e:    2f01        ./      CMP      r7,#1
        0x00003660:    d00a        ..      BEQ      0x3678 ; __printf + 168
        0x00003662:    2d2e        .-      CMP      r5,#0x2e
        0x00003664:    d108        ..      BNE      0x3678 ; __printf + 168
        0x00003666:    4620         F      MOV      r0,r4
        0x00003668:    68e1        .h      LDR      r1,[r4,#0xc]
        0x0000366a:    4788        .G      BLX      r1
        0x0000366c:    4605        .F      MOV      r5,r0
        0x0000366e:    2020                MOVS     r0,#0x20
        0x00003670:    4306        .C      ORRS     r6,r6,r0
        0x00003672:    1c7f        ..      ADDS     r7,r7,#1
        0x00003674:    2f02        ./      CMP      r7,#2
        0x00003676:    dbc3        ..      BLT      0x3600 ; __printf + 48
        0x00003678:    69a0        .i      LDR      r0,[r4,#0x18]
        0x0000367a:    2800        .(      CMP      r0,#0
        0x0000367c:    da03        ..      BGE      0x3686 ; __printf + 182
        0x0000367e:    4240        @B      RSBS     r0,r0,#0
        0x00003680:    61a0        .a      STR      r0,[r4,#0x18]
        0x00003682:    2001        .       MOVS     r0,#1
        0x00003684:    4306        .C      ORRS     r6,r6,r0
        0x00003686:    07f0        ..      LSLS     r0,r6,#31
        0x00003688:    d001        ..      BEQ      0x368e ; __printf + 190
        0x0000368a:    2010        .       MOVS     r0,#0x10
        0x0000368c:    4386        .C      BICS     r6,r6,r0
        0x0000368e:    2d6c        l-      CMP      r5,#0x6c
        0x00003690:    d00a        ..      BEQ      0x36a8 ; __printf + 216
        0x00003692:    2d68        h-      CMP      r5,#0x68
        0x00003694:    d008        ..      BEQ      0x36a8 ; __printf + 216
        0x00003696:    2d4c        L-      CMP      r5,#0x4c
        0x00003698:    d03c        <.      BEQ      0x3714 ; __printf + 324
        0x0000369a:    2d6a        j-      CMP      r5,#0x6a
        0x0000369c:    d038        8.      BEQ      0x3710 ; __printf + 320
        0x0000369e:    2d74        t-      CMP      r5,#0x74
        0x000036a0:    d038        8.      BEQ      0x3714 ; __printf + 324
        0x000036a2:    2d7a        z-      CMP      r5,#0x7a
        0x000036a4:    d036        6.      BEQ      0x3714 ; __printf + 324
        0x000036a6:    e016        ..      B        0x36d6 ; __printf + 262
        0x000036a8:    68e1        .h      LDR      r1,[r4,#0xc]
        0x000036aa:    462f        /F      MOV      r7,r5
        0x000036ac:    4620         F      MOV      r0,r4
        0x000036ae:    4788        .G      BLX      r1
        0x000036b0:    42b8        .B      CMP      r0,r7
        0x000036b2:    4605        .F      MOV      r5,r0
        0x000036b4:    d10a        ..      BNE      0x36cc ; __printf + 252
        0x000036b6:    2f6c        l/      CMP      r7,#0x6c
        0x000036b8:    d02a        *.      BEQ      0x3710 ; __printf + 320
        0x000036ba:    2001        .       MOVS     r0,#1
        0x000036bc:    0280        ..      LSLS     r0,r0,#10
        0x000036be:    68e1        .h      LDR      r1,[r4,#0xc]
        0x000036c0:    4306        .C      ORRS     r6,r6,r0
        0x000036c2:    4620         F      MOV      r0,r4
        0x000036c4:    4788        .G      BLX      r1
        0x000036c6:    4605        .F      MOV      r5,r0
        0x000036c8:    e005        ..      B        0x36d6 ; __printf + 262
        0x000036ca:    e02f        /.      B        0x372c ; __printf + 348
        0x000036cc:    2f6c        l/      CMP      r7,#0x6c
        0x000036ce:    d01d        ..      BEQ      0x370c ; __printf + 316
        0x000036d0:    20ff        .       MOVS     r0,#0xff
        0x000036d2:    3001        .0      ADDS     r0,#1
        0x000036d4:    4306        .C      ORRS     r6,r6,r0
        0x000036d6:    2d00        .-      CMP      r5,#0
        0x000036d8:    d028        (.      BEQ      0x372c ; __printf + 348
        0x000036da:    4628        (F      MOV      r0,r5
        0x000036dc:    3841        A8      SUBS     r0,r0,#0x41
        0x000036de:    2819        .(      CMP      r0,#0x19
        0x000036e0:    d803        ..      BHI      0x36ea ; __printf + 282
        0x000036e2:    2001        .       MOVS     r0,#1
        0x000036e4:    02c0        ..      LSLS     r0,r0,#11
        0x000036e6:    4306        .C      ORRS     r6,r6,r0
        0x000036e8:    3520         5      ADDS     r5,r5,#0x20
        0x000036ea:    4620         F      MOV      r0,r4
        0x000036ec:    6026        &`      STR      r6,[r4,#0]
        0x000036ee:    4629        )F      MOV      r1,r5
        0x000036f0:    9a02        ..      LDR      r2,[sp,#8]
        0x000036f2:    4616        .F      MOV      r6,r2
        0x000036f4:    f7fcfd14    ....    BL       _printf_percent ; 0x120
        0x000036f8:    2800        .(      CMP      r0,#0
        0x000036fa:    d010        ..      BEQ      0x371e ; __printf + 334
        0x000036fc:    2801        .(      CMP      r0,#1
        0x000036fe:    d00b        ..      BEQ      0x3718 ; __printf + 328
        0x00003700:    1df6        ..      ADDS     r6,r6,#7
        0x00003702:    08f0        ..      LSRS     r0,r6,#3
        0x00003704:    00c0        ..      LSLS     r0,r0,#3
        0x00003706:    3008        .0      ADDS     r0,r0,#8
        0x00003708:    9002        ..      STR      r0,[sp,#8]
        0x0000370a:    e766        f.      B        0x35da ; __printf + 10
        0x0000370c:    2040        @       MOVS     r0,#0x40
        0x0000370e:    e7e1        ..      B        0x36d4 ; __printf + 260
        0x00003710:    2080        .       MOVS     r0,#0x80
        0x00003712:    e7d4        ..      B        0x36be ; __printf + 238
        0x00003714:    2000        .       MOVS     r0,#0
        0x00003716:    e7d2        ..      B        0x36be ; __printf + 238
        0x00003718:    1d36        6.      ADDS     r6,r6,#4
        0x0000371a:    9602        ..      STR      r6,[sp,#8]
        0x0000371c:    e75d        ].      B        0x35da ; __printf + 10
        0x0000371e:    6862        bh      LDR      r2,[r4,#4]
        0x00003720:    4628        (F      MOV      r0,r5
        0x00003722:    68a1        .h      LDR      r1,[r4,#8]
        0x00003724:    4790        .G      BLX      r2
        0x00003726:    6a20         j      LDR      r0,[r4,#0x20]
        0x00003728:    1c40        @.      ADDS     r0,r0,#1
        0x0000372a:    e755        U.      B        0x35d8 ; __printf + 8
        0x0000372c:    6a20         j      LDR      r0,[r4,#0x20]
        0x0000372e:    bdfe        ..      POP      {r1-r7,pc}
    .text
    __aeabi_uidiv
    __aeabi_uidivmod
        0x00003730:    2200        ."      MOVS     r2,#0
        0x00003732:    0903        ..      LSRS     r3,r0,#4
        0x00003734:    428b        .B      CMP      r3,r1
        0x00003736:    d32c        ,.      BCC      0x3792 ; __aeabi_idiv + 78
        0x00003738:    0a03        ..      LSRS     r3,r0,#8
        0x0000373a:    428b        .B      CMP      r3,r1
        0x0000373c:    d311        ..      BCC      0x3762 ; __aeabi_idiv + 30
        0x0000373e:    2300        .#      MOVS     r3,#0
        0x00003740:    469c        .F      MOV      r12,r3
        0x00003742:    e04e        N.      B        0x37e2 ; __aeabi_idiv + 158
    __aeabi_idiv
    __aeabi_idivmod
        0x00003744:    4603        .F      MOV      r3,r0
        0x00003746:    430b        .C      ORRS     r3,r3,r1
        0x00003748:    d43c        <.      BMI      0x37c4 ; __aeabi_idiv + 128
        0x0000374a:    2200        ."      MOVS     r2,#0
        0x0000374c:    0843        C.      LSRS     r3,r0,#1
        0x0000374e:    428b        .B      CMP      r3,r1
        0x00003750:    d331        1.      BCC      0x37b6 ; __aeabi_idiv + 114
        0x00003752:    0903        ..      LSRS     r3,r0,#4
        0x00003754:    428b        .B      CMP      r3,r1
        0x00003756:    d31c        ..      BCC      0x3792 ; __aeabi_idiv + 78
        0x00003758:    0a03        ..      LSRS     r3,r0,#8
        0x0000375a:    428b        .B      CMP      r3,r1
        0x0000375c:    d301        ..      BCC      0x3762 ; __aeabi_idiv + 30
        0x0000375e:    4694        .F      MOV      r12,r2
        0x00003760:    e03f        ?.      B        0x37e2 ; __aeabi_idiv + 158
        0x00003762:    09c3        ..      LSRS     r3,r0,#7
        0x00003764:    428b        .B      CMP      r3,r1
        0x00003766:    d301        ..      BCC      0x376c ; __aeabi_idiv + 40
        0x00003768:    01cb        ..      LSLS     r3,r1,#7
        0x0000376a:    1ac0        ..      SUBS     r0,r0,r3
        0x0000376c:    4152        RA      ADCS     r2,r2,r2
        0x0000376e:    0983        ..      LSRS     r3,r0,#6
        0x00003770:    428b        .B      CMP      r3,r1
        0x00003772:    d301        ..      BCC      0x3778 ; __aeabi_idiv + 52
        0x00003774:    018b        ..      LSLS     r3,r1,#6
        0x00003776:    1ac0        ..      SUBS     r0,r0,r3
        0x00003778:    4152        RA      ADCS     r2,r2,r2
        0x0000377a:    0943        C.      LSRS     r3,r0,#5
        0x0000377c:    428b        .B      CMP      r3,r1
        0x0000377e:    d301        ..      BCC      0x3784 ; __aeabi_idiv + 64
        0x00003780:    014b        K.      LSLS     r3,r1,#5
        0x00003782:    1ac0        ..      SUBS     r0,r0,r3
        0x00003784:    4152        RA      ADCS     r2,r2,r2
        0x00003786:    0903        ..      LSRS     r3,r0,#4
        0x00003788:    428b        .B      CMP      r3,r1
        0x0000378a:    d301        ..      BCC      0x3790 ; __aeabi_idiv + 76
        0x0000378c:    010b        ..      LSLS     r3,r1,#4
        0x0000378e:    1ac0        ..      SUBS     r0,r0,r3
        0x00003790:    4152        RA      ADCS     r2,r2,r2
        0x00003792:    08c3        ..      LSRS     r3,r0,#3
        0x00003794:    428b        .B      CMP      r3,r1
        0x00003796:    d301        ..      BCC      0x379c ; __aeabi_idiv + 88
        0x00003798:    00cb        ..      LSLS     r3,r1,#3
        0x0000379a:    1ac0        ..      SUBS     r0,r0,r3
        0x0000379c:    4152        RA      ADCS     r2,r2,r2
        0x0000379e:    0883        ..      LSRS     r3,r0,#2
        0x000037a0:    428b        .B      CMP      r3,r1
        0x000037a2:    d301        ..      BCC      0x37a8 ; __aeabi_idiv + 100
        0x000037a4:    008b        ..      LSLS     r3,r1,#2
        0x000037a6:    1ac0        ..      SUBS     r0,r0,r3
        0x000037a8:    4152        RA      ADCS     r2,r2,r2
        0x000037aa:    0843        C.      LSRS     r3,r0,#1
        0x000037ac:    428b        .B      CMP      r3,r1
        0x000037ae:    d301        ..      BCC      0x37b4 ; __aeabi_idiv + 112
        0x000037b0:    004b        K.      LSLS     r3,r1,#1
        0x000037b2:    1ac0        ..      SUBS     r0,r0,r3
        0x000037b4:    4152        RA      ADCS     r2,r2,r2
        0x000037b6:    1a41        A.      SUBS     r1,r0,r1
        0x000037b8:    d200        ..      BCS      0x37bc ; __aeabi_idiv + 120
        0x000037ba:    4601        .F      MOV      r1,r0
        0x000037bc:    4152        RA      ADCS     r2,r2,r2
        0x000037be:    4610        .F      MOV      r0,r2
        0x000037c0:    4770        pG      BX       lr
        0x000037c2:    e05d        ].      B        0x3880 ; __aeabi_idiv + 316
        0x000037c4:    0fca        ..      LSRS     r2,r1,#31
        0x000037c6:    d000        ..      BEQ      0x37ca ; __aeabi_idiv + 134
        0x000037c8:    4249        IB      RSBS     r1,r1,#0
        0x000037ca:    1003        ..      ASRS     r3,r0,#32
        0x000037cc:    d300        ..      BCC      0x37d0 ; __aeabi_idiv + 140
        0x000037ce:    4240        @B      RSBS     r0,r0,#0
        0x000037d0:    4053        S@      EORS     r3,r3,r2
        0x000037d2:    2200        ."      MOVS     r2,#0
        0x000037d4:    469c        .F      MOV      r12,r3
        0x000037d6:    0903        ..      LSRS     r3,r0,#4
        0x000037d8:    428b        .B      CMP      r3,r1
        0x000037da:    d32d        -.      BCC      0x3838 ; __aeabi_idiv + 244
        0x000037dc:    0a03        ..      LSRS     r3,r0,#8
        0x000037de:    428b        .B      CMP      r3,r1
        0x000037e0:    d312        ..      BCC      0x3808 ; __aeabi_idiv + 196
        0x000037e2:    22fc        ."      MOVS     r2,#0xfc
        0x000037e4:    0189        ..      LSLS     r1,r1,#6
        0x000037e6:    ba12        ..      REV      r2,r2
        0x000037e8:    0a03        ..      LSRS     r3,r0,#8
        0x000037ea:    428b        .B      CMP      r3,r1
        0x000037ec:    d30c        ..      BCC      0x3808 ; __aeabi_idiv + 196
        0x000037ee:    0189        ..      LSLS     r1,r1,#6
        0x000037f0:    1192        ..      ASRS     r2,r2,#6
        0x000037f2:    428b        .B      CMP      r3,r1
        0x000037f4:    d308        ..      BCC      0x3808 ; __aeabi_idiv + 196
        0x000037f6:    0189        ..      LSLS     r1,r1,#6
        0x000037f8:    1192        ..      ASRS     r2,r2,#6
        0x000037fa:    428b        .B      CMP      r3,r1
        0x000037fc:    d304        ..      BCC      0x3808 ; __aeabi_idiv + 196
        0x000037fe:    0189        ..      LSLS     r1,r1,#6
        0x00003800:    d03a        :.      BEQ      0x3878 ; __aeabi_idiv + 308
        0x00003802:    1192        ..      ASRS     r2,r2,#6
        0x00003804:    e000        ..      B        0x3808 ; __aeabi_idiv + 196
        0x00003806:    0989        ..      LSRS     r1,r1,#6
        0x00003808:    09c3        ..      LSRS     r3,r0,#7
        0x0000380a:    428b        .B      CMP      r3,r1
        0x0000380c:    d301        ..      BCC      0x3812 ; __aeabi_idiv + 206
        0x0000380e:    01cb        ..      LSLS     r3,r1,#7
        0x00003810:    1ac0        ..      SUBS     r0,r0,r3
        0x00003812:    4152        RA      ADCS     r2,r2,r2
        0x00003814:    0983        ..      LSRS     r3,r0,#6
        0x00003816:    428b        .B      CMP      r3,r1
        0x00003818:    d301        ..      BCC      0x381e ; __aeabi_idiv + 218
        0x0000381a:    018b        ..      LSLS     r3,r1,#6
        0x0000381c:    1ac0        ..      SUBS     r0,r0,r3
        0x0000381e:    4152        RA      ADCS     r2,r2,r2
        0x00003820:    0943        C.      LSRS     r3,r0,#5
        0x00003822:    428b        .B      CMP      r3,r1
        0x00003824:    d301        ..      BCC      0x382a ; __aeabi_idiv + 230
        0x00003826:    014b        K.      LSLS     r3,r1,#5
        0x00003828:    1ac0        ..      SUBS     r0,r0,r3
        0x0000382a:    4152        RA      ADCS     r2,r2,r2
        0x0000382c:    0903        ..      LSRS     r3,r0,#4
        0x0000382e:    428b        .B      CMP      r3,r1
        0x00003830:    d301        ..      BCC      0x3836 ; __aeabi_idiv + 242
        0x00003832:    010b        ..      LSLS     r3,r1,#4
        0x00003834:    1ac0        ..      SUBS     r0,r0,r3
        0x00003836:    4152        RA      ADCS     r2,r2,r2
        0x00003838:    08c3        ..      LSRS     r3,r0,#3
        0x0000383a:    428b        .B      CMP      r3,r1
        0x0000383c:    d301        ..      BCC      0x3842 ; __aeabi_idiv + 254
        0x0000383e:    00cb        ..      LSLS     r3,r1,#3
        0x00003840:    1ac0        ..      SUBS     r0,r0,r3
        0x00003842:    4152        RA      ADCS     r2,r2,r2
        0x00003844:    0883        ..      LSRS     r3,r0,#2
        0x00003846:    428b        .B      CMP      r3,r1
        0x00003848:    d301        ..      BCC      0x384e ; __aeabi_idiv + 266
        0x0000384a:    008b        ..      LSLS     r3,r1,#2
        0x0000384c:    1ac0        ..      SUBS     r0,r0,r3
        0x0000384e:    4152        RA      ADCS     r2,r2,r2
        0x00003850:    d2d9        ..      BCS      0x3806 ; __aeabi_idiv + 194
        0x00003852:    0843        C.      LSRS     r3,r0,#1
        0x00003854:    428b        .B      CMP      r3,r1
        0x00003856:    d301        ..      BCC      0x385c ; __aeabi_idiv + 280
        0x00003858:    004b        K.      LSLS     r3,r1,#1
        0x0000385a:    1ac0        ..      SUBS     r0,r0,r3
        0x0000385c:    4152        RA      ADCS     r2,r2,r2
        0x0000385e:    1a41        A.      SUBS     r1,r0,r1
        0x00003860:    d200        ..      BCS      0x3864 ; __aeabi_idiv + 288
        0x00003862:    4601        .F      MOV      r1,r0
        0x00003864:    4663        cF      MOV      r3,r12
        0x00003866:    4152        RA      ADCS     r2,r2,r2
        0x00003868:    105b        [.      ASRS     r3,r3,#1
        0x0000386a:    4610        .F      MOV      r0,r2
        0x0000386c:    d301        ..      BCC      0x3872 ; __aeabi_idiv + 302
        0x0000386e:    4240        @B      RSBS     r0,r0,#0
        0x00003870:    2b00        .+      CMP      r3,#0
        0x00003872:    d500        ..      BPL      0x3876 ; __aeabi_idiv + 306
        0x00003874:    4249        IB      RSBS     r1,r1,#0
        0x00003876:    4770        pG      BX       lr
        0x00003878:    4663        cF      MOV      r3,r12
        0x0000387a:    105b        [.      ASRS     r3,r3,#1
        0x0000387c:    d300        ..      BCC      0x3880 ; __aeabi_idiv + 316
        0x0000387e:    4240        @B      RSBS     r0,r0,#0
        0x00003880:    b501        ..      PUSH     {r0,lr}
        0x00003882:    2000        .       MOVS     r0,#0
        0x00003884:    46c0        .F      MOV      r8,r8
        0x00003886:    46c0        .F      MOV      r8,r8
        0x00003888:    bd02        ..      POP      {r1,pc}
    .text
    __use_two_region_memory
        0x0000388a:    4770        pG      BX       lr
    __rt_heap_escrow$2region
        0x0000388c:    4770        pG      BX       lr
    __rt_heap_expand$2region
        0x0000388e:    4770        pG      BX       lr
    .text
    __aeabi_d2f
    _d2f
        0x00003890:    4602        .F      MOV      r2,r0
        0x00003892:    0fc8        ..      LSRS     r0,r1,#31
        0x00003894:    07c0        ..      LSLS     r0,r0,#31
        0x00003896:    4381        .C      BICS     r1,r1,r0
        0x00003898:    004b        K.      LSLS     r3,r1,#1
        0x0000389a:    b530        0.      PUSH     {r4,r5,lr}
        0x0000389c:    404b        K@      EORS     r3,r3,r1
        0x0000389e:    005b        [.      LSLS     r3,r3,#1
        0x000038a0:    0d9b        ..      LSRS     r3,r3,#22
        0x000038a2:    d020         .      BEQ      0x38e6 ; __aeabi_d2f + 86
        0x000038a4:    2319        .#      MOVS     r3,#0x19
        0x000038a6:    06db        ..      LSLS     r3,r3,#27
        0x000038a8:    18c9        ..      ADDS     r1,r1,r3
        0x000038aa:    2301        .#      MOVS     r3,#1
        0x000038ac:    051b        ..      LSLS     r3,r3,#20
        0x000038ae:    4299        .B      CMP      r1,r3
        0x000038b0:    db20         .      BLT      0x38f4 ; __aeabi_d2f + 100
        0x000038b2:    2403        .$      MOVS     r4,#3
        0x000038b4:    07a4        ..      LSLS     r4,r4,#30
        0x000038b6:    2504        .%      MOVS     r5,#4
        0x000038b8:    4613        .F      MOV      r3,r2
        0x000038ba:    40ab        .@      LSLS     r3,r3,r5
        0x000038bc:    d30b        ..      BCC      0x38d6 ; __aeabi_d2f + 70
        0x000038be:    2b00        .+      CMP      r3,#0
        0x000038c0:    d104        ..      BNE      0x38cc ; __aeabi_d2f + 60
        0x000038c2:    06eb        ..      LSLS     r3,r5,#27
        0x000038c4:    4013        .@      ANDS     r3,r3,r2
        0x000038c6:    009b        ..      LSLS     r3,r3,#2
        0x000038c8:    191b        ..      ADDS     r3,r3,r4
        0x000038ca:    d404        ..      BMI      0x38d6 ; __aeabi_d2f + 70
        0x000038cc:    2401        .$      MOVS     r4,#1
        0x000038ce:    0764        d.      LSLS     r4,r4,#29
        0x000038d0:    2300        .#      MOVS     r3,#0
        0x000038d2:    1912        ..      ADDS     r2,r2,r4
        0x000038d4:    4159        YA      ADCS     r1,r1,r3
        0x000038d6:    23ff        .#      MOVS     r3,#0xff
        0x000038d8:    051b        ..      LSLS     r3,r3,#20
        0x000038da:    4299        .B      CMP      r1,r3
        0x000038dc:    d20b        ..      BCS      0x38f6 ; __aeabi_d2f + 102
        0x000038de:    00c9        ..      LSLS     r1,r1,#3
        0x000038e0:    4301        .C      ORRS     r1,r1,r0
        0x000038e2:    0f50        P.      LSRS     r0,r2,#29
        0x000038e4:    e009        ..      B        0x38fa ; __aeabi_d2f + 106
        0x000038e6:    02cb        ..      LSLS     r3,r1,#11
        0x000038e8:    d504        ..      BPL      0x38f4 ; __aeabi_d2f + 100
        0x000038ea:    4301        .C      ORRS     r1,r1,r0
        0x000038ec:    0308        ..      LSLS     r0,r1,#12
        0x000038ee:    4302        .C      ORRS     r2,r2,r0
        0x000038f0:    d005        ..      BEQ      0x38fe ; __aeabi_d2f + 110
        0x000038f2:    4805        .H      LDR      r0,[pc,#20] ; [0x3908] = 0x7fc00000
        0x000038f4:    bd30        0.      POP      {r4,r5,pc}
        0x000038f6:    21ff        .!      MOVS     r1,#0xff
        0x000038f8:    05c9        ..      LSLS     r1,r1,#23
        0x000038fa:    4308        .C      ORRS     r0,r0,r1
        0x000038fc:    bd30        0.      POP      {r4,r5,pc}
        0x000038fe:    4608        .F      MOV      r0,r1
        0x00003900:    2107        .!      MOVS     r1,#7
        0x00003902:    0509        ..      LSLS     r1,r1,#20
        0x00003904:    4388        .C      BICS     r0,r0,r1
        0x00003906:    bd30        0.      POP      {r4,r5,pc}
    $d
        0x00003908:    7fc00000    ....    DCD    2143289344
    $t
    .text
    _dadd1
        0x0000390c:    b5f0        ..      PUSH     {r4-r7,lr}
        0x0000390e:    460c        .F      MOV      r4,r1
        0x00003910:    1a87        ..      SUBS     r7,r0,r2
        0x00003912:    419c        .A      SBCS     r4,r4,r3
        0x00003914:    460d        .F      MOV      r5,r1
        0x00003916:    1a86        ..      SUBS     r6,r0,r2
        0x00003918:    419d        .A      SBCS     r5,r5,r3
        0x0000391a:    d203        ..      BCS      0x3924 ; _dadd1 + 24
        0x0000391c:    1bc0        ..      SUBS     r0,r0,r7
        0x0000391e:    41a1        .A      SBCS     r1,r1,r4
        0x00003920:    19d2        ..      ADDS     r2,r2,r7
        0x00003922:    4163        cA      ADCS     r3,r3,r4
        0x00003924:    0d0d        ..      LSRS     r5,r1,#20
        0x00003926:    0d1f        ..      LSRS     r7,r3,#20
        0x00003928:    4ec6        .N      LDR      r6,[pc,#792] ; [0x3c44] = 0x7ff
        0x0000392a:    1bec        ..      SUBS     r4,r5,r7
        0x0000392c:    43ae        .C      BICS     r6,r6,r5
        0x0000392e:    d05b        [.      BEQ      0x39e8 ; _dadd1 + 220
        0x00003930:    057f        ..      LSLS     r7,r7,#21
        0x00003932:    0d7f        ..      LSRS     r7,r7,#21
        0x00003934:    2600        .&      MOVS     r6,#0
        0x00003936:    2f00        ./      CMP      r7,#0
        0x00003938:    d050        P.      BEQ      0x39dc ; _dadd1 + 208
        0x0000393a:    052d        -.      LSLS     r5,r5,#20
        0x0000393c:    46ac        .F      MOV      r12,r5
        0x0000393e:    43a9        .C      BICS     r1,r1,r5
        0x00003940:    02dd        ..      LSLS     r5,r3,#11
        0x00003942:    2301        .#      MOVS     r3,#1
        0x00003944:    0aed        ..      LSRS     r5,r5,#11
        0x00003946:    051b        ..      LSLS     r3,r3,#20
        0x00003948:    431d        .C      ORRS     r5,r5,r3
        0x0000394a:    2320         #      MOVS     r3,#0x20
        0x0000394c:    1b1b        ..      SUBS     r3,r3,r4
        0x0000394e:    d423        #.      BMI      0x3998 ; _dadd1 + 140
        0x00003950:    4617        .F      MOV      r7,r2
        0x00003952:    40e7        .@      LSRS     r7,r7,r4
        0x00003954:    1838        8.      ADDS     r0,r7,r0
        0x00003956:    4171        qA      ADCS     r1,r1,r6
        0x00003958:    462f        /F      MOV      r7,r5
        0x0000395a:    40e7        .@      LSRS     r7,r7,r4
        0x0000395c:    19cc        ..      ADDS     r4,r1,r7
        0x0000395e:    409d        .@      LSLS     r5,r5,r3
        0x00003960:    1828        (.      ADDS     r0,r5,r0
        0x00003962:    4631        1F      MOV      r1,r6
        0x00003964:    4161        aA      ADCS     r1,r1,r4
        0x00003966:    0d0c        ..      LSRS     r4,r1,#20
        0x00003968:    d126        &.      BNE      0x39b8 ; _dadd1 + 172
        0x0000396a:    4461        aD      ADD      r1,r1,r12
        0x0000396c:    409a        .@      LSLS     r2,r2,r3
        0x0000396e:    d512        ..      BPL      0x3996 ; _dadd1 + 138
        0x00003970:    2300        .#      MOVS     r3,#0
        0x00003972:    1c40        @.      ADDS     r0,r0,#1
        0x00003974:    4159        YA      ADCS     r1,r1,r3
        0x00003976:    0052        R.      LSLS     r2,r2,#1
        0x00003978:    d10d        ..      BNE      0x3996 ; _dadd1 + 138
        0x0000397a:    0840        @.      LSRS     r0,r0,#1
        0x0000397c:    0040        @.      LSLS     r0,r0,#1
        0x0000397e:    4ab2        .J      LDR      r2,[pc,#712] ; [0x3c48] = 0xffe00000
        0x00003980:    004b        K.      LSLS     r3,r1,#1
        0x00003982:    4293        .B      CMP      r3,r2
        0x00003984:    d307        ..      BCC      0x3996 ; _dadd1 + 138
        0x00003986:    2005        .       MOVS     r0,#5
        0x00003988:    0740        @.      LSLS     r0,r0,#29
        0x0000398a:    1808        ..      ADDS     r0,r1,r0
        0x0000398c:    d501        ..      BPL      0x3992 ; _dadd1 + 134
        0x0000398e:    1051        Q.      ASRS     r1,r2,#1
        0x00003990:    e000        ..      B        0x3994 ; _dadd1 + 136
        0x00003992:    49ae        .I      LDR      r1,[pc,#696] ; [0x3c4c] = 0x7ff00000
        0x00003994:    4630        0F      MOV      r0,r6
        0x00003996:    bdf0        ..      POP      {r4-r7,pc}
        0x00003998:    006b        k.      LSLS     r3,r5,#1
        0x0000399a:    2a00        .*      CMP      r2,#0
        0x0000399c:    d000        ..      BEQ      0x39a0 ; _dadd1 + 148
        0x0000399e:    2201        ."      MOVS     r2,#1
        0x000039a0:    189a        ..      ADDS     r2,r3,r2
        0x000039a2:    3c20         <      SUBS     r4,r4,#0x20
        0x000039a4:    231f        .#      MOVS     r3,#0x1f
        0x000039a6:    1b1b        ..      SUBS     r3,r3,r4
        0x000039a8:    d501        ..      BPL      0x39ae ; _dadd1 + 162
        0x000039aa:    2300        .#      MOVS     r3,#0
        0x000039ac:    e002        ..      B        0x39b4 ; _dadd1 + 168
        0x000039ae:    40e5        .@      LSRS     r5,r5,r4
        0x000039b0:    1828        (.      ADDS     r0,r5,r0
        0x000039b2:    4171        qA      ADCS     r1,r1,r6
        0x000039b4:    0d0c        ..      LSRS     r4,r1,#20
        0x000039b6:    d0d8        ..      BEQ      0x396a ; _dadd1 + 94
        0x000039b8:    2401        .$      MOVS     r4,#1
        0x000039ba:    0524        $.      LSLS     r4,r4,#20
        0x000039bc:    1909        ..      ADDS     r1,r1,r4
        0x000039be:    07c4        ..      LSLS     r4,r0,#31
        0x000039c0:    07cd        ..      LSLS     r5,r1,#31
        0x000039c2:    0840        @.      LSRS     r0,r0,#1
        0x000039c4:    0849        I.      LSRS     r1,r1,#1
        0x000039c6:    0fe4        ..      LSRS     r4,r4,#31
        0x000039c8:    4328        (C      ORRS     r0,r0,r5
        0x000039ca:    4461        aD      ADD      r1,r1,r12
        0x000039cc:    2c00        .,      CMP      r4,#0
        0x000039ce:    d0d6        ..      BEQ      0x397e ; _dadd1 + 114
        0x000039d0:    2400        .$      MOVS     r4,#0
        0x000039d2:    1c40        @.      ADDS     r0,r0,#1
        0x000039d4:    4161        aA      ADCS     r1,r1,r4
        0x000039d6:    409a        .@      LSLS     r2,r2,r3
        0x000039d8:    d1d1        ..      BNE      0x397e ; _dadd1 + 114
        0x000039da:    e7ce        ..      B        0x397a ; _dadd1 + 110
        0x000039dc:    056a        j.      LSLS     r2,r5,#21
        0x000039de:    0d52        R.      LSRS     r2,r2,#21
        0x000039e0:    d1d9        ..      BNE      0x3996 ; _dadd1 + 138
        0x000039e2:    0fc9        ..      LSRS     r1,r1,#31
        0x000039e4:    07c9        ..      LSLS     r1,r1,#31
        0x000039e6:    e7d5        ..      B        0x3994 ; _dadd1 + 136
        0x000039e8:    4d97        .M      LDR      r5,[pc,#604] ; [0x3c48] = 0xffe00000
        0x000039ea:    004e        N.      LSLS     r6,r1,#1
        0x000039ec:    2800        .(      CMP      r0,#0
        0x000039ee:    d001        ..      BEQ      0x39f4 ; _dadd1 + 232
        0x000039f0:    2401        .$      MOVS     r4,#1
        0x000039f2:    e000        ..      B        0x39f6 ; _dadd1 + 234
        0x000039f4:    2400        .$      MOVS     r4,#0
        0x000039f6:    1934        4.      ADDS     r4,r6,r4
        0x000039f8:    005f        _.      LSLS     r7,r3,#1
        0x000039fa:    2a00        .*      CMP      r2,#0
        0x000039fc:    d001        ..      BEQ      0x3a02 ; _dadd1 + 246
        0x000039fe:    2601        .&      MOVS     r6,#1
        0x00003a00:    e000        ..      B        0x3a04 ; _dadd1 + 248
        0x00003a02:    2600        .&      MOVS     r6,#0
        0x00003a04:    19be        ..      ADDS     r6,r7,r6
        0x00003a06:    4f92        .O      LDR      r7,[pc,#584] ; [0x3c50] = 0x7ff80000
        0x00003a08:    42ac        .B      CMP      r4,r5
        0x00003a0a:    d80b        ..      BHI      0x3a24 ; _dadd1 + 280
        0x00003a0c:    42ae        .B      CMP      r6,r5
        0x00003a0e:    d809        ..      BHI      0x3a24 ; _dadd1 + 280
        0x00003a10:    42b4        .B      CMP      r4,r6
        0x00003a12:    d005        ..      BEQ      0x3a20 ; _dadd1 + 276
        0x00003a14:    00bd        ..      LSLS     r5,r7,#2
        0x00003a16:    42ac        .B      CMP      r4,r5
        0x00003a18:    d0bd        ..      BEQ      0x3996 ; _dadd1 + 138
        0x00003a1a:    4610        .F      MOV      r0,r2
        0x00003a1c:    4619        .F      MOV      r1,r3
        0x00003a1e:    bdf0        ..      POP      {r4-r7,pc}
        0x00003a20:    4299        .B      CMP      r1,r3
        0x00003a22:    d0fc        ..      BEQ      0x3a1e ; _dadd1 + 274
        0x00003a24:    2000        .       MOVS     r0,#0
        0x00003a26:    4639        9F      MOV      r1,r7
        0x00003a28:    bdf0        ..      POP      {r4-r7,pc}
    _dsub1
        0x00003a2a:    b5f0        ..      PUSH     {r4-r7,lr}
        0x00003a2c:    b41f        ..      PUSH     {r0-r4}
        0x00003a2e:    460c        .F      MOV      r4,r1
        0x00003a30:    460f        .F      MOV      r7,r1
        0x00003a32:    1a81        ..      SUBS     r1,r0,r2
        0x00003a34:    419f        .A      SBCS     r7,r7,r3
        0x00003a36:    4625        %F      MOV      r5,r4
        0x00003a38:    1a86        ..      SUBS     r6,r0,r2
        0x00003a3a:    419d        .A      SBCS     r5,r5,r3
        0x00003a3c:    d206        ..      BCS      0x3a4c ; _dsub1 + 34
        0x00003a3e:    2501        .%      MOVS     r5,#1
        0x00003a40:    07ed        ..      LSLS     r5,r5,#31
        0x00003a42:    406f        o@      EORS     r7,r7,r5
        0x00003a44:    1a40        @.      SUBS     r0,r0,r1
        0x00003a46:    41bc        .A      SBCS     r4,r4,r7
        0x00003a48:    1852        R.      ADDS     r2,r2,r1
        0x00003a4a:    417b        {A      ADCS     r3,r3,r7
        0x00003a4c:    0d21        !.      LSRS     r1,r4,#20
        0x00003a4e:    0d1e        ..      LSRS     r6,r3,#20
        0x00003a50:    1b8d        ..      SUBS     r5,r1,r6
        0x00003a52:    46ac        .F      MOV      r12,r5
        0x00003a54:    4d7b        {M      LDR      r5,[pc,#492] ; [0x3c44] = 0x7ff
        0x00003a56:    438d        .C      BICS     r5,r5,r1
        0x00003a58:    d07e        ~.      BEQ      0x3b58 ; _dsub1 + 302
        0x00003a5a:    0575        u.      LSLS     r5,r6,#21
        0x00003a5c:    0d6d        m.      LSRS     r5,r5,#21
        0x00003a5e:    d07c        |.      BEQ      0x3b5a ; _dsub1 + 304
        0x00003a60:    050d        ..      LSLS     r5,r1,#20
        0x00003a62:    46ae        .F      MOV      lr,r5
        0x00003a64:    43ac        .C      BICS     r4,r4,r5
        0x00003a66:    031b        ..      LSLS     r3,r3,#12
        0x00003a68:    0b1b        ..      LSRS     r3,r3,#12
        0x00003a6a:    4d7a        zM      LDR      r5,[pc,#488] ; [0x3c54] = 0xfff00000
        0x00003a6c:    4252        RB      RSBS     r2,r2,#0
        0x00003a6e:    419d        .A      SBCS     r5,r5,r3
        0x00003a70:    2320         #      MOVS     r3,#0x20
        0x00003a72:    4666        fF      MOV      r6,r12
        0x00003a74:    1b9b        ..      SUBS     r3,r3,r6
        0x00003a76:    d314        ..      BCC      0x3aa2 ; _dsub1 + 120
        0x00003a78:    4617        .F      MOV      r7,r2
        0x00003a7a:    40f7        .@      LSRS     r7,r7,r6
        0x00003a7c:    1838        8.      ADDS     r0,r7,r0
        0x00003a7e:    2600        .&      MOVS     r6,#0
        0x00003a80:    9000        ..      STR      r0,[sp,#0]
        0x00003a82:    4174        tA      ADCS     r4,r4,r6
        0x00003a84:    4660        `F      MOV      r0,r12
        0x00003a86:    462f        /F      MOV      r7,r5
        0x00003a88:    4107        .A      ASRS     r7,r7,r0
        0x00003a8a:    19e4        ..      ADDS     r4,r4,r7
        0x00003a8c:    9800        ..      LDR      r0,[sp,#0]
        0x00003a8e:    409d        .@      LSLS     r5,r5,r3
        0x00003a90:    1828        (.      ADDS     r0,r5,r0
        0x00003a92:    4166        fA      ADCS     r6,r6,r4
        0x00003a94:    d416        ..      BMI      0x3ac4 ; _dsub1 + 154
        0x00003a96:    4671        qF      MOV      r1,lr
        0x00003a98:    1871        q.      ADDS     r1,r6,r1
        0x00003a9a:    409a        .@      LSLS     r2,r2,r3
        0x00003a9c:    d525        %.      BPL      0x3aea ; _dsub1 + 192
        0x00003a9e:    2301        .#      MOVS     r3,#1
        0x00003aa0:    e020         .      B        0x3ae4 ; _dsub1 + 186
        0x00003aa2:    1893        ..      ADDS     r3,r2,r2
        0x00003aa4:    462a        *F      MOV      r2,r5
        0x00003aa6:    416a        jA      ADCS     r2,r2,r5
        0x00003aa8:    0052        R.      LSLS     r2,r2,#1
        0x00003aaa:    2b00        .+      CMP      r3,#0
        0x00003aac:    d000        ..      BEQ      0x3ab0 ; _dsub1 + 134
        0x00003aae:    1c52        R.      ADDS     r2,r2,#1
        0x00003ab0:    3e20         >      SUBS     r6,r6,#0x20
        0x00003ab2:    231e        .#      MOVS     r3,#0x1e
        0x00003ab4:    1b9b        ..      SUBS     r3,r3,r6
        0x00003ab6:    2b00        .+      CMP      r3,#0
        0x00003ab8:    dd61        a.      BLE      0x3b7e ; _dsub1 + 340
        0x00003aba:    4135        5A      ASRS     r5,r5,r6
        0x00003abc:    17ee        ..      ASRS     r6,r5,#31
        0x00003abe:    1828        (.      ADDS     r0,r5,r0
        0x00003ac0:    4166        fA      ADCS     r6,r6,r4
        0x00003ac2:    d5e8        ..      BPL      0x3a96 ; _dsub1 + 108
        0x00003ac4:    1800        ..      ADDS     r0,r0,r0
        0x00003ac6:    4176        vA      ADCS     r6,r6,r6
        0x00003ac8:    1c5b        [.      ADDS     r3,r3,#1
        0x00003aca:    409a        .@      LSLS     r2,r2,r3
        0x00003acc:    d300        ..      BCC      0x3ad0 ; _dsub1 + 166
        0x00003ace:    1c40        @.      ADDS     r0,r0,#1
        0x00003ad0:    054b        K.      LSLS     r3,r1,#21
        0x00003ad2:    18f3        ..      ADDS     r3,r6,r3
        0x00003ad4:    2415        .$      MOVS     r4,#0x15
        0x00003ad6:    40e3        .@      LSRS     r3,r3,r4
        0x00003ad8:    d310        ..      BCC      0x3afc ; _dsub1 + 210
        0x00003ada:    2b00        .+      CMP      r3,#0
        0x00003adc:    d052        R.      BEQ      0x3b84 ; _dsub1 + 346
        0x00003ade:    4671        qF      MOV      r1,lr
        0x00003ae0:    1871        q.      ADDS     r1,r6,r1
        0x00003ae2:    0fd3        ..      LSRS     r3,r2,#31
        0x00003ae4:    18c0        ..      ADDS     r0,r0,r3
        0x00003ae6:    d302        ..      BCC      0x3aee ; _dsub1 + 196
        0x00003ae8:    1c49        I.      ADDS     r1,r1,#1
        0x00003aea:    b005        ..      ADD      sp,sp,#0x14
        0x00003aec:    bdf0        ..      POP      {r4-r7,pc}
        0x00003aee:    2301        .#      MOVS     r3,#1
        0x00003af0:    07db        ..      LSLS     r3,r3,#31
        0x00003af2:    429a        .B      CMP      r2,r3
        0x00003af4:    d1f9        ..      BNE      0x3aea ; _dsub1 + 192
        0x00003af6:    0840        @.      LSRS     r0,r0,#1
        0x00003af8:    0040        @.      LSLS     r0,r0,#1
        0x00003afa:    e7f6        ..      B        0x3aea ; _dsub1 + 192
        0x00003afc:    2201        ."      MOVS     r2,#1
        0x00003afe:    0552        R.      LSLS     r2,r2,#21
        0x00003b00:    18b2        ..      ADDS     r2,r6,r2
        0x00003b02:    d101        ..      BNE      0x3b08 ; _dsub1 + 222
        0x00003b04:    2800        .(      CMP      r0,#0
        0x00003b06:    d053        S.      BEQ      0x3bb0 ; _dsub1 + 390
        0x00003b08:    2301        .#      MOVS     r3,#1
        0x00003b0a:    0acc        ..      LSRS     r4,r1,#11
        0x00003b0c:    02db        ..      LSLS     r3,r3,#11
        0x00003b0e:    4399        .C      BICS     r1,r1,r3
        0x00003b10:    1e89        ..      SUBS     r1,r1,#2
        0x00003b12:    2a00        .*      CMP      r2,#0
        0x00003b14:    d108        ..      BNE      0x3b28 ; _dsub1 + 254
        0x00003b16:    0c02        ..      LSRS     r2,r0,#16
        0x00003b18:    d003        ..      BEQ      0x3b22 ; _dsub1 + 248
        0x00003b1a:    0c02        ..      LSRS     r2,r0,#16
        0x00003b1c:    0400        ..      LSLS     r0,r0,#16
        0x00003b1e:    3910        .9      SUBS     r1,r1,#0x10
        0x00003b20:    e002        ..      B        0x3b28 ; _dsub1 + 254
        0x00003b22:    4602        .F      MOV      r2,r0
        0x00003b24:    2000        .       MOVS     r0,#0
        0x00003b26:    3920         9      SUBS     r1,r1,#0x20
        0x00003b28:    2300        .#      MOVS     r3,#0
        0x00003b2a:    0b55        U.      LSRS     r5,r2,#13
        0x00003b2c:    d105        ..      BNE      0x3b3a ; _dsub1 + 272
        0x00003b2e:    0212        ..      LSLS     r2,r2,#8
        0x00003b30:    2308        .#      MOVS     r3,#8
        0x00003b32:    0b55        U.      LSRS     r5,r2,#13
        0x00003b34:    d101        ..      BNE      0x3b3a ; _dsub1 + 272
        0x00003b36:    0152        R.      LSLS     r2,r2,#5
        0x00003b38:    230d        .#      MOVS     r3,#0xd
        0x00003b3a:    0c55        U.      LSRS     r5,r2,#17
        0x00003b3c:    d101        ..      BNE      0x3b42 ; _dsub1 + 280
        0x00003b3e:    0112        ..      LSLS     r2,r2,#4
        0x00003b40:    1d1b        ..      ADDS     r3,r3,#4
        0x00003b42:    0cd5        ..      LSRS     r5,r2,#19
        0x00003b44:    d101        ..      BNE      0x3b4a ; _dsub1 + 288
        0x00003b46:    0092        ..      LSLS     r2,r2,#2
        0x00003b48:    1c9b        ..      ADDS     r3,r3,#2
        0x00003b4a:    0d15        ..      LSRS     r5,r2,#20
        0x00003b4c:    d101        ..      BNE      0x3b52 ; _dsub1 + 296
        0x00003b4e:    0052        R.      LSLS     r2,r2,#1
        0x00003b50:    1c5b        [.      ADDS     r3,r3,#1
        0x00003b52:    2520         %      MOVS     r5,#0x20
        0x00003b54:    1aee        ..      SUBS     r6,r5,r3
        0x00003b56:    e001        ..      B        0x3b5c ; _dsub1 + 306
        0x00003b58:    e02c        ,.      B        0x3bb4 ; _dsub1 + 394
        0x00003b5a:    e022        ".      B        0x3ba2 ; _dsub1 + 376
        0x00003b5c:    4605        .F      MOV      r5,r0
        0x00003b5e:    40f5        .@      LSRS     r5,r5,r6
        0x00003b60:    4315        .C      ORRS     r5,r5,r2
        0x00003b62:    4098        .@      LSLS     r0,r0,r3
        0x00003b64:    1aca        ..      SUBS     r2,r1,r3
        0x00003b66:    07e1        ..      LSLS     r1,r4,#31
        0x00003b68:    1869        i.      ADDS     r1,r5,r1
        0x00003b6a:    0513        ..      LSLS     r3,r2,#20
        0x00003b6c:    18c9        ..      ADDS     r1,r1,r3
        0x00003b6e:    2a00        .*      CMP      r2,#0
        0x00003b70:    dabb        ..      BGE      0x3aea ; _dsub1 + 192
        0x00003b72:    2003        .       MOVS     r0,#3
        0x00003b74:    0740        @.      LSLS     r0,r0,#29
        0x00003b76:    1808        ..      ADDS     r0,r1,r0
        0x00003b78:    0fc1        ..      LSRS     r1,r0,#31
        0x00003b7a:    07c9        ..      LSLS     r1,r1,#31
        0x00003b7c:    e00f        ..      B        0x3b9e ; _dsub1 + 372
        0x00003b7e:    4671        qF      MOV      r1,lr
        0x00003b80:    1861        a.      ADDS     r1,r4,r1
        0x00003b82:    e7b2        ..      B        0x3aea ; _dsub1 + 192
        0x00003b84:    07f1        ..      LSLS     r1,r6,#31
        0x00003b86:    0840        @.      LSRS     r0,r0,#1
        0x00003b88:    4308        .C      ORRS     r0,r0,r1
        0x00003b8a:    1071        q.      ASRS     r1,r6,#1
        0x00003b8c:    4471        qD      ADD      r1,r1,lr
        0x00003b8e:    004a        J.      LSLS     r2,r1,#1
        0x00003b90:    d00c        ..      BEQ      0x3bac ; _dsub1 + 386
        0x00003b92:    2301        .#      MOVS     r3,#1
        0x00003b94:    055b        [.      LSLS     r3,r3,#21
        0x00003b96:    429a        .B      CMP      r2,r3
        0x00003b98:    d2a7        ..      BCS      0x3aea ; _dsub1 + 192
        0x00003b9a:    0fc9        ..      LSRS     r1,r1,#31
        0x00003b9c:    07c9        ..      LSLS     r1,r1,#31
        0x00003b9e:    2000        .       MOVS     r0,#0
        0x00003ba0:    e7a3        ..      B        0x3aea ; _dsub1 + 192
        0x00003ba2:    0549        I.      LSLS     r1,r1,#21
        0x00003ba4:    0d49        I.      LSRS     r1,r1,#21
        0x00003ba6:    d125        %.      BNE      0x3bf4 ; _dsub1 + 458
        0x00003ba8:    2000        .       MOVS     r0,#0
        0x00003baa:    e001        ..      B        0x3bb0 ; _dsub1 + 390
        0x00003bac:    2800        .(      CMP      r0,#0
        0x00003bae:    d1f4        ..      BNE      0x3b9a ; _dsub1 + 368
        0x00003bb0:    2100        .!      MOVS     r1,#0
        0x00003bb2:    e79a        ..      B        0x3aea ; _dsub1 + 192
        0x00003bb4:    4d24        $M      LDR      r5,[pc,#144] ; [0x3c48] = 0xffe00000
        0x00003bb6:    0066        f.      LSLS     r6,r4,#1
        0x00003bb8:    2800        .(      CMP      r0,#0
        0x00003bba:    d001        ..      BEQ      0x3bc0 ; _dsub1 + 406
        0x00003bbc:    2101        .!      MOVS     r1,#1
        0x00003bbe:    e000        ..      B        0x3bc2 ; _dsub1 + 408
        0x00003bc0:    2100        .!      MOVS     r1,#0
        0x00003bc2:    1871        q.      ADDS     r1,r6,r1
        0x00003bc4:    005f        _.      LSLS     r7,r3,#1
        0x00003bc6:    2a00        .*      CMP      r2,#0
        0x00003bc8:    d001        ..      BEQ      0x3bce ; _dsub1 + 420
        0x00003bca:    2601        .&      MOVS     r6,#1
        0x00003bcc:    e000        ..      B        0x3bd0 ; _dsub1 + 422
        0x00003bce:    2600        .&      MOVS     r6,#0
        0x00003bd0:    19be        ..      ADDS     r6,r7,r6
        0x00003bd2:    4f1f        .O      LDR      r7,[pc,#124] ; [0x3c50] = 0x7ff80000
        0x00003bd4:    42a9        .B      CMP      r1,r5
        0x00003bd6:    d80f        ..      BHI      0x3bf8 ; _dsub1 + 462
        0x00003bd8:    42ae        .B      CMP      r6,r5
        0x00003bda:    d80d        ..      BHI      0x3bf8 ; _dsub1 + 462
        0x00003bdc:    42b1        .B      CMP      r1,r6
        0x00003bde:    d007        ..      BEQ      0x3bf0 ; _dsub1 + 454
        0x00003be0:    00bd        ..      LSLS     r5,r7,#2
        0x00003be2:    42a9        .B      CMP      r1,r5
        0x00003be4:    d006        ..      BEQ      0x3bf4 ; _dsub1 + 458
        0x00003be6:    4619        .F      MOV      r1,r3
        0x00003be8:    02a8        ..      LSLS     r0,r5,#10
        0x00003bea:    4041        A@      EORS     r1,r1,r0
        0x00003bec:    4610        .F      MOV      r0,r2
        0x00003bee:    e77c        |.      B        0x3aea ; _dsub1 + 192
        0x00003bf0:    429c        .B      CMP      r4,r3
        0x00003bf2:    d001        ..      BEQ      0x3bf8 ; _dsub1 + 462
        0x00003bf4:    4621        !F      MOV      r1,r4
        0x00003bf6:    e778        x.      B        0x3aea ; _dsub1 + 192
        0x00003bf8:    2000        .       MOVS     r0,#0
        0x00003bfa:    4639        9F      MOV      r1,r7
        0x00003bfc:    e775        u.      B        0x3aea ; _dsub1 + 192
    __aeabi_dadd
    _dadd
        0x00003bfe:    b430        0.      PUSH     {r4,r5}
        0x00003c00:    460c        .F      MOV      r4,r1
        0x00003c02:    405c        \@      EORS     r4,r4,r3
        0x00003c04:    d504        ..      BPL      0x3c10 ; __aeabi_dadd + 18
        0x00003c06:    2401        .$      MOVS     r4,#1
        0x00003c08:    07e4        ..      LSLS     r4,r4,#31
        0x00003c0a:    4063        c@      EORS     r3,r3,r4
        0x00003c0c:    bc30        0.      POP      {r4,r5}
        0x00003c0e:    e70c        ..      B        _dsub1 ; 0x3a2a
        0x00003c10:    bc30        0.      POP      {r4,r5}
        0x00003c12:    e67b        {.      B        _dadd1 ; 0x390c
    __aeabi_dsub
    _dsub
        0x00003c14:    b430        0.      PUSH     {r4,r5}
        0x00003c16:    460c        .F      MOV      r4,r1
        0x00003c18:    405c        \@      EORS     r4,r4,r3
        0x00003c1a:    d504        ..      BPL      0x3c26 ; __aeabi_dsub + 18
        0x00003c1c:    2401        .$      MOVS     r4,#1
        0x00003c1e:    07e4        ..      LSLS     r4,r4,#31
        0x00003c20:    4063        c@      EORS     r3,r3,r4
        0x00003c22:    bc30        0.      POP      {r4,r5}
        0x00003c24:    e672        r.      B        _dadd1 ; 0x390c
        0x00003c26:    bc30        0.      POP      {r4,r5}
        0x00003c28:    e6ff        ..      B        _dsub1 ; 0x3a2a
    __aeabi_drsub
    _drsb
        0x00003c2a:    b430        0.      PUSH     {r4,r5}
        0x00003c2c:    2401        .$      MOVS     r4,#1
        0x00003c2e:    07e4        ..      LSLS     r4,r4,#31
        0x00003c30:    4061        a@      EORS     r1,r1,r4
        0x00003c32:    460d        .F      MOV      r5,r1
        0x00003c34:    405d        ]@      EORS     r5,r5,r3
        0x00003c36:    d401        ..      BMI      0x3c3c ; __aeabi_drsub + 18
        0x00003c38:    bc30        0.      POP      {r4,r5}
        0x00003c3a:    e667        g.      B        _dadd1 ; 0x390c
        0x00003c3c:    4063        c@      EORS     r3,r3,r4
        0x00003c3e:    bc30        0.      POP      {r4,r5}
        0x00003c40:    e6f3        ..      B        _dsub1 ; 0x3a2a
    $d
        0x00003c42:    0000        ..      DCW    0
        0x00003c44:    000007ff    ....    DCD    2047
        0x00003c48:    ffe00000    ....    DCD    4292870144
        0x00003c4c:    7ff00000    ....    DCD    2146435072
        0x00003c50:    7ff80000    ....    DCD    2146959360
        0x00003c54:    fff00000    ....    DCD    4293918720
    $t
    .text
    __aeabi_ddiv
    _ddiv
        0x00003c58:    b5f0        ..      PUSH     {r4-r7,lr}
        0x00003c5a:    b41f        ..      PUSH     {r0-r4}
        0x00003c5c:    4ffa        .O      LDR      r7,[pc,#1000] ; [0x4048] = 0x7ff0000
        0x00003c5e:    090e        ..      LSRS     r6,r1,#4
        0x00003c60:    091d        ..      LSRS     r5,r3,#4
        0x00003c62:    46bc        .F      MOV      r12,r7
        0x00003c64:    403e        >@      ANDS     r6,r6,r7
        0x00003c66:    403d        =@      ANDS     r5,r5,r7
        0x00003c68:    460c        .F      MOV      r4,r1
        0x00003c6a:    43b7        .C      BICS     r7,r7,r6
        0x00003c6c:    405c        \@      EORS     r4,r4,r3
        0x00003c6e:    b08c        ..      SUB      sp,sp,#0x30
        0x00003c70:    2f00        ./      CMP      r7,#0
        0x00003c72:    d07d        }.      BEQ      0x3d70 ; __aeabi_ddiv + 280
        0x00003c74:    4667        gF      MOV      r7,r12
        0x00003c76:    43af        .C      BICS     r7,r7,r5
        0x00003c78:    d0fb        ..      BEQ      0x3c72 ; __aeabi_ddiv + 26
        0x00003c7a:    2d00        .-      CMP      r5,#0
        0x00003c7c:    d079        y.      BEQ      0x3d72 ; __aeabi_ddiv + 282
        0x00003c7e:    2e00        ..      CMP      r6,#0
        0x00003c80:    d0fc        ..      BEQ      0x3c7c ; __aeabi_ddiv + 36
        0x00003c82:    0fe2        ..      LSRS     r2,r4,#31
        0x00003c84:    4332        2C      ORRS     r2,r2,r6
        0x00003c86:    1b52        R.      SUBS     r2,r2,r5
        0x00003c88:    24ff        .$      MOVS     r4,#0xff
        0x00003c8a:    04a4        ..      LSLS     r4,r4,#18
        0x00003c8c:    1912        ..      ADDS     r2,r2,r4
        0x00003c8e:    9208        ..      STR      r2,[sp,#0x20]
        0x00003c90:    0d42        B.      LSRS     r2,r0,#21
        0x00003c92:    02cd        ..      LSLS     r5,r1,#11
        0x00003c94:    02c7        ..      LSLS     r7,r0,#11
        0x00003c96:    980e        ..      LDR      r0,[sp,#0x38]
        0x00003c98:    4315        .C      ORRS     r5,r5,r2
        0x00003c9a:    0d42        B.      LSRS     r2,r0,#21
        0x00003c9c:    02d9        ..      LSLS     r1,r3,#11
        0x00003c9e:    4311        .C      ORRS     r1,r1,r2
        0x00003ca0:    02c2        ..      LSLS     r2,r0,#11
        0x00003ca2:    0360        `.      LSLS     r0,r4,#13
        0x00003ca4:    4305        .C      ORRS     r5,r5,r0
        0x00003ca6:    4301        .C      ORRS     r1,r1,r0
        0x00003ca8:    0c08        ..      LSRS     r0,r1,#16
        0x00003caa:    9501        ..      STR      r5,[sp,#4]
        0x00003cac:    0c15        ..      LSRS     r5,r2,#16
        0x00003cae:    46ac        .F      MOV      r12,r5
        0x00003cb0:    0405        ..      LSLS     r5,r0,#16
        0x00003cb2:    460b        .F      MOV      r3,r1
        0x00003cb4:    43ab        .C      BICS     r3,r3,r5
        0x00003cb6:    950a        ..      STR      r5,[sp,#0x28]
        0x00003cb8:    4665        eF      MOV      r5,r12
        0x00003cba:    042d        -.      LSLS     r5,r5,#16
        0x00003cbc:    43aa        .C      BICS     r2,r2,r5
        0x00003cbe:    9509        ..      STR      r5,[sp,#0x24]
        0x00003cc0:    4de2        .M      LDR      r5,[pc,#904] ; [0x404c] = 0x27a8
        0x00003cc2:    0a04        ..      LSRS     r4,r0,#8
        0x00003cc4:    447d        }D      ADD      r5,r5,pc
        0x00003cc6:    1964        d.      ADDS     r4,r4,r5
        0x00003cc8:    3c80        .<      SUBS     r4,r4,#0x80
        0x00003cca:    7825        %x      LDRB     r5,[r4,#0]
        0x00003ccc:    4606        .F      MOV      r6,r0
        0x00003cce:    436e        nC      MULS     r6,r5,r6
        0x00003cd0:    2401        .$      MOVS     r4,#1
        0x00003cd2:    1976        v.      ADDS     r6,r6,r5
        0x00003cd4:    05e4        ..      LSLS     r4,r4,#23
        0x00003cd6:    1ba6        ..      SUBS     r6,r4,r6
        0x00003cd8:    4375        uC      MULS     r5,r6,r5
        0x00003cda:    0ced        ..      LSRS     r5,r5,#19
        0x00003cdc:    1cad        ..      ADDS     r5,r5,#2
        0x00003cde:    0b49        I.      LSRS     r1,r1,#13
        0x00003ce0:    4369        iC      MULS     r1,r5,r1
        0x00003ce2:    1949        I.      ADDS     r1,r1,r5
        0x00003ce4:    01a4        ..      LSLS     r4,r4,#6
        0x00003ce6:    1a61        a.      SUBS     r1,r4,r1
        0x00003ce8:    0c0e        ..      LSRS     r6,r1,#16
        0x00003cea:    46b6        .F      MOV      lr,r6
        0x00003cec:    0436        6.      LSLS     r6,r6,#16
        0x00003cee:    43b1        .C      BICS     r1,r1,r6
        0x00003cf0:    4369        iC      MULS     r1,r5,r1
        0x00003cf2:    4676        vF      MOV      r6,lr
        0x00003cf4:    436e        nC      MULS     r6,r5,r6
        0x00003cf6:    0c09        ..      LSRS     r1,r1,#16
        0x00003cf8:    1871        q.      ADDS     r1,r6,r1
        0x00003cfa:    0989        ..      LSRS     r1,r1,#6
        0x00003cfc:    9105        ..      STR      r1,[sp,#0x14]
        0x00003cfe:    07f9        ..      LSLS     r1,r7,#31
        0x00003d00:    d000        ..      BEQ      0x3d04 ; __aeabi_ddiv + 172
        0x00003d02:    00a1        ..      LSLS     r1,r4,#2
        0x00003d04:    9104        ..      STR      r1,[sp,#0x10]
        0x00003d06:    9901        ..      LDR      r1,[sp,#4]
        0x00003d08:    087f        ..      LSRS     r7,r7,#1
        0x00003d0a:    07cc        ..      LSLS     r4,r1,#31
        0x00003d0c:    4327        'C      ORRS     r7,r7,r4
        0x00003d0e:    084c        L.      LSRS     r4,r1,#1
        0x00003d10:    9d05        ..      LDR      r5,[sp,#0x14]
        0x00003d12:    0be1        ..      LSRS     r1,r4,#15
        0x00003d14:    434d        MC      MULS     r5,r1,r5
        0x00003d16:    0c2d        -.      LSRS     r5,r5,#16
        0x00003d18:    4629        )F      MOV      r1,r5
        0x00003d1a:    4666        fF      MOV      r6,r12
        0x00003d1c:    4375        uC      MULS     r5,r6,r5
        0x00003d1e:    9502        ..      STR      r5,[sp,#8]
        0x00003d20:    460d        .F      MOV      r5,r1
        0x00003d22:    4345        EC      MULS     r5,r0,r5
        0x00003d24:    462e        .F      MOV      r6,r5
        0x00003d26:    9d02        ..      LDR      r5,[sp,#8]
        0x00003d28:    1b7d        }.      SUBS     r5,r7,r5
        0x00003d2a:    41b4        .A      SBCS     r4,r4,r6
        0x00003d2c:    9500        ..      STR      r5,[sp,#0]
        0x00003d2e:    460d        .F      MOV      r5,r1
        0x00003d30:    435d        ]C      MULS     r5,r3,r5
        0x00003d32:    9401        ..      STR      r4,[sp,#4]
        0x00003d34:    0c2c        ,.      LSRS     r4,r5,#16
        0x00003d36:    042f        /.      LSLS     r7,r5,#16
        0x00003d38:    460d        .F      MOV      r5,r1
        0x00003d3a:    4355        UC      MULS     r5,r2,r5
        0x00003d3c:    46ae        .F      MOV      lr,r5
        0x00003d3e:    0c2d        -.      LSRS     r5,r5,#16
        0x00003d40:    433d        =C      ORRS     r5,r5,r7
        0x00003d42:    9502        ..      STR      r5,[sp,#8]
        0x00003d44:    9403        ..      STR      r4,[sp,#0xc]
        0x00003d46:    4675        uF      MOV      r5,lr
        0x00003d48:    9c04        ..      LDR      r4,[sp,#0x10]
        0x00003d4a:    042d        -.      LSLS     r5,r5,#16
        0x00003d4c:    1b64        d.      SUBS     r4,r4,r5
        0x00003d4e:    9404        ..      STR      r4,[sp,#0x10]
        0x00003d50:    d206        ..      BCS      0x3d60 ; __aeabi_ddiv + 264
        0x00003d52:    9c02        ..      LDR      r4,[sp,#8]
        0x00003d54:    9d03        ..      LDR      r5,[sp,#0xc]
        0x00003d56:    1c64        d.      ADDS     r4,r4,#1
        0x00003d58:    2600        .&      MOVS     r6,#0
        0x00003d5a:    4175        uA      ADCS     r5,r5,r6
        0x00003d5c:    9503        ..      STR      r5,[sp,#0xc]
        0x00003d5e:    9402        ..      STR      r4,[sp,#8]
        0x00003d60:    ac01        ..      ADD      r4,sp,#4
        0x00003d62:    cc70        p.      LDM      r4,{r4-r6}
        0x00003d64:    9f00        ..      LDR      r7,[sp,#0]
        0x00003d66:    1b7d        }.      SUBS     r5,r7,r5
        0x00003d68:    41b4        .A      SBCS     r4,r4,r6
        0x00003d6a:    0409        ..      LSLS     r1,r1,#16
        0x00003d6c:    9500        ..      STR      r5,[sp,#0]
        0x00003d6e:    e001        ..      B        0x3d74 ; __aeabi_ddiv + 284
        0x00003d70:    e13b        ;.      B        0x3fea ; __aeabi_ddiv + 914
        0x00003d72:    e15f        _.      B        0x4034 ; __aeabi_ddiv + 988
        0x00003d74:    9107        ..      STR      r1,[sp,#0x1c]
        0x00003d76:    9401        ..      STR      r4,[sp,#4]
        0x00003d78:    9905        ..      LDR      r1,[sp,#0x14]
        0x00003d7a:    08a4        ..      LSRS     r4,r4,#2
        0x00003d7c:    4361        aC      MULS     r1,r4,r1
        0x00003d7e:    0c09        ..      LSRS     r1,r1,#16
        0x00003d80:    460c        .F      MOV      r4,r1
        0x00003d82:    4344        DC      MULS     r4,r0,r4
        0x00003d84:    0b65        e.      LSRS     r5,r4,#13
        0x00003d86:    04e7        ..      LSLS     r7,r4,#19
        0x00003d88:    4664        dF      MOV      r4,r12
        0x00003d8a:    434c        LC      MULS     r4,r1,r4
        0x00003d8c:    46a6        .F      MOV      lr,r4
        0x00003d8e:    0b64        d.      LSRS     r4,r4,#13
        0x00003d90:    433c        <C      ORRS     r4,r4,r7
        0x00003d92:    9503        ..      STR      r5,[sp,#0xc]
        0x00003d94:    9402        ..      STR      r4,[sp,#8]
        0x00003d96:    4674        tF      MOV      r4,lr
        0x00003d98:    9d04        ..      LDR      r5,[sp,#0x10]
        0x00003d9a:    04e4        ..      LSLS     r4,r4,#19
        0x00003d9c:    1b2c        ,.      SUBS     r4,r5,r4
        0x00003d9e:    9404        ..      STR      r4,[sp,#0x10]
        0x00003da0:    d206        ..      BCS      0x3db0 ; __aeabi_ddiv + 344
        0x00003da2:    9c02        ..      LDR      r4,[sp,#8]
        0x00003da4:    9d03        ..      LDR      r5,[sp,#0xc]
        0x00003da6:    1c64        d.      ADDS     r4,r4,#1
        0x00003da8:    2600        .&      MOVS     r6,#0
        0x00003daa:    4175        uA      ADCS     r5,r5,r6
        0x00003dac:    9503        ..      STR      r5,[sp,#0xc]
        0x00003dae:    9402        ..      STR      r4,[sp,#8]
        0x00003db0:    ac01        ..      ADD      r4,sp,#4
        0x00003db2:    cc70        p.      LDM      r4,{r4-r6}
        0x00003db4:    9f00        ..      LDR      r7,[sp,#0]
        0x00003db6:    1b7d        }.      SUBS     r5,r7,r5
        0x00003db8:    41b4        .A      SBCS     r4,r4,r6
        0x00003dba:    9401        ..      STR      r4,[sp,#4]
        0x00003dbc:    460c        .F      MOV      r4,r1
        0x00003dbe:    435c        \C      MULS     r4,r3,r4
        0x00003dc0:    9500        ..      STR      r5,[sp,#0]
        0x00003dc2:    0f65        e.      LSRS     r5,r4,#29
        0x00003dc4:    00e7        ..      LSLS     r7,r4,#3
        0x00003dc6:    460c        .F      MOV      r4,r1
        0x00003dc8:    4354        TC      MULS     r4,r2,r4
        0x00003dca:    46a6        .F      MOV      lr,r4
        0x00003dcc:    0f64        d.      LSRS     r4,r4,#29
        0x00003dce:    433c        <C      ORRS     r4,r4,r7
        0x00003dd0:    9503        ..      STR      r5,[sp,#0xc]
        0x00003dd2:    9402        ..      STR      r4,[sp,#8]
        0x00003dd4:    4674        tF      MOV      r4,lr
        0x00003dd6:    9d04        ..      LDR      r5,[sp,#0x10]
        0x00003dd8:    00e4        ..      LSLS     r4,r4,#3
        0x00003dda:    1b2c        ,.      SUBS     r4,r5,r4
        0x00003ddc:    9404        ..      STR      r4,[sp,#0x10]
        0x00003dde:    d206        ..      BCS      0x3dee ; __aeabi_ddiv + 406
        0x00003de0:    9c02        ..      LDR      r4,[sp,#8]
        0x00003de2:    9d03        ..      LDR      r5,[sp,#0xc]
        0x00003de4:    1c64        d.      ADDS     r4,r4,#1
        0x00003de6:    2600        .&      MOVS     r6,#0
        0x00003de8:    4175        uA      ADCS     r5,r5,r6
        0x00003dea:    9503        ..      STR      r5,[sp,#0xc]
        0x00003dec:    9402        ..      STR      r4,[sp,#8]
        0x00003dee:    ac01        ..      ADD      r4,sp,#4
        0x00003df0:    cc70        p.      LDM      r4,{r4-r6}
        0x00003df2:    9f00        ..      LDR      r7,[sp,#0]
        0x00003df4:    1b7d        }.      SUBS     r5,r7,r5
        0x00003df6:    41b4        .A      SBCS     r4,r4,r6
        0x00003df8:    09ae        ..      LSRS     r6,r5,#6
        0x00003dfa:    06af        ..      LSLS     r7,r5,#26
        0x00003dfc:    9d04        ..      LDR      r5,[sp,#0x10]
        0x00003dfe:    00c9        ..      LSLS     r1,r1,#3
        0x00003e00:    09ad        ..      LSRS     r5,r5,#6
        0x00003e02:    432f        /C      ORRS     r7,r7,r5
        0x00003e04:    9d04        ..      LDR      r5,[sp,#0x10]
        0x00003e06:    06a4        ..      LSLS     r4,r4,#26
        0x00003e08:    06ad        ..      LSLS     r5,r5,#26
        0x00003e0a:    9504        ..      STR      r5,[sp,#0x10]
        0x00003e0c:    9d07        ..      LDR      r5,[sp,#0x1c]
        0x00003e0e:    4334        4C      ORRS     r4,r4,r6
        0x00003e10:    1869        i.      ADDS     r1,r5,r1
        0x00003e12:    9107        ..      STR      r1,[sp,#0x1c]
        0x00003e14:    9d05        ..      LDR      r5,[sp,#0x14]
        0x00003e16:    0be1        ..      LSRS     r1,r4,#15
        0x00003e18:    434d        MC      MULS     r5,r1,r5
        0x00003e1a:    0c2d        -.      LSRS     r5,r5,#16
        0x00003e1c:    4629        )F      MOV      r1,r5
        0x00003e1e:    4666        fF      MOV      r6,r12
        0x00003e20:    4375        uC      MULS     r5,r6,r5
        0x00003e22:    9502        ..      STR      r5,[sp,#8]
        0x00003e24:    460d        .F      MOV      r5,r1
        0x00003e26:    4345        EC      MULS     r5,r0,r5
        0x00003e28:    462e        .F      MOV      r6,r5
        0x00003e2a:    9d02        ..      LDR      r5,[sp,#8]
        0x00003e2c:    1b7d        }.      SUBS     r5,r7,r5
        0x00003e2e:    41b4        .A      SBCS     r4,r4,r6
        0x00003e30:    9500        ..      STR      r5,[sp,#0]
        0x00003e32:    460d        .F      MOV      r5,r1
        0x00003e34:    435d        ]C      MULS     r5,r3,r5
        0x00003e36:    9401        ..      STR      r4,[sp,#4]
        0x00003e38:    0c2c        ,.      LSRS     r4,r5,#16
        0x00003e3a:    042f        /.      LSLS     r7,r5,#16
        0x00003e3c:    460d        .F      MOV      r5,r1
        0x00003e3e:    4355        UC      MULS     r5,r2,r5
        0x00003e40:    46ae        .F      MOV      lr,r5
        0x00003e42:    0c2d        -.      LSRS     r5,r5,#16
        0x00003e44:    433d        =C      ORRS     r5,r5,r7
        0x00003e46:    9502        ..      STR      r5,[sp,#8]
        0x00003e48:    9403        ..      STR      r4,[sp,#0xc]
        0x00003e4a:    4675        uF      MOV      r5,lr
        0x00003e4c:    9c04        ..      LDR      r4,[sp,#0x10]
        0x00003e4e:    042d        -.      LSLS     r5,r5,#16
        0x00003e50:    1b64        d.      SUBS     r4,r4,r5
        0x00003e52:    9404        ..      STR      r4,[sp,#0x10]
        0x00003e54:    d206        ..      BCS      0x3e64 ; __aeabi_ddiv + 524
        0x00003e56:    9c02        ..      LDR      r4,[sp,#8]
        0x00003e58:    9d03        ..      LDR      r5,[sp,#0xc]
        0x00003e5a:    1c64        d.      ADDS     r4,r4,#1
        0x00003e5c:    2600        .&      MOVS     r6,#0
        0x00003e5e:    4175        uA      ADCS     r5,r5,r6
        0x00003e60:    9503        ..      STR      r5,[sp,#0xc]
        0x00003e62:    9402        ..      STR      r4,[sp,#8]
        0x00003e64:    ac01        ..      ADD      r4,sp,#4
        0x00003e66:    cc70        p.      LDM      r4,{r4-r6}
        0x00003e68:    9f00        ..      LDR      r7,[sp,#0]
        0x00003e6a:    1b7d        }.      SUBS     r5,r7,r5
        0x00003e6c:    41b4        .A      SBCS     r4,r4,r6
        0x00003e6e:    9401        ..      STR      r4,[sp,#4]
        0x00003e70:    058c        ..      LSLS     r4,r1,#22
        0x00003e72:    9406        ..      STR      r4,[sp,#0x18]
        0x00003e74:    9c07        ..      LDR      r4,[sp,#0x1c]
        0x00003e76:    0a89        ..      LSRS     r1,r1,#10
        0x00003e78:    1861        a.      ADDS     r1,r4,r1
        0x00003e7a:    9500        ..      STR      r5,[sp,#0]
        0x00003e7c:    9107        ..      STR      r1,[sp,#0x1c]
        0x00003e7e:    9c01        ..      LDR      r4,[sp,#4]
        0x00003e80:    9905        ..      LDR      r1,[sp,#0x14]
        0x00003e82:    08a4        ..      LSRS     r4,r4,#2
        0x00003e84:    4361        aC      MULS     r1,r4,r1
        0x00003e86:    0c09        ..      LSRS     r1,r1,#16
        0x00003e88:    460d        .F      MOV      r5,r1
        0x00003e8a:    4345        EC      MULS     r5,r0,r5
        0x00003e8c:    0b68        h.      LSRS     r0,r5,#13
        0x00003e8e:    04ef        ..      LSLS     r7,r5,#19
        0x00003e90:    460d        .F      MOV      r5,r1
        0x00003e92:    4664        dF      MOV      r4,r12
        0x00003e94:    4365        eC      MULS     r5,r4,r5
        0x00003e96:    0b6c        l.      LSRS     r4,r5,#13
        0x00003e98:    433c        <C      ORRS     r4,r4,r7
        0x00003e9a:    9f04        ..      LDR      r7,[sp,#0x10]
        0x00003e9c:    04ed        ..      LSLS     r5,r5,#19
        0x00003e9e:    1b7d        }.      SUBS     r5,r7,r5
        0x00003ea0:    46ac        .F      MOV      r12,r5
        0x00003ea2:    d202        ..      BCS      0x3eaa ; __aeabi_ddiv + 594
        0x00003ea4:    2500        .%      MOVS     r5,#0
        0x00003ea6:    1c64        d.      ADDS     r4,r4,#1
        0x00003ea8:    4168        hA      ADCS     r0,r0,r5
        0x00003eaa:    9e00        ..      LDR      r6,[sp,#0]
        0x00003eac:    9d01        ..      LDR      r5,[sp,#4]
        0x00003eae:    1b37        7.      SUBS     r7,r6,r4
        0x00003eb0:    4185        .A      SBCS     r5,r5,r0
        0x00003eb2:    4608        .F      MOV      r0,r1
        0x00003eb4:    4358        XC      MULS     r0,r3,r0
        0x00003eb6:    9501        ..      STR      r5,[sp,#4]
        0x00003eb8:    460c        .F      MOV      r4,r1
        0x00003eba:    0f46        F.      LSRS     r6,r0,#29
        0x00003ebc:    00c5        ..      LSLS     r5,r0,#3
        0x00003ebe:    4354        TC      MULS     r4,r2,r4
        0x00003ec0:    0f60        `.      LSRS     r0,r4,#29
        0x00003ec2:    4328        (C      ORRS     r0,r0,r5
        0x00003ec4:    4665        eF      MOV      r5,r12
        0x00003ec6:    00e4        ..      LSLS     r4,r4,#3
        0x00003ec8:    1b2c        ,.      SUBS     r4,r5,r4
        0x00003eca:    d202        ..      BCS      0x3ed2 ; __aeabi_ddiv + 634
        0x00003ecc:    2500        .%      MOVS     r5,#0
        0x00003ece:    1c40        @.      ADDS     r0,r0,#1
        0x00003ed0:    416e        nA      ADCS     r6,r6,r5
        0x00003ed2:    9d01        ..      LDR      r5,[sp,#4]
        0x00003ed4:    1a3f        ?.      SUBS     r7,r7,r0
        0x00003ed6:    41b5        .A      SBCS     r5,r5,r6
        0x00003ed8:    4628        (F      MOV      r0,r5
        0x00003eda:    09bd        ..      LSRS     r5,r7,#6
        0x00003edc:    0680        ..      LSLS     r0,r0,#26
        0x00003ede:    4328        (C      ORRS     r0,r0,r5
        0x00003ee0:    4684        .F      MOV      r12,r0
        0x00003ee2:    09a0        ..      LSRS     r0,r4,#6
        0x00003ee4:    06bf        ..      LSLS     r7,r7,#26
        0x00003ee6:    024e        N.      LSLS     r6,r1,#9
        0x00003ee8:    9906        ..      LDR      r1,[sp,#0x18]
        0x00003eea:    06a4        ..      LSLS     r4,r4,#26
        0x00003eec:    1876        v.      ADDS     r6,r6,r1
        0x00003eee:    4307        .C      ORRS     r7,r7,r0
        0x00003ef0:    9d07        ..      LDR      r5,[sp,#0x1c]
        0x00003ef2:    2000        .       MOVS     r0,#0
        0x00003ef4:    4168        hA      ADCS     r0,r0,r5
        0x00003ef6:    990a        ..      LDR      r1,[sp,#0x28]
        0x00003ef8:    9007        ..      STR      r0,[sp,#0x1c]
        0x00003efa:    4319        .C      ORRS     r1,r1,r3
        0x00003efc:    2000        .       MOVS     r0,#0
        0x00003efe:    9b09        ..      LDR      r3,[sp,#0x24]
        0x00003f00:    9000        ..      STR      r0,[sp,#0]
        0x00003f02:    4660        `F      MOV      r0,r12
        0x00003f04:    19ff        ..      ADDS     r7,r7,r7
        0x00003f06:    4313        .C      ORRS     r3,r3,r2
        0x00003f08:    4140        @A      ADCS     r0,r0,r0
        0x00003f0a:    0fe2        ..      LSRS     r2,r4,#31
        0x00003f0c:    0064        d.      LSLS     r4,r4,#1
        0x00003f0e:    433a        :C      ORRS     r2,r2,r7
        0x00003f10:    46a4        .F      MOV      r12,r4
        0x00003f12:    4604        .F      MOV      r4,r0
        0x00003f14:    1ad7        ..      SUBS     r7,r2,r3
        0x00003f16:    418c        .A      SBCS     r4,r4,r1
        0x00003f18:    42a0        .B      CMP      r0,r4
        0x00003f1a:    d903        ..      BLS      0x3f24 ; __aeabi_ddiv + 716
        0x00003f1c:    2001        .       MOVS     r0,#1
        0x00003f1e:    9000        ..      STR      r0,[sp,#0]
        0x00003f20:    4620         F      MOV      r0,r4
        0x00003f22:    463a        :F      MOV      r2,r7
        0x00003f24:    0fc7        ..      LSRS     r7,r0,#31
        0x00003f26:    1894        ..      ADDS     r4,r2,r2
        0x00003f28:    4140        @A      ADCS     r0,r0,r0
        0x00003f2a:    4662        bF      MOV      r2,r12
        0x00003f2c:    0fd2        ..      LSRS     r2,r2,#31
        0x00003f2e:    4322        "C      ORRS     r2,r2,r4
        0x00003f30:    4664        dF      MOV      r4,r12
        0x00003f32:    0064        d.      LSLS     r4,r4,#1
        0x00003f34:    9404        ..      STR      r4,[sp,#0x10]
        0x00003f36:    9c00        ..      LDR      r4,[sp,#0]
        0x00003f38:    46be        .F      MOV      lr,r7
        0x00003f3a:    0064        d.      LSLS     r4,r4,#1
        0x00003f3c:    1ad7        ..      SUBS     r7,r2,r3
        0x00003f3e:    46a4        .F      MOV      r12,r4
        0x00003f40:    4604        .F      MOV      r4,r0
        0x00003f42:    9702        ..      STR      r7,[sp,#8]
        0x00003f44:    418c        .A      SBCS     r4,r4,r1
        0x00003f46:    4677        wF      MOV      r7,lr
        0x00003f48:    2f00        ./      CMP      r7,#0
        0x00003f4a:    d101        ..      BNE      0x3f50 ; __aeabi_ddiv + 760
        0x00003f4c:    42a0        .B      CMP      r0,r4
        0x00003f4e:    d904        ..      BLS      0x3f5a ; __aeabi_ddiv + 770
        0x00003f50:    4660        `F      MOV      r0,r12
        0x00003f52:    1c40        @.      ADDS     r0,r0,#1
        0x00003f54:    4684        .F      MOV      r12,r0
        0x00003f56:    9a02        ..      LDR      r2,[sp,#8]
        0x00003f58:    4620         F      MOV      r0,r4
        0x00003f5a:    0fc4        ..      LSRS     r4,r0,#31
        0x00003f5c:    46a6        .F      MOV      lr,r4
        0x00003f5e:    1894        ..      ADDS     r4,r2,r2
        0x00003f60:    4140        @A      ADCS     r0,r0,r0
        0x00003f62:    9a04        ..      LDR      r2,[sp,#0x10]
        0x00003f64:    4605        .F      MOV      r5,r0
        0x00003f66:    0fd2        ..      LSRS     r2,r2,#31
        0x00003f68:    4322        "C      ORRS     r2,r2,r4
        0x00003f6a:    4664        dF      MOV      r4,r12
        0x00003f6c:    0064        d.      LSLS     r4,r4,#1
        0x00003f6e:    1ad3        ..      SUBS     r3,r2,r3
        0x00003f70:    418d        .A      SBCS     r5,r5,r1
        0x00003f72:    4671        qF      MOV      r1,lr
        0x00003f74:    2900        .)      CMP      r1,#0
        0x00003f76:    d101        ..      BNE      0x3f7c ; __aeabi_ddiv + 804
        0x00003f78:    42a8        .B      CMP      r0,r5
        0x00003f7a:    d902        ..      BLS      0x3f82 ; __aeabi_ddiv + 810
        0x00003f7c:    1c64        d.      ADDS     r4,r4,#1
        0x00003f7e:    4628        (F      MOV      r0,r5
        0x00003f80:    461a        .F      MOV      r2,r3
        0x00003f82:    4310        .C      ORRS     r0,r0,r2
        0x00003f84:    2201        ."      MOVS     r2,#1
        0x00003f86:    2800        .(      CMP      r0,#0
        0x00003f88:    d000        ..      BEQ      0x3f8c ; __aeabi_ddiv + 820
        0x00003f8a:    4316        .C      ORRS     r6,r6,r2
        0x00003f8c:    0261        a.      LSLS     r1,r4,#9
        0x00003f8e:    2000        .       MOVS     r0,#0
        0x00003f90:    9b07        ..      LDR      r3,[sp,#0x1c]
        0x00003f92:    4604        .F      MOV      r4,r0
        0x00003f94:    1989        ..      ADDS     r1,r1,r6
        0x00003f96:    415c        \A      ADCS     r4,r4,r3
        0x00003f98:    2302        .#      MOVS     r3,#2
        0x00003f9a:    2c00        .,      CMP      r4,#0
        0x00003f9c:    db02        ..      BLT      0x3fa4 ; __aeabi_ddiv + 844
        0x00003f9e:    1849        I.      ADDS     r1,r1,r1
        0x00003fa0:    4613        .F      MOV      r3,r2
        0x00003fa2:    4164        dA      ADCS     r4,r4,r4
        0x00003fa4:    9d08        ..      LDR      r5,[sp,#0x20]
        0x00003fa6:    0ace        ..      LSRS     r6,r1,#11
        0x00003fa8:    142d        -.      ASRS     r5,r5,#16
        0x00003faa:    195d        ].      ADDS     r5,r3,r5
        0x00003fac:    054b        K.      LSLS     r3,r1,#21
        0x00003fae:    0567        g.      LSLS     r7,r4,#21
        0x00003fb0:    0ae1        ..      LSRS     r1,r4,#11
        0x00003fb2:    052c        ,.      LSLS     r4,r5,#20
        0x00003fb4:    190c        ..      ADDS     r4,r1,r4
        0x00003fb6:    9908        ..      LDR      r1,[sp,#0x20]
        0x00003fb8:    433e        >C      ORRS     r6,r6,r7
        0x00003fba:    07c9        ..      LSLS     r1,r1,#31
        0x00003fbc:    4061        a@      EORS     r1,r1,r4
        0x00003fbe:    2b00        .+      CMP      r3,#0
        0x00003fc0:    d008        ..      BEQ      0x3fd4 ; __aeabi_ddiv + 892
        0x00003fc2:    4093        .@      LSLS     r3,r3,r2
        0x00003fc4:    d306        ..      BCC      0x3fd4 ; __aeabi_ddiv + 892
        0x00003fc6:    2200        ."      MOVS     r2,#0
        0x00003fc8:    1c76        v.      ADDS     r6,r6,#1
        0x00003fca:    4151        QA      ADCS     r1,r1,r2
        0x00003fcc:    2b00        .+      CMP      r3,#0
        0x00003fce:    d101        ..      BNE      0x3fd4 ; __aeabi_ddiv + 892
        0x00003fd0:    0876        v.      LSRS     r6,r6,#1
        0x00003fd2:    0076        v.      LSLS     r6,r6,#1
        0x00003fd4:    4a1e        .J      LDR      r2,[pc,#120] ; [0x4050] = 0x7ff00000
        0x00003fd6:    2c00        .,      CMP      r4,#0
        0x00003fd8:    db45        E.      BLT      0x4066 ; __aeabi_ddiv + 1038
        0x00003fda:    4623        #F      MOV      r3,r4
        0x00003fdc:    4213        .B      TST      r3,r2
        0x00003fde:    d042        B.      BEQ      0x4066 ; __aeabi_ddiv + 1038
        0x00003fe0:    43a2        .C      BICS     r2,r2,r4
        0x00003fe2:    d040        @.      BEQ      0x4066 ; __aeabi_ddiv + 1038
        0x00003fe4:    4630        0F      MOV      r0,r6
        0x00003fe6:    b011        ..      ADD      sp,sp,#0x44
        0x00003fe8:    bdf0        ..      POP      {r4-r7,pc}
        0x00003fea:    460e        .F      MOV      r6,r1
        0x00003fec:    1807        ..      ADDS     r7,r0,r0
        0x00003fee:    414e        NA      ADCS     r6,r6,r1
        0x00003ff0:    4d18        .M      LDR      r5,[pc,#96] ; [0x4054] = 0xffe00000
        0x00003ff2:    427a        zB      RSBS     r2,r7,#0
        0x00003ff4:    41b5        .A      SBCS     r5,r5,r6
        0x00003ff6:    d31a        ..      BCC      0x402e ; __aeabi_ddiv + 982
        0x00003ff8:    9a0e        ..      LDR      r2,[sp,#0x38]
        0x00003ffa:    461d        .F      MOV      r5,r3
        0x00003ffc:    1896        ..      ADDS     r6,r2,r2
        0x00003ffe:    415d        ]A      ADCS     r5,r5,r3
        0x00004000:    4a14        .J      LDR      r2,[pc,#80] ; [0x4054] = 0xffe00000
        0x00004002:    4276        vB      RSBS     r6,r6,#0
        0x00004004:    41aa        .A      SBCS     r2,r2,r5
        0x00004006:    d312        ..      BCC      0x402e ; __aeabi_ddiv + 982
        0x00004008:    2201        ."      MOVS     r2,#1
        0x0000400a:    0552        R.      LSLS     r2,r2,#21
        0x0000400c:    004d        M.      LSLS     r5,r1,#1
        0x0000400e:    42d5        .B      CMN      r5,r2
        0x00004010:    d10a        ..      BNE      0x4028 ; __aeabi_ddiv + 976
        0x00004012:    005c        \.      LSLS     r4,r3,#1
        0x00004014:    42d4        .B      CMN      r4,r2
        0x00004016:    d00a        ..      BEQ      0x402e ; __aeabi_ddiv + 982
        0x00004018:    404b        K@      EORS     r3,r3,r1
        0x0000401a:    d502        ..      BPL      0x4022 ; __aeabi_ddiv + 970
        0x0000401c:    0292        ..      LSLS     r2,r2,#10
        0x0000401e:    4311        .C      ORRS     r1,r1,r2
        0x00004020:    e7e1        ..      B        0x3fe6 ; __aeabi_ddiv + 910
        0x00004022:    0049        I.      LSLS     r1,r1,#1
        0x00004024:    0849        I.      LSRS     r1,r1,#1
        0x00004026:    e7de        ..      B        0x3fe6 ; __aeabi_ddiv + 910
        0x00004028:    0fe1        ..      LSRS     r1,r4,#31
        0x0000402a:    07c9        ..      LSLS     r1,r1,#31
        0x0000402c:    e00a        ..      B        0x4044 ; __aeabi_ddiv + 1004
        0x0000402e:    2000        .       MOVS     r0,#0
        0x00004030:    4909        .I      LDR      r1,[pc,#36] ; [0x4058] = 0x7ff80000
        0x00004032:    e7d8        ..      B        0x3fe6 ; __aeabi_ddiv + 910
        0x00004034:    4806        .H      LDR      r0,[pc,#24] ; [0x4050] = 0x7ff00000
        0x00004036:    4201        .B      TST      r1,r0
        0x00004038:    d012        ..      BEQ      0x4060 ; __aeabi_ddiv + 1032
        0x0000403a:    4808        .H      LDR      r0,[pc,#32] ; [0x405c] = 0x7fffffff
        0x0000403c:    4621        !F      MOV      r1,r4
        0x0000403e:    4301        .C      ORRS     r1,r1,r0
        0x00004040:    12c0        ..      ASRS     r0,r0,#11
        0x00004042:    4041        A@      EORS     r1,r1,r0
        0x00004044:    2000        .       MOVS     r0,#0
        0x00004046:    e7ce        ..      B        0x3fe6 ; __aeabi_ddiv + 910
    $d
        0x00004048:    07ff0000    ....    DCD    134152192
        0x0000404c:    000027a8    .'..    DCD    10152
        0x00004050:    7ff00000    ....    DCD    2146435072
        0x00004054:    ffe00000    ....    DCD    4292870144
        0x00004058:    7ff80000    ....    DCD    2146959360
        0x0000405c:    7fffffff    ....    DCD    2147483647
    $t
        0x00004060:    4203        .B      TST      r3,r0
        0x00004062:    d0e4        ..      BEQ      0x402e ; __aeabi_ddiv + 982
        0x00004064:    e7e0        ..      B        0x4028 ; __aeabi_ddiv + 976
        0x00004066:    2301        .#      MOVS     r3,#1
        0x00004068:    9a08        ..      LDR      r2,[sp,#0x20]
        0x0000406a:    069b        ..      LSLS     r3,r3,#26
        0x0000406c:    429a        .B      CMP      r2,r3
        0x0000406e:    dc05        ..      BGT      0x407c ; __aeabi_ddiv + 1060
        0x00004070:    2203        ."      MOVS     r2,#3
        0x00004072:    0752        R.      LSLS     r2,r2,#29
        0x00004074:    1889        ..      ADDS     r1,r1,r2
        0x00004076:    0fc9        ..      LSRS     r1,r1,#31
        0x00004078:    07c9        ..      LSLS     r1,r1,#31
        0x0000407a:    e7b4        ..      B        0x3fe6 ; __aeabi_ddiv + 910
        0x0000407c:    2205        ."      MOVS     r2,#5
        0x0000407e:    0752        R.      LSLS     r2,r2,#29
        0x00004080:    1889        ..      ADDS     r1,r1,r2
        0x00004082:    4a07        .J      LDR      r2,[pc,#28] ; [0x40a0] = 0x7fffffff
        0x00004084:    4311        .C      ORRS     r1,r1,r2
        0x00004086:    12d2        ..      ASRS     r2,r2,#11
        0x00004088:    4051        Q@      EORS     r1,r1,r2
        0x0000408a:    e7ac        ..      B        0x3fe6 ; __aeabi_ddiv + 910
    _drdiv
        0x0000408c:    4059        Y@      EORS     r1,r1,r3
        0x0000408e:    4050        P@      EORS     r0,r0,r2
        0x00004090:    b510        ..      PUSH     {r4,lr}
        0x00004092:    404b        K@      EORS     r3,r3,r1
        0x00004094:    4042        B@      EORS     r2,r2,r0
        0x00004096:    4059        Y@      EORS     r1,r1,r3
        0x00004098:    4050        P@      EORS     r0,r0,r2
        0x0000409a:    f7fffddd    ....    BL       __aeabi_ddiv ; 0x3c58
        0x0000409e:    bd10        ..      POP      {r4,pc}
    $d
        0x000040a0:    7fffffff    ....    DCD    2147483647
    $t
    .text
    __aeabi_i2d_normalise
        0x000040a4:    221f        ."      MOVS     r2,#0x1f
        0x000040a6:    0c03        ..      LSRS     r3,r0,#16
        0x000040a8:    d102        ..      BNE      0x40b0 ; __aeabi_i2d_normalise + 12
        0x000040aa:    220f        ."      MOVS     r2,#0xf
        0x000040ac:    0400        ..      LSLS     r0,r0,#16
        0x000040ae:    d002        ..      BEQ      0x40b6 ; __aeabi_i2d_normalise + 18
        0x000040b0:    0e03        ..      LSRS     r3,r0,#24
        0x000040b2:    d003        ..      BEQ      0x40bc ; __aeabi_i2d_normalise + 24
        0x000040b4:    e004        ..      B        0x40c0 ; __aeabi_i2d_normalise + 28
        0x000040b6:    2000        .       MOVS     r0,#0
        0x000040b8:    4601        .F      MOV      r1,r0
        0x000040ba:    4770        pG      BX       lr
        0x000040bc:    3a08        .:      SUBS     r2,r2,#8
        0x000040be:    0200        ..      LSLS     r0,r0,#8
        0x000040c0:    0f03        ..      LSRS     r3,r0,#28
        0x000040c2:    d101        ..      BNE      0x40c8 ; __aeabi_i2d_normalise + 36
        0x000040c4:    1f12        ..      SUBS     r2,r2,#4
        0x000040c6:    0100        ..      LSLS     r0,r0,#4
        0x000040c8:    0f83        ..      LSRS     r3,r0,#30
        0x000040ca:    d101        ..      BNE      0x40d0 ; __aeabi_i2d_normalise + 44
        0x000040cc:    1e92        ..      SUBS     r2,r2,#2
        0x000040ce:    0080        ..      LSLS     r0,r0,#2
        0x000040d0:    2800        .(      CMP      r0,#0
        0x000040d2:    db01        ..      BLT      0x40d8 ; __aeabi_i2d_normalise + 52
        0x000040d4:    1e52        R.      SUBS     r2,r2,#1
        0x000040d6:    0040        @.      LSLS     r0,r0,#1
        0x000040d8:    0512        ..      LSLS     r2,r2,#20
        0x000040da:    1851        Q.      ADDS     r1,r2,r1
        0x000040dc:    0542        B.      LSLS     r2,r0,#21
        0x000040de:    12c0        ..      ASRS     r0,r0,#11
        0x000040e0:    1841        A.      ADDS     r1,r0,r1
        0x000040e2:    4610        .F      MOV      r0,r2
        0x000040e4:    4770        pG      BX       lr
    __aeabi_i2d
    _dflt
        0x000040e6:    0fc1        ..      LSRS     r1,r0,#31
        0x000040e8:    07c9        ..      LSLS     r1,r1,#31
        0x000040ea:    d000        ..      BEQ      0x40ee ; __aeabi_i2d + 8
        0x000040ec:    4240        @B      RSBS     r0,r0,#0
        0x000040ee:    2201        ."      MOVS     r2,#1
        0x000040f0:    0792        ..      LSLS     r2,r2,#30
        0x000040f2:    4311        .C      ORRS     r1,r1,r2
        0x000040f4:    e7d6        ..      B        __aeabi_i2d_normalise ; 0x40a4
    __aeabi_ui2d
    _dfltu
        0x000040f6:    2101        .!      MOVS     r1,#1
        0x000040f8:    0789        ..      LSLS     r1,r1,#30
        0x000040fa:    e7d3        ..      B        __aeabi_i2d_normalise ; 0x40a4
    .text
    __aeabi_dmul
    _dmul
        0x000040fc:    b5f0        ..      PUSH     {r4-r7,lr}
        0x000040fe:    4c90        .L      LDR      r4,[pc,#576] ; [0x4340] = 0x7ff0000
        0x00004100:    090d        ..      LSRS     r5,r1,#4
        0x00004102:    4626        &F      MOV      r6,r4
        0x00004104:    46ac        .F      MOV      r12,r5
        0x00004106:    43ae        .C      BICS     r6,r6,r5
        0x00004108:    460d        .F      MOV      r5,r1
        0x0000410a:    405d        ]@      EORS     r5,r5,r3
        0x0000410c:    b087        ..      SUB      sp,sp,#0x1c
        0x0000410e:    2e00        ..      CMP      r6,#0
        0x00004110:    d07e        ~.      BEQ      0x4210 ; __aeabi_dmul + 276
        0x00004112:    091e        ..      LSRS     r6,r3,#4
        0x00004114:    4627        'F      MOV      r7,r4
        0x00004116:    43b7        .C      BICS     r7,r7,r6
        0x00004118:    d0fa        ..      BEQ      0x4110 ; __aeabi_dmul + 20
        0x0000411a:    4667        gF      MOV      r7,r12
        0x0000411c:    4027        '@      ANDS     r7,r7,r4
        0x0000411e:    0fed        ..      LSRS     r5,r5,#31
        0x00004120:    433d        =C      ORRS     r5,r5,r7
        0x00004122:    4026        &@      ANDS     r6,r6,r4
        0x00004124:    d075        u.      BEQ      0x4212 ; __aeabi_dmul + 278
        0x00004126:    0124        $.      LSLS     r4,r4,#4
        0x00004128:    4221        !B      TST      r1,r4
        0x0000412a:    d0fb        ..      BEQ      0x4124 ; __aeabi_dmul + 40
        0x0000412c:    1974        t.      ADDS     r4,r6,r5
        0x0000412e:    25ff        .%      MOVS     r5,#0xff
        0x00004130:    04ad        ..      LSLS     r5,r5,#18
        0x00004132:    1b64        d.      SUBS     r4,r4,r5
        0x00004134:    9404        ..      STR      r4,[sp,#0x10]
        0x00004136:    02cc        ..      LSLS     r4,r1,#11
        0x00004138:    02d9        ..      LSLS     r1,r3,#11
        0x0000413a:    2301        .#      MOVS     r3,#1
        0x0000413c:    051b        ..      LSLS     r3,r3,#20
        0x0000413e:    0ac9        ..      LSRS     r1,r1,#11
        0x00004140:    4319        .C      ORRS     r1,r1,r3
        0x00004142:    0ae4        ..      LSRS     r4,r4,#11
        0x00004144:    431c        .C      ORRS     r4,r4,r3
        0x00004146:    010f        ..      LSLS     r7,r1,#4
        0x00004148:    0124        $.      LSLS     r4,r4,#4
        0x0000414a:    0f03        ..      LSRS     r3,r0,#28
        0x0000414c:    0f11        ..      LSRS     r1,r2,#28
        0x0000414e:    431c        .C      ORRS     r4,r4,r3
        0x00004150:    430f        .C      ORRS     r7,r7,r1
        0x00004152:    0105        ..      LSLS     r5,r0,#4
        0x00004154:    0ba1        ..      LSRS     r1,r4,#14
        0x00004156:    0388        ..      LSLS     r0,r1,#14
        0x00004158:    092d        -.      LSRS     r5,r5,#4
        0x0000415a:    0116        ..      LSLS     r6,r2,#4
        0x0000415c:    4384        .C      BICS     r4,r4,r0
        0x0000415e:    0ba8        ..      LSRS     r0,r5,#14
        0x00004160:    0382        ..      LSLS     r2,r0,#14
        0x00004162:    4395        .C      BICS     r5,r5,r2
        0x00004164:    0bbb        ..      LSRS     r3,r7,#14
        0x00004166:    039a        ..      LSLS     r2,r3,#14
        0x00004168:    4397        .C      BICS     r7,r7,r2
        0x0000416a:    0936        6.      LSRS     r6,r6,#4
        0x0000416c:    46bc        .F      MOV      r12,r7
        0x0000416e:    0bb2        ..      LSRS     r2,r6,#14
        0x00004170:    0397        ..      LSLS     r7,r2,#14
        0x00004172:    43be        .C      BICS     r6,r6,r7
        0x00004174:    4607        .F      MOV      r7,r0
        0x00004176:    4357        WC      MULS     r7,r2,r7
        0x00004178:    9703        ..      STR      r7,[sp,#0xc]
        0x0000417a:    462f        /F      MOV      r7,r5
        0x0000417c:    4377        wC      MULS     r7,r6,r7
        0x0000417e:    9602        ..      STR      r6,[sp,#8]
        0x00004180:    46be        .F      MOV      lr,r7
        0x00004182:    9f02        ..      LDR      r7,[sp,#8]
        0x00004184:    1946        F.      ADDS     r6,r0,r5
        0x00004186:    19d7        ..      ADDS     r7,r2,r7
        0x00004188:    9606        ..      STR      r6,[sp,#0x18]
        0x0000418a:    437e        ~C      MULS     r6,r7,r6
        0x0000418c:    9705        ..      STR      r7,[sp,#0x14]
        0x0000418e:    9f03        ..      LDR      r7,[sp,#0xc]
        0x00004190:    1bf7        ..      SUBS     r7,r6,r7
        0x00004192:    4676        vF      MOV      r6,lr
        0x00004194:    1bbe        ..      SUBS     r6,r7,r6
        0x00004196:    4677        wF      MOV      r7,lr
        0x00004198:    013f        ?.      LSLS     r7,r7,#4
        0x0000419a:    9700        ..      STR      r7,[sp,#0]
        0x0000419c:    9601        ..      STR      r6,[sp,#4]
        0x0000419e:    9f03        ..      LDR      r7,[sp,#0xc]
        0x000041a0:    0bb6        ..      LSRS     r6,r6,#14
        0x000041a2:    19f6        ..      ADDS     r6,r6,r7
        0x000041a4:    46b6        .F      MOV      lr,r6
        0x000041a6:    9e01        ..      LDR      r6,[sp,#4]
        0x000041a8:    9f00        ..      LDR      r7,[sp,#0]
        0x000041aa:    04b6        ..      LSLS     r6,r6,#18
        0x000041ac:    19bf        ..      ADDS     r7,r7,r6
        0x000041ae:    d302        ..      BCC      0x41b6 ; __aeabi_dmul + 186
        0x000041b0:    4676        vF      MOV      r6,lr
        0x000041b2:    1c76        v.      ADDS     r6,r6,#1
        0x000041b4:    46b6        .F      MOV      lr,r6
        0x000041b6:    4676        vF      MOV      r6,lr
        0x000041b8:    0076        v.      LSLS     r6,r6,#1
        0x000041ba:    2f00        ./      CMP      r7,#0
        0x000041bc:    d001        ..      BEQ      0x41c2 ; __aeabi_dmul + 198
        0x000041be:    2701        .'      MOVS     r7,#1
        0x000041c0:    433e        >C      ORRS     r6,r6,r7
        0x000041c2:    4667        gF      MOV      r7,r12
        0x000041c4:    437d        }C      MULS     r5,r7,r5
        0x000041c6:    46ae        .F      MOV      lr,r5
        0x000041c8:    9f02        ..      LDR      r7,[sp,#8]
        0x000041ca:    4625        %F      MOV      r5,r4
        0x000041cc:    437d        }C      MULS     r5,r7,r5
        0x000041ce:    9500        ..      STR      r5,[sp,#0]
        0x000041d0:    006d        m.      LSLS     r5,r5,#1
        0x000041d2:    19ae        ..      ADDS     r6,r5,r6
        0x000041d4:    4675        uF      MOV      r5,lr
        0x000041d6:    006d        m.      LSLS     r5,r5,#1
        0x000041d8:    19af        ..      ADDS     r7,r5,r6
        0x000041da:    4665        eF      MOV      r5,r12
        0x000041dc:    195d        ].      ADDS     r5,r3,r5
        0x000041de:    9e06        ..      LDR      r6,[sp,#0x18]
        0x000041e0:    9503        ..      STR      r5,[sp,#0xc]
        0x000041e2:    436e        nC      MULS     r6,r5,r6
        0x000041e4:    4675        uF      MOV      r5,lr
        0x000041e6:    1b75        u.      SUBS     r5,r6,r5
        0x000041e8:    46ae        .F      MOV      lr,r5
        0x000041ea:    190d        ..      ADDS     r5,r1,r4
        0x000041ec:    9e05        ..      LDR      r6,[sp,#0x14]
        0x000041ee:    9502        ..      STR      r5,[sp,#8]
        0x000041f0:    436e        nC      MULS     r6,r5,r6
        0x000041f2:    9d00        ..      LDR      r5,[sp,#0]
        0x000041f4:    4358        XC      MULS     r0,r3,r0
        0x000041f6:    1b76        v.      SUBS     r6,r6,r5
        0x000041f8:    4675        uF      MOV      r5,lr
        0x000041fa:    1a2d        -.      SUBS     r5,r5,r0
        0x000041fc:    434a        JC      MULS     r2,r1,r2
        0x000041fe:    4696        .F      MOV      lr,r2
        0x00004200:    1ab2        ..      SUBS     r2,r6,r2
        0x00004202:    9200        ..      STR      r2,[sp,#0]
        0x00004204:    9501        ..      STR      r5,[sp,#4]
        0x00004206:    06fa        ..      LSLS     r2,r7,#27
        0x00004208:    d006        ..      BEQ      0x4218 ; __aeabi_dmul + 284
        0x0000420a:    097d        }.      LSRS     r5,r7,#5
        0x0000420c:    2201        ."      MOVS     r2,#1
        0x0000420e:    e001        ..      B        0x4214 ; __aeabi_dmul + 280
        0x00004210:    e076        v.      B        0x4300 ; __aeabi_dmul + 516
        0x00004212:    e072        r.      B        0x42fa ; __aeabi_dmul + 510
        0x00004214:    4315        .C      ORRS     r5,r5,r2
        0x00004216:    e000        ..      B        0x421a ; __aeabi_dmul + 286
        0x00004218:    097d        }.      LSRS     r5,r7,#5
        0x0000421a:    0a02        ..      LSRS     r2,r0,#8
        0x0000421c:    0600        ..      LSLS     r0,r0,#24
        0x0000421e:    2700        .'      MOVS     r7,#0
        0x00004220:    1945        E.      ADDS     r5,r0,r5
        0x00004222:    417a        zA      ADCS     r2,r2,r7
        0x00004224:    4676        vF      MOV      r6,lr
        0x00004226:    0a30        0.      LSRS     r0,r6,#8
        0x00004228:    0636        6.      LSLS     r6,r6,#24
        0x0000422a:    1976        v.      ADDS     r6,r6,r5
        0x0000422c:    4150        PA      ADCS     r0,r0,r2
        0x0000422e:    9a01        ..      LDR      r2,[sp,#4]
        0x00004230:    0d95        ..      LSRS     r5,r2,#22
        0x00004232:    0292        ..      LSLS     r2,r2,#10
        0x00004234:    1996        ..      ADDS     r6,r2,r6
        0x00004236:    4145        EA      ADCS     r5,r5,r0
        0x00004238:    9800        ..      LDR      r0,[sp,#0]
        0x0000423a:    0d82        ..      LSRS     r2,r0,#22
        0x0000423c:    0280        ..      LSLS     r0,r0,#10
        0x0000423e:    1980        ..      ADDS     r0,r0,r6
        0x00004240:    416a        jA      ADCS     r2,r2,r5
        0x00004242:    4359        YC      MULS     r1,r3,r1
        0x00004244:    4663        cF      MOV      r3,r12
        0x00004246:    435c        \C      MULS     r4,r3,r4
        0x00004248:    9d03        ..      LDR      r5,[sp,#0xc]
        0x0000424a:    9b02        ..      LDR      r3,[sp,#8]
        0x0000424c:    436b        kC      MULS     r3,r5,r3
        0x0000424e:    1a5b        [.      SUBS     r3,r3,r1
        0x00004250:    1b1e        ..      SUBS     r6,r3,r4
        0x00004252:    0eb3        ..      LSRS     r3,r6,#26
        0x00004254:    01b6        ..      LSLS     r6,r6,#6
        0x00004256:    18b6        ..      ADDS     r6,r6,r2
        0x00004258:    417b        {A      ADCS     r3,r3,r7
        0x0000425a:    0b0a        ..      LSRS     r2,r1,#12
        0x0000425c:    0509        ..      LSLS     r1,r1,#20
        0x0000425e:    1989        ..      ADDS     r1,r1,r6
        0x00004260:    415a        ZA      ADCS     r2,r2,r3
        0x00004262:    0a23        #.      LSRS     r3,r4,#8
        0x00004264:    0624        $.      LSLS     r4,r4,#24
        0x00004266:    1824        $.      ADDS     r4,r4,r0
        0x00004268:    414b        KA      ADCS     r3,r3,r1
        0x0000426a:    428b        .B      CMP      r3,r1
        0x0000426c:    d200        ..      BCS      0x4270 ; __aeabi_dmul + 372
        0x0000426e:    1c52        R.      ADDS     r2,r2,#1
        0x00004270:    2001        .       MOVS     r0,#1
        0x00004272:    0240        @.      LSLS     r0,r0,#9
        0x00004274:    4282        .B      CMP      r2,r0
        0x00004276:    d303        ..      BCC      0x4280 ; __aeabi_dmul + 388
        0x00004278:    2115        .!      MOVS     r1,#0x15
        0x0000427a:    2602        .&      MOVS     r6,#2
        0x0000427c:    43f6        .C      MVNS     r6,r6
        0x0000427e:    e002        ..      B        0x4286 ; __aeabi_dmul + 394
        0x00004280:    2114        .!      MOVS     r1,#0x14
        0x00004282:    2603        .&      MOVS     r6,#3
        0x00004284:    43f6        .C      MVNS     r6,r6
        0x00004286:    2020                MOVS     r0,#0x20
        0x00004288:    1a45        E.      SUBS     r5,r0,r1
        0x0000428a:    40aa        .@      LSLS     r2,r2,r5
        0x0000428c:    461f        .F      MOV      r7,r3
        0x0000428e:    40af        .@      LSLS     r7,r7,r5
        0x00004290:    40cb        .@      LSRS     r3,r3,r1
        0x00004292:    4620         F      MOV      r0,r4
        0x00004294:    40c8        .@      LSRS     r0,r0,r1
        0x00004296:    9904        ..      LDR      r1,[sp,#0x10]
        0x00004298:    4313        .C      ORRS     r3,r3,r2
        0x0000429a:    1409        ..      ASRS     r1,r1,#16
        0x0000429c:    1871        q.      ADDS     r1,r6,r1
        0x0000429e:    0509        ..      LSLS     r1,r1,#20
        0x000042a0:    185a        Z.      ADDS     r2,r3,r1
        0x000042a2:    9904        ..      LDR      r1,[sp,#0x10]
        0x000042a4:    4338        8C      ORRS     r0,r0,r7
        0x000042a6:    07c9        ..      LSLS     r1,r1,#31
        0x000042a8:    4051        Q@      EORS     r1,r1,r2
        0x000042aa:    40ac        .@      LSLS     r4,r4,r5
        0x000042ac:    d009        ..      BEQ      0x42c2 ; __aeabi_dmul + 454
        0x000042ae:    2301        .#      MOVS     r3,#1
        0x000042b0:    409c        .@      LSLS     r4,r4,r3
        0x000042b2:    d306        ..      BCC      0x42c2 ; __aeabi_dmul + 454
        0x000042b4:    2300        .#      MOVS     r3,#0
        0x000042b6:    1c40        @.      ADDS     r0,r0,#1
        0x000042b8:    4159        YA      ADCS     r1,r1,r3
        0x000042ba:    2c00        .,      CMP      r4,#0
        0x000042bc:    d101        ..      BNE      0x42c2 ; __aeabi_dmul + 454
        0x000042be:    0840        @.      LSRS     r0,r0,#1
        0x000042c0:    0040        @.      LSLS     r0,r0,#1
        0x000042c2:    4b20         K      LDR      r3,[pc,#128] ; [0x4344] = 0x7ff00000
        0x000042c4:    2a00        .*      CMP      r2,#0
        0x000042c6:    db03        ..      BLT      0x42d0 ; __aeabi_dmul + 468
        0x000042c8:    421a        .B      TST      r2,r3
        0x000042ca:    d001        ..      BEQ      0x42d0 ; __aeabi_dmul + 468
        0x000042cc:    438b        .C      BICS     r3,r3,r1
        0x000042ce:    d112        ..      BNE      0x42f6 ; __aeabi_dmul + 506
        0x000042d0:    2201        ."      MOVS     r2,#1
        0x000042d2:    9804        ..      LDR      r0,[sp,#0x10]
        0x000042d4:    0692        ..      LSLS     r2,r2,#26
        0x000042d6:    4290        .B      CMP      r0,r2
        0x000042d8:    db07        ..      BLT      0x42ea ; __aeabi_dmul + 494
        0x000042da:    2005        .       MOVS     r0,#5
        0x000042dc:    0740        @.      LSLS     r0,r0,#29
        0x000042de:    1809        ..      ADDS     r1,r1,r0
        0x000042e0:    4819        .H      LDR      r0,[pc,#100] ; [0x4348] = 0x7fffffff
        0x000042e2:    4301        .C      ORRS     r1,r1,r0
        0x000042e4:    12c0        ..      ASRS     r0,r0,#11
        0x000042e6:    4041        A@      EORS     r1,r1,r0
        0x000042e8:    e004        ..      B        0x42f4 ; __aeabi_dmul + 504
        0x000042ea:    2003        .       MOVS     r0,#3
        0x000042ec:    0740        @.      LSLS     r0,r0,#29
        0x000042ee:    1808        ..      ADDS     r0,r1,r0
        0x000042f0:    0fc1        ..      LSRS     r1,r0,#31
        0x000042f2:    07c9        ..      LSLS     r1,r1,#31
        0x000042f4:    2000        .       MOVS     r0,#0
        0x000042f6:    b007        ..      ADD      sp,sp,#0x1c
        0x000042f8:    bdf0        ..      POP      {r4-r7,pc}
        0x000042fa:    2000        .       MOVS     r0,#0
        0x000042fc:    07e9        ..      LSLS     r1,r5,#31
        0x000042fe:    e7fa        ..      B        0x42f6 ; __aeabi_dmul + 506
        0x00004300:    1806        ..      ADDS     r6,r0,r0
        0x00004302:    460c        .F      MOV      r4,r1
        0x00004304:    414c        LA      ADCS     r4,r4,r1
        0x00004306:    4811        .H      LDR      r0,[pc,#68] ; [0x434c] = 0xffe00000
        0x00004308:    4276        vB      RSBS     r6,r6,#0
        0x0000430a:    41a0        .A      SBCS     r0,r0,r4
        0x0000430c:    d314        ..      BCC      0x4338 ; __aeabi_dmul + 572
        0x0000430e:    1894        ..      ADDS     r4,r2,r2
        0x00004310:    461a        .F      MOV      r2,r3
        0x00004312:    415a        ZA      ADCS     r2,r2,r3
        0x00004314:    480d        .H      LDR      r0,[pc,#52] ; [0x434c] = 0xffe00000
        0x00004316:    4264        dB      RSBS     r4,r4,#0
        0x00004318:    4190        .A      SBCS     r0,r0,r2
        0x0000431a:    d30d        ..      BCC      0x4338 ; __aeabi_dmul + 572
        0x0000431c:    2001        .       MOVS     r0,#1
        0x0000431e:    0049        I.      LSLS     r1,r1,#1
        0x00004320:    0540        @.      LSLS     r0,r0,#21
        0x00004322:    4281        .B      CMP      r1,r0
        0x00004324:    d308        ..      BCC      0x4338 ; __aeabi_dmul + 572
        0x00004326:    0059        Y.      LSLS     r1,r3,#1
        0x00004328:    4281        .B      CMP      r1,r0
        0x0000432a:    d305        ..      BCC      0x4338 ; __aeabi_dmul + 572
        0x0000432c:    0fe9        ..      LSRS     r1,r5,#31
        0x0000432e:    4a05        .J      LDR      r2,[pc,#20] ; [0x4344] = 0x7ff00000
        0x00004330:    07c9        ..      LSLS     r1,r1,#31
        0x00004332:    2000        .       MOVS     r0,#0
        0x00004334:    4311        .C      ORRS     r1,r1,r2
        0x00004336:    e7de        ..      B        0x42f6 ; __aeabi_dmul + 506
        0x00004338:    2000        .       MOVS     r0,#0
        0x0000433a:    4905        .I      LDR      r1,[pc,#20] ; [0x4350] = 0x7ff80000
        0x0000433c:    e7db        ..      B        0x42f6 ; __aeabi_dmul + 506
    $d
        0x0000433e:    0000        ..      DCW    0
        0x00004340:    07ff0000    ....    DCD    134152192
        0x00004344:    7ff00000    ....    DCD    2146435072
        0x00004348:    7fffffff    ....    DCD    2147483647
        0x0000434c:    ffe00000    ....    DCD    4292870144
        0x00004350:    7ff80000    ....    DCD    2146959360
    $t
    .text
    __aeabi_f2d
    _f2d
        0x00004354:    2101        .!      MOVS     r1,#1
        0x00004356:    05c9        ..      LSLS     r1,r1,#23
        0x00004358:    2301        .#      MOVS     r3,#1
        0x0000435a:    1841        A.      ADDS     r1,r0,r1
        0x0000435c:    0042        B.      LSLS     r2,r0,#1
        0x0000435e:    061b        ..      LSLS     r3,r3,#24
        0x00004360:    18d3        ..      ADDS     r3,r2,r3
        0x00004362:    0e5b        [.      LSRS     r3,r3,#25
        0x00004364:    d00b        ..      BEQ      0x437e ; __aeabi_f2d + 42
        0x00004366:    10c1        ..      ASRS     r1,r0,#3
        0x00004368:    2207        ."      MOVS     r2,#7
        0x0000436a:    06d2        ..      LSLS     r2,r2,#27
        0x0000436c:    1889        ..      ADDS     r1,r1,r2
        0x0000436e:    0740        @.      LSLS     r0,r0,#29
        0x00004370:    4252        RB      RSBS     r2,r2,#0
        0x00004372:    188a        ..      ADDS     r2,r1,r2
        0x00004374:    d502        ..      BPL      0x437c ; __aeabi_f2d + 40
        0x00004376:    2209        ."      MOVS     r2,#9
        0x00004378:    0712        ..      LSLS     r2,r2,#28
        0x0000437a:    1889        ..      ADDS     r1,r1,r2
        0x0000437c:    4770        pG      BX       lr
        0x0000437e:    0209        ..      LSLS     r1,r1,#8
        0x00004380:    d508        ..      BPL      0x4394 ; __aeabi_f2d + 64
        0x00004382:    4601        .F      MOV      r1,r0
        0x00004384:    2a00        .*      CMP      r2,#0
        0x00004386:    d003        ..      BEQ      0x4390 ; __aeabi_f2d + 60
        0x00004388:    0fc1        ..      LSRS     r1,r0,#31
        0x0000438a:    07c9        ..      LSLS     r1,r1,#31
        0x0000438c:    2000        .       MOVS     r0,#0
        0x0000438e:    4770        pG      BX       lr
        0x00004390:    4610        .F      MOV      r0,r2
        0x00004392:    4770        pG      BX       lr
        0x00004394:    0242        B.      LSLS     r2,r0,#9
        0x00004396:    d002        ..      BEQ      0x439e ; __aeabi_f2d + 74
        0x00004398:    2000        .       MOVS     r0,#0
        0x0000439a:    4903        .I      LDR      r1,[pc,#12] ; [0x43a8] = 0x7ff80000
        0x0000439c:    4770        pG      BX       lr
        0x0000439e:    2107        .!      MOVS     r1,#7
        0x000043a0:    0509        ..      LSLS     r1,r1,#20
        0x000043a2:    4301        .C      ORRS     r1,r1,r0
        0x000043a4:    e7f4        ..      B        0x4390 ; __aeabi_f2d + 60
    $d
        0x000043a6:    0000        ..      DCW    0
        0x000043a8:    7ff80000    ....    DCD    2146959360
    $t
    .text
    __aeabi_fdiv
    _fdiv
        0x000043ac:    b570        p.      PUSH     {r4-r6,lr}
        0x000043ae:    24ff        .$      MOVS     r4,#0xff
        0x000043b0:    0424        $.      LSLS     r4,r4,#16
        0x000043b2:    09c6        ..      LSRS     r6,r0,#7
        0x000043b4:    25ff        .%      MOVS     r5,#0xff
        0x000043b6:    4026        &@      ANDS     r6,r6,r4
        0x000043b8:    3501        .5      ADDS     r5,#1
        0x000043ba:    432e        .C      ORRS     r6,r6,r5
        0x000043bc:    09c2        ..      LSRS     r2,r0,#7
        0x000043be:    09cb        ..      LSRS     r3,r1,#7
        0x000043c0:    4605        .F      MOV      r5,r0
        0x000043c2:    4022        "@      ANDS     r2,r2,r4
        0x000043c4:    4023        #@      ANDS     r3,r3,r4
        0x000043c6:    404d        M@      EORS     r5,r5,r1
        0x000043c8:    2a00        .*      CMP      r2,#0
        0x000043ca:    d06b        k.      BEQ      0x44a4 ; __aeabi_fdiv + 248
        0x000043cc:    2b00        .+      CMP      r3,#0
        0x000043ce:    d069        i.      BEQ      0x44a4 ; __aeabi_fdiv + 248
        0x000043d0:    42a2        .B      CMP      r2,r4
        0x000043d2:    d067        g.      BEQ      0x44a4 ; __aeabi_fdiv + 248
        0x000043d4:    42a3        .B      CMP      r3,r4
        0x000043d6:    d065        e.      BEQ      0x44a4 ; __aeabi_fdiv + 248
        0x000043d8:    2d00        .-      CMP      r5,#0
        0x000043da:    da00        ..      BGE      0x43de ; __aeabi_fdiv + 50
        0x000043dc:    4632        2F      MOV      r2,r6
        0x000043de:    2401        .$      MOVS     r4,#1
        0x000043e0:    05e4        ..      LSLS     r4,r4,#23
        0x000043e2:    4321        !C      ORRS     r1,r1,r4
        0x000043e4:    4320         C      ORRS     r0,r0,r4
        0x000043e6:    0209        ..      LSLS     r1,r1,#8
        0x000043e8:    0200        ..      LSLS     r0,r0,#8
        0x000043ea:    0a09        ..      LSRS     r1,r1,#8
        0x000043ec:    1ad2        ..      SUBS     r2,r2,r3
        0x000043ee:    0a00        ..      LSRS     r0,r0,#8
        0x000043f0:    0c4b        K.      LSRS     r3,r1,#17
        0x000043f2:    247f        .$      MOVS     r4,#0x7f
        0x000043f4:    1ae3        ..      SUBS     r3,r4,r3
        0x000043f6:    4c43        CL      LDR      r4,[pc,#268] ; [0x4504] = 0x20f4
        0x000043f8:    447c        |D      ADD      r4,r4,pc
        0x000043fa:    5ce3        .\      LDRB     r3,[r4,r3]
        0x000043fc:    247d        }$      MOVS     r4,#0x7d
        0x000043fe:    0424        $.      LSLS     r4,r4,#16
        0x00004400:    1912        ..      ADDS     r2,r2,r4
        0x00004402:    1414        ..      ASRS     r4,r2,#16
        0x00004404:    005b        [.      LSLS     r3,r3,#1
        0x00004406:    18a2        ..      ADDS     r2,r4,r2
        0x00004408:    4288        .B      CMP      r0,r1
        0x0000440a:    d301        ..      BCC      0x4410 ; __aeabi_fdiv + 100
        0x0000440c:    1c52        R.      ADDS     r2,r2,#1
        0x0000440e:    e000        ..      B        0x4412 ; __aeabi_fdiv + 102
        0x00004410:    0040        @.      LSLS     r0,r0,#1
        0x00004412:    4249        IB      RSBS     r1,r1,#0
        0x00004414:    460c        .F      MOV      r4,r1
        0x00004416:    435c        \C      MULS     r4,r3,r4
        0x00004418:    1124        $.      ASRS     r4,r4,#4
        0x0000441a:    435c        \C      MULS     r4,r3,r4
        0x0000441c:    01db        ..      LSLS     r3,r3,#7
        0x0000441e:    1564        d.      ASRS     r4,r4,#21
        0x00004420:    18e3        ..      ADDS     r3,r4,r3
        0x00004422:    0a04        ..      LSRS     r4,r0,#8
        0x00004424:    435c        \C      MULS     r4,r3,r4
        0x00004426:    02c5        ..      LSLS     r5,r0,#11
        0x00004428:    0d20         .      LSRS     r0,r4,#20
        0x0000442a:    460c        .F      MOV      r4,r1
        0x0000442c:    4344        DC      MULS     r4,r0,r4
        0x0000442e:    1964        d.      ADDS     r4,r4,r5
        0x00004430:    0a25        %.      LSRS     r5,r4,#8
        0x00004432:    435d        ]C      MULS     r5,r3,r5
        0x00004434:    0323        #.      LSLS     r3,r4,#12
        0x00004436:    0cec        ..      LSRS     r4,r5,#19
        0x00004438:    460d        .F      MOV      r5,r1
        0x0000443a:    4365        eC      MULS     r5,r4,r5
        0x0000443c:    0300        ..      LSLS     r0,r0,#12
        0x0000443e:    1900        ..      ADDS     r0,r0,r4
        0x00004440:    18eb        ..      ADDS     r3,r5,r3
        0x00004442:    424c        LB      RSBS     r4,r1,#0
        0x00004444:    42a3        .B      CMP      r3,r4
        0x00004446:    d301        ..      BCC      0x444c ; __aeabi_fdiv + 160
        0x00004448:    185b        [.      ADDS     r3,r3,r1
        0x0000444a:    1c40        @.      ADDS     r0,r0,#1
        0x0000444c:    05d4        ..      LSLS     r4,r2,#23
        0x0000444e:    1820         .      ADDS     r0,r4,r0
        0x00004450:    2b00        .+      CMP      r3,#0
        0x00004452:    d007        ..      BEQ      0x4464 ; __aeabi_fdiv + 184
        0x00004454:    005b        [.      LSLS     r3,r3,#1
        0x00004456:    18c9        ..      ADDS     r1,r1,r3
        0x00004458:    d304        ..      BCC      0x4464 ; __aeabi_fdiv + 184
        0x0000445a:    1c40        @.      ADDS     r0,r0,#1
        0x0000445c:    2900        .)      CMP      r1,#0
        0x0000445e:    d101        ..      BNE      0x4464 ; __aeabi_fdiv + 184
        0x00004460:    0840        @.      LSRS     r0,r0,#1
        0x00004462:    0040        @.      LSLS     r0,r0,#1
        0x00004464:    213f        ?!      MOVS     r1,#0x3f
        0x00004466:    0489        ..      LSLS     r1,r1,#18
        0x00004468:    428a        .B      CMP      r2,r1
        0x0000446a:    d309        ..      BCC      0x4480 ; __aeabi_fdiv + 212
        0x0000446c:    2a00        .*      CMP      r2,#0
        0x0000446e:    dc08        ..      BGT      0x4482 ; __aeabi_fdiv + 214
        0x00004470:    0611        ..      LSLS     r1,r2,#24
        0x00004472:    0f09        ..      LSRS     r1,r1,#28
        0x00004474:    d004        ..      BEQ      0x4480 ; __aeabi_fdiv + 212
        0x00004476:    2103        .!      MOVS     r1,#3
        0x00004478:    0749        I.      LSLS     r1,r1,#29
        0x0000447a:    1840        @.      ADDS     r0,r0,r1
        0x0000447c:    0fc0        ..      LSRS     r0,r0,#31
        0x0000447e:    07c0        ..      LSLS     r0,r0,#31
        0x00004480:    bd70        p.      POP      {r4-r6,pc}
        0x00004482:    2201        ."      MOVS     r2,#1
        0x00004484:    0041        A.      LSLS     r1,r0,#1
        0x00004486:    0612        ..      LSLS     r2,r2,#24
        0x00004488:    1889        ..      ADDS     r1,r1,r2
        0x0000448a:    227f        ."      MOVS     r2,#0x7f
        0x0000448c:    0652        R.      LSLS     r2,r2,#25
        0x0000448e:    4291        .B      CMP      r1,r2
        0x00004490:    d2f6        ..      BCS      0x4480 ; __aeabi_fdiv + 212
        0x00004492:    2105        .!      MOVS     r1,#5
        0x00004494:    0749        I.      LSLS     r1,r1,#29
        0x00004496:    1840        @.      ADDS     r0,r0,r1
        0x00004498:    d501        ..      BPL      0x449e ; __aeabi_fdiv + 242
        0x0000449a:    1090        ..      ASRS     r0,r2,#2
        0x0000449c:    bd70        p.      POP      {r4-r6,pc}
        0x0000449e:    20ff        .       MOVS     r0,#0xff
        0x000044a0:    05c0        ..      LSLS     r0,r0,#23
        0x000044a2:    bd70        p.      POP      {r4-r6,pc}
        0x000044a4:    2d00        .-      CMP      r5,#0
        0x000044a6:    da00        ..      BGE      0x44aa ; __aeabi_fdiv + 254
        0x000044a8:    4632        2F      MOV      r2,r6
        0x000044aa:    4e17        .N      LDR      r6,[pc,#92] ; [0x4508] = 0x7fc00000
        0x000044ac:    42a2        .B      CMP      r2,r4
        0x000044ae:    d207        ..      BCS      0x44c0 ; __aeabi_fdiv + 276
        0x000044b0:    42a3        .B      CMP      r3,r4
        0x000044b2:    d205        ..      BCS      0x44c0 ; __aeabi_fdiv + 276
        0x000044b4:    0218        ..      LSLS     r0,r3,#8
        0x000044b6:    0e00        ..      LSRS     r0,r0,#24
        0x000044b8:    d017        ..      BEQ      0x44ea ; __aeabi_fdiv + 318
        0x000044ba:    0fe8        ..      LSRS     r0,r5,#31
        0x000044bc:    07c0        ..      LSLS     r0,r0,#31
        0x000044be:    bd70        p.      POP      {r4-r6,pc}
        0x000044c0:    24ff        .$      MOVS     r4,#0xff
        0x000044c2:    0043        C.      LSLS     r3,r0,#1
        0x000044c4:    0624        $.      LSLS     r4,r4,#24
        0x000044c6:    42a3        .B      CMP      r3,r4
        0x000044c8:    d816        ..      BHI      0x44f8 ; __aeabi_fdiv + 332
        0x000044ca:    0049        I.      LSLS     r1,r1,#1
        0x000044cc:    42a1        .B      CMP      r1,r4
        0x000044ce:    d813        ..      BHI      0x44f8 ; __aeabi_fdiv + 332
        0x000044d0:    42a3        .B      CMP      r3,r4
        0x000044d2:    d101        ..      BNE      0x44d8 ; __aeabi_fdiv + 300
        0x000044d4:    42a1        .B      CMP      r1,r4
        0x000044d6:    d00f        ..      BEQ      0x44f8 ; __aeabi_fdiv + 332
        0x000044d8:    42a1        .B      CMP      r1,r4
        0x000044da:    d101        ..      BNE      0x44e0 ; __aeabi_fdiv + 308
        0x000044dc:    2100        .!      MOVS     r1,#0
        0x000044de:    e001        ..      B        0x44e4 ; __aeabi_fdiv + 312
        0x000044e0:    0041        A.      LSLS     r1,r0,#1
        0x000044e2:    0849        I.      LSRS     r1,r1,#1
        0x000044e4:    05d0        ..      LSLS     r0,r2,#23
        0x000044e6:    4308        .C      ORRS     r0,r0,r1
        0x000044e8:    bd70        p.      POP      {r4-r6,pc}
        0x000044ea:    0210        ..      LSLS     r0,r2,#8
        0x000044ec:    0e00        ..      LSRS     r0,r0,#24
        0x000044ee:    d003        ..      BEQ      0x44f8 ; __aeabi_fdiv + 332
        0x000044f0:    20ff        .       MOVS     r0,#0xff
        0x000044f2:    4302        .C      ORRS     r2,r2,r0
        0x000044f4:    05d0        ..      LSLS     r0,r2,#23
        0x000044f6:    bd70        p.      POP      {r4-r6,pc}
        0x000044f8:    4630        0F      MOV      r0,r6
        0x000044fa:    bd70        p.      POP      {r4-r6,pc}
    _frdiv
        0x000044fc:    4048        H@      EORS     r0,r0,r1
        0x000044fe:    4041        A@      EORS     r1,r1,r0
        0x00004500:    4048        H@      EORS     r0,r0,r1
        0x00004502:    e753        S.      B        __aeabi_fdiv ; 0x43ac
    $d
        0x00004504:    000020f4    . ..    DCD    8436
        0x00004508:    7fc00000    ....    DCD    2143289344
    $t
    .text
    __aeabi_f2iz
    _ffix
        0x0000450c:    b510        ..      PUSH     {r4,lr}
        0x0000450e:    4602        .F      MOV      r2,r0
        0x00004510:    249e        .$      MOVS     r4,#0x9e
        0x00004512:    0200        ..      LSLS     r0,r0,#8
        0x00004514:    15d1        ..      ASRS     r1,r2,#23
        0x00004516:    07a3        ..      LSLS     r3,r4,#30
        0x00004518:    2900        .)      CMP      r1,#0
        0x0000451a:    d002        ..      BEQ      0x4522 ; __aeabi_f2iz + 22
        0x0000451c:    4318        .C      ORRS     r0,r0,r3
        0x0000451e:    2900        .)      CMP      r1,#0
        0x00004520:    db04        ..      BLT      0x452c ; __aeabi_f2iz + 32
        0x00004522:    1a61        a.      SUBS     r1,r4,r1
        0x00004524:    2900        .)      CMP      r1,#0
        0x00004526:    dd0c        ..      BLE      0x4542 ; __aeabi_f2iz + 54
        0x00004528:    40c8        .@      LSRS     r0,r0,r1
        0x0000452a:    bd10        ..      POP      {r4,pc}
        0x0000452c:    0609        ..      LSLS     r1,r1,#24
        0x0000452e:    0e09        ..      LSRS     r1,r1,#24
        0x00004530:    d101        ..      BNE      0x4536 ; __aeabi_f2iz + 42
        0x00004532:    0040        @.      LSLS     r0,r0,#1
        0x00004534:    0840        @.      LSRS     r0,r0,#1
        0x00004536:    1a61        a.      SUBS     r1,r4,r1
        0x00004538:    d403        ..      BMI      0x4542 ; __aeabi_f2iz + 54
        0x0000453a:    40c8        .@      LSRS     r0,r0,r1
        0x0000453c:    4240        @B      RSBS     r0,r0,#0
        0x0000453e:    2800        .(      CMP      r0,#0
        0x00004540:    ddf3        ..      BLE      0x452a ; __aeabi_f2iz + 30
        0x00004542:    21ff        .!      MOVS     r1,#0xff
        0x00004544:    0050        P.      LSLS     r0,r2,#1
        0x00004546:    0609        ..      LSLS     r1,r1,#24
        0x00004548:    4288        .B      CMP      r0,r1
        0x0000454a:    d901        ..      BLS      0x4550 ; __aeabi_f2iz + 68
        0x0000454c:    2000        .       MOVS     r0,#0
        0x0000454e:    bd10        ..      POP      {r4,pc}
        0x00004550:    17d0        ..      ASRS     r0,r2,#31
        0x00004552:    43c0        .C      MVNS     r0,r0
        0x00004554:    4058        X@      EORS     r0,r0,r3
        0x00004556:    bd10        ..      POP      {r4,pc}
    .text
    __aeabi_i2f_normalise
        0x00004558:    221f        ."      MOVS     r2,#0x1f
        0x0000455a:    0c03        ..      LSRS     r3,r0,#16
        0x0000455c:    d102        ..      BNE      0x4564 ; __aeabi_i2f_normalise + 12
        0x0000455e:    220f        ."      MOVS     r2,#0xf
        0x00004560:    0400        ..      LSLS     r0,r0,#16
        0x00004562:    d01c        ..      BEQ      0x459e ; __aeabi_i2f_normalise + 70
        0x00004564:    0e03        ..      LSRS     r3,r0,#24
        0x00004566:    d101        ..      BNE      0x456c ; __aeabi_i2f_normalise + 20
        0x00004568:    3a08        .:      SUBS     r2,r2,#8
        0x0000456a:    0200        ..      LSLS     r0,r0,#8
        0x0000456c:    0f03        ..      LSRS     r3,r0,#28
        0x0000456e:    d101        ..      BNE      0x4574 ; __aeabi_i2f_normalise + 28
        0x00004570:    1f12        ..      SUBS     r2,r2,#4
        0x00004572:    0100        ..      LSLS     r0,r0,#4
        0x00004574:    0f83        ..      LSRS     r3,r0,#30
        0x00004576:    d101        ..      BNE      0x457c ; __aeabi_i2f_normalise + 36
        0x00004578:    1e92        ..      SUBS     r2,r2,#2
        0x0000457a:    0080        ..      LSLS     r0,r0,#2
        0x0000457c:    2800        .(      CMP      r0,#0
        0x0000457e:    db01        ..      BLT      0x4584 ; __aeabi_i2f_normalise + 44
        0x00004580:    1e52        R.      SUBS     r2,r2,#1
        0x00004582:    0040        @.      LSLS     r0,r0,#1
        0x00004584:    05d2        ..      LSLS     r2,r2,#23
        0x00004586:    1851        Q.      ADDS     r1,r2,r1
        0x00004588:    1202        ..      ASRS     r2,r0,#8
        0x0000458a:    1851        Q.      ADDS     r1,r2,r1
        0x0000458c:    2219        ."      MOVS     r2,#0x19
        0x0000458e:    4090        .@      LSLS     r0,r0,r2
        0x00004590:    d304        ..      BCC      0x459c ; __aeabi_i2f_normalise + 68
        0x00004592:    1c49        I.      ADDS     r1,r1,#1
        0x00004594:    2800        .(      CMP      r0,#0
        0x00004596:    d101        ..      BNE      0x459c ; __aeabi_i2f_normalise + 68
        0x00004598:    0849        I.      LSRS     r1,r1,#1
        0x0000459a:    0049        I.      LSLS     r1,r1,#1
        0x0000459c:    4608        .F      MOV      r0,r1
        0x0000459e:    4770        pG      BX       lr
    __aeabi_i2f
    _fflt
        0x000045a0:    0fc1        ..      LSRS     r1,r0,#31
        0x000045a2:    07c9        ..      LSLS     r1,r1,#31
        0x000045a4:    d000        ..      BEQ      0x45a8 ; __aeabi_i2f + 8
        0x000045a6:    4240        @B      RSBS     r0,r0,#0
        0x000045a8:    2201        ."      MOVS     r2,#1
        0x000045aa:    0792        ..      LSLS     r2,r2,#30
        0x000045ac:    4311        .C      ORRS     r1,r1,r2
        0x000045ae:    e7d3        ..      B        __aeabi_i2f_normalise ; 0x4558
    __aeabi_ui2f
    _ffltu
        0x000045b0:    2101        .!      MOVS     r1,#1
        0x000045b2:    0789        ..      LSLS     r1,r1,#30
        0x000045b4:    e7d0        ..      B        __aeabi_i2f_normalise ; 0x4558
    .text
    __read_errno
        0x000045b6:    b510        ..      PUSH     {r4,lr}
        0x000045b8:    f000fb3e    ..>.    BL       __aeabi_errno_addr ; 0x4c38
        0x000045bc:    6800        .h      LDR      r0,[r0,#0]
        0x000045be:    bd10        ..      POP      {r4,pc}
    __set_errno
        0x000045c0:    b510        ..      PUSH     {r4,lr}
        0x000045c2:    4604        .F      MOV      r4,r0
        0x000045c4:    f000fb38    ..8.    BL       __aeabi_errno_addr ; 0x4c38
        0x000045c8:    6004        .`      STR      r4,[r0,#0]
        0x000045ca:    bd10        ..      POP      {r4,pc}
    .text
    _printf_int_common
        0x000045cc:    b5ff        ..      PUSH     {r0-r7,lr}
        0x000045ce:    4604        .F      MOV      r4,r0
        0x000045d0:    460d        .F      MOV      r5,r1
        0x000045d2:    b081        ..      SUB      sp,sp,#4
        0x000045d4:    3024        $0      ADDS     r0,r0,#0x24
        0x000045d6:    9000        ..      STR      r0,[sp,#0]
        0x000045d8:    6821        !h      LDR      r1,[r4,#0]
        0x000045da:    0688        ..      LSLS     r0,r1,#26
        0x000045dc:    d504        ..      BPL      0x45e8 ; _printf_int_common + 28
        0x000045de:    2210        ."      MOVS     r2,#0x10
        0x000045e0:    69e0        .i      LDR      r0,[r4,#0x1c]
        0x000045e2:    4391        .C      BICS     r1,r1,r2
        0x000045e4:    6021        !`      STR      r1,[r4,#0]
        0x000045e6:    e000        ..      B        0x45ea ; _printf_int_common + 30
        0x000045e8:    2001        .       MOVS     r0,#1
        0x000045ea:    42a8        .B      CMP      r0,r5
        0x000045ec:    dd01        ..      BLE      0x45f2 ; _printf_int_common + 38
        0x000045ee:    1b47        G.      SUBS     r7,r0,r5
        0x000045f0:    e000        ..      B        0x45f4 ; _printf_int_common + 40
        0x000045f2:    2700        .'      MOVS     r7,#0
        0x000045f4:    9804        ..      LDR      r0,[sp,#0x10]
        0x000045f6:    69a1        .i      LDR      r1,[r4,#0x18]
        0x000045f8:    197a        z.      ADDS     r2,r7,r5
        0x000045fa:    1810        ..      ADDS     r0,r2,r0
        0x000045fc:    1a08        ..      SUBS     r0,r1,r0
        0x000045fe:    61a0        .a      STR      r0,[r4,#0x18]
        0x00004600:    7820         x      LDRB     r0,[r4,#0]
        0x00004602:    06c0        ..      LSLS     r0,r0,#27
        0x00004604:    d402        ..      BMI      0x460c ; _printf_int_common + 64
        0x00004606:    4620         F      MOV      r0,r4
        0x00004608:    46c0        .F      MOV      r8,r8
        0x0000460a:    46c0        .F      MOV      r8,r8
        0x0000460c:    2600        .&      MOVS     r6,#0
        0x0000460e:    e008        ..      B        0x4622 ; _printf_int_common + 86
        0x00004610:    9803        ..      LDR      r0,[sp,#0xc]
        0x00004612:    6862        bh      LDR      r2,[r4,#4]
        0x00004614:    68a1        .h      LDR      r1,[r4,#8]
        0x00004616:    5d80        .]      LDRB     r0,[r0,r6]
        0x00004618:    4790        .G      BLX      r2
        0x0000461a:    6a20         j      LDR      r0,[r4,#0x20]
        0x0000461c:    1c40        @.      ADDS     r0,r0,#1
        0x0000461e:    1c76        v.      ADDS     r6,r6,#1
        0x00004620:    6220         b      STR      r0,[r4,#0x20]
        0x00004622:    9804        ..      LDR      r0,[sp,#0x10]
        0x00004624:    4286        .B      CMP      r6,r0
        0x00004626:    dbf3        ..      BLT      0x4610 ; _printf_int_common + 68
        0x00004628:    7820         x      LDRB     r0,[r4,#0]
        0x0000462a:    06c0        ..      LSLS     r0,r0,#27
        0x0000462c:    d50a        ..      BPL      0x4644 ; _printf_int_common + 120
        0x0000462e:    4620         F      MOV      r0,r4
        0x00004630:    46c0        .F      MOV      r8,r8
        0x00004632:    46c0        .F      MOV      r8,r8
        0x00004634:    e006        ..      B        0x4644 ; _printf_int_common + 120
        0x00004636:    6862        bh      LDR      r2,[r4,#4]
        0x00004638:    68a1        .h      LDR      r1,[r4,#8]
        0x0000463a:    2030        0       MOVS     r0,#0x30
        0x0000463c:    4790        .G      BLX      r2
        0x0000463e:    6a20         j      LDR      r0,[r4,#0x20]
        0x00004640:    1c40        @.      ADDS     r0,r0,#1
        0x00004642:    6220         b      STR      r0,[r4,#0x20]
        0x00004644:    4638        8F      MOV      r0,r7
        0x00004646:    1e7f        ..      SUBS     r7,r7,#1
        0x00004648:    2800        .(      CMP      r0,#0
        0x0000464a:    dcf4        ..      BGT      0x4636 ; _printf_int_common + 106
        0x0000464c:    e007        ..      B        0x465e ; _printf_int_common + 146
        0x0000464e:    9800        ..      LDR      r0,[sp,#0]
        0x00004650:    6862        bh      LDR      r2,[r4,#4]
        0x00004652:    68a1        .h      LDR      r1,[r4,#8]
        0x00004654:    5d40        @]      LDRB     r0,[r0,r5]
        0x00004656:    4790        .G      BLX      r2
        0x00004658:    6a20         j      LDR      r0,[r4,#0x20]
        0x0000465a:    1c40        @.      ADDS     r0,r0,#1
        0x0000465c:    6220         b      STR      r0,[r4,#0x20]
        0x0000465e:    4628        (F      MOV      r0,r5
        0x00004660:    1e6d        m.      SUBS     r5,r5,#1
        0x00004662:    2800        .(      CMP      r0,#0
        0x00004664:    dcf3        ..      BGT      0x464e ; _printf_int_common + 130
        0x00004666:    4620         F      MOV      r0,r4
        0x00004668:    46c0        .F      MOV      r8,r8
        0x0000466a:    46c0        .F      MOV      r8,r8
        0x0000466c:    7820         x      LDRB     r0,[r4,#0]
        0x0000466e:    0600        ..      LSLS     r0,r0,#24
        0x00004670:    d502        ..      BPL      0x4678 ; _printf_int_common + 172
        0x00004672:    2002        .       MOVS     r0,#2
        0x00004674:    b005        ..      ADD      sp,sp,#0x14
        0x00004676:    bdf0        ..      POP      {r4-r7,pc}
        0x00004678:    2001        .       MOVS     r0,#1
        0x0000467a:    e7fb        ..      B        0x4674 ; _printf_int_common + 168
    .text
    __lib_sel_fp_printf
        0x0000467c:    4770        pG      BX       lr
    _fp_digits
        0x0000467e:    b5ff        ..      PUSH     {r0-r7,lr}
        0x00004680:    460c        .F      MOV      r4,r1
        0x00004682:    461e        .F      MOV      r6,r3
        0x00004684:    b08f        ..      SUB      sp,sp,#0x3c
        0x00004686:    ca03        ..      LDM      r2!,{r0,r1}
        0x00004688:    9008        ..      STR      r0,[sp,#0x20]
        0x0000468a:    9109        ..      STR      r1,[sp,#0x24]
        0x0000468c:    004f        O.      LSLS     r7,r1,#1
        0x0000468e:    0d7d        }.      LSRS     r5,r7,#21
        0x00004690:    d100        ..      BNE      0x4694 ; _fp_digits + 22
        0x00004692:    1e6d        m.      SUBS     r5,r5,#1
        0x00004694:    2100        .!      MOVS     r1,#0
        0x00004696:    4608        .F      MOV      r0,r1
        0x00004698:    2000        .       MOVS     r0,#0
        0x0000469a:    46c0        .F      MOV      r8,r8
        0x0000469c:    2103        .!      MOVS     r1,#3
        0x0000469e:    9a09        ..      LDR      r2,[sp,#0x24]
        0x000046a0:    0589        ..      LSLS     r1,r1,#22
        0x000046a2:    4008        .@      ANDS     r0,r0,r1
        0x000046a4:    2a00        .*      CMP      r2,#0
        0x000046a6:    da03        ..      BGE      0x46b0 ; _fp_digits + 50
        0x000046a8:    0082        ..      LSLS     r2,r0,#2
        0x000046aa:    1880        ..      ADDS     r0,r0,r2
        0x000046ac:    0840        @.      LSRS     r0,r0,#1
        0x000046ae:    4008        .@      ANDS     r0,r0,r1
        0x000046b0:    0d80        ..      LSRS     r0,r0,#22
        0x000046b2:    2801        .(      CMP      r0,#1
        0x000046b4:    900a        ..      STR      r0,[sp,#0x28]
        0x000046b6:    dd02        ..      BLE      0x46be ; _fp_digits + 64
        0x000046b8:    2000        .       MOVS     r0,#0
        0x000046ba:    43c0        .C      MVNS     r0,r0
        0x000046bc:    900a        ..      STR      r0,[sp,#0x28]
        0x000046be:    9808        ..      LDR      r0,[sp,#0x20]
        0x000046c0:    4307        .C      ORRS     r7,r7,r0
        0x000046c2:    d00d        ..      BEQ      0x46e0 ; _fp_digits + 98
        0x000046c4:    48ef        .H      LDR      r0,[pc,#956] ; [0x4a84] = 0xfffffc01
        0x000046c6:    49f0        .I      LDR      r1,[pc,#960] ; [0x4a88] = 0x4d10
        0x000046c8:    1828        (.      ADDS     r0,r5,r0
        0x000046ca:    4348        HC      MULS     r0,r1,r0
        0x000046cc:    1407        ..      ASRS     r7,r0,#16
        0x000046ce:    9818        ..      LDR      r0,[sp,#0x60]
        0x000046d0:    2800        .(      CMP      r0,#0
        0x000046d2:    d01d        ..      BEQ      0x4710 ; _fp_digits + 146
        0x000046d4:    4275        uB      RSBS     r5,r6,#0
        0x000046d6:    1e29        ).      SUBS     r1,r5,#0
        0x000046d8:    dd1d        ..      BLE      0x4716 ; _fp_digits + 152
        0x000046da:    980a        ..      LDR      r0,[sp,#0x28]
        0x000046dc:    4242        BB      RSBS     r2,r0,#0
        0x000046de:    e01b        ..      B        0x4718 ; _fp_digits + 154
        0x000046e0:    9818        ..      LDR      r0,[sp,#0x60]
        0x000046e2:    2801        .(      CMP      r0,#1
        0x000046e4:    d002        ..      BEQ      0x46ec ; _fp_digits + 110
        0x000046e6:    2000        .       MOVS     r0,#0
        0x000046e8:    2130        0!      MOVS     r1,#0x30
        0x000046ea:    e004        ..      B        0x46f6 ; _fp_digits + 120
        0x000046ec:    2000        .       MOVS     r0,#0
        0x000046ee:    43f2        .C      MVNS     r2,r6
        0x000046f0:    e005        ..      B        0x46fe ; _fp_digits + 128
        0x000046f2:    5421        !T      STRB     r1,[r4,r0]
        0x000046f4:    1c40        @.      ADDS     r0,r0,#1
        0x000046f6:    42b0        .B      CMP      r0,r6
        0x000046f8:    dbfb        ..      BLT      0x46f2 ; _fp_digits + 116
        0x000046fa:    4630        0F      MOV      r0,r6
        0x000046fc:    2200        ."      MOVS     r2,#0
        0x000046fe:    9b18        ..      LDR      r3,[sp,#0x60]
        0x00004700:    2100        .!      MOVS     r1,#0
        0x00004702:    5421        !T      STRB     r1,[r4,r0]
        0x00004704:    990f        ..      LDR      r1,[sp,#0x3c]
        0x00004706:    608b        .`      STR      r3,[r1,#8]
        0x00004708:    600a        .`      STR      r2,[r1,#0]
        0x0000470a:    6048        H`      STR      r0,[r1,#4]
        0x0000470c:    b013        ..      ADD      sp,sp,#0x4c
        0x0000470e:    bdf0        ..      POP      {r4-r7,pc}
        0x00004710:    1bbd        ..      SUBS     r5,r7,r6
        0x00004712:    1c6d        m.      ADDS     r5,r5,#1
        0x00004714:    e7df        ..      B        0x46d6 ; _fp_digits + 88
        0x00004716:    9a0a        ..      LDR      r2,[sp,#0x28]
        0x00004718:    2900        .)      CMP      r1,#0
        0x0000471a:    da00        ..      BGE      0x471e ; _fp_digits + 160
        0x0000471c:    4269        iB      RSBS     r1,r5,#0
        0x0000471e:    a80b        ..      ADD      r0,sp,#0x2c
        0x00004720:    f000fb28    ..(.    BL       _btod_etento ; 0x4d74
        0x00004724:    a80b        ..      ADD      r0,sp,#0x2c
        0x00004726:    ab03        ..      ADD      r3,sp,#0xc
        0x00004728:    c807        ..      LDM      r0,{r0-r2}
        0x0000472a:    c307        ..      STM      r3!,{r0-r2}
        0x0000472c:    9908        ..      LDR      r1,[sp,#0x20]
        0x0000472e:    9809        ..      LDR      r0,[sp,#0x24]
        0x00004730:    f000fb86    ....    BL       _btod_d2e ; 0x4e40
        0x00004734:    9101        ..      STR      r1,[sp,#4]
        0x00004736:    4601        .F      MOV      r1,r0
        0x00004738:    48d4        .H      LDR      r0,[pc,#848] ; [0x4a8c] = 0xffffdfe1
        0x0000473a:    9202        ..      STR      r2,[sp,#8]
        0x0000473c:    1809        ..      ADDS     r1,r1,r0
        0x0000473e:    2d00        .-      CMP      r5,#0
        0x00004740:    9100        ..      STR      r1,[sp,#0]
        0x00004742:    dd0a        ..      BLE      0x475a ; _fp_digits + 220
        0x00004744:    49d1        .I      LDR      r1,[pc,#836] ; [0x4a8c] = 0xffffdfe1
        0x00004746:    9803        ..      LDR      r0,[sp,#0xc]
        0x00004748:    9a0a        ..      LDR      r2,[sp,#0x28]
        0x0000474a:    4249        IB      RSBS     r1,r1,#0
        0x0000474c:    1840        @.      ADDS     r0,r0,r1
        0x0000474e:    a903        ..      ADD      r1,sp,#0xc
        0x00004750:    9003        ..      STR      r0,[sp,#0xc]
        0x00004752:    4668        hF      MOV      r0,sp
        0x00004754:    f000fd99    ....    BL       _btod_ediv ; 0x528a
        0x00004758:    e007        ..      B        0x476a ; _fp_digits + 236
        0x0000475a:    9903        ..      LDR      r1,[sp,#0xc]
        0x0000475c:    9a0a        ..      LDR      r2,[sp,#0x28]
        0x0000475e:    1808        ..      ADDS     r0,r1,r0
        0x00004760:    a903        ..      ADD      r1,sp,#0xc
        0x00004762:    9003        ..      STR      r0,[sp,#0xc]
        0x00004764:    4668        hF      MOV      r0,sp
        0x00004766:    f000fd66    ..f.    BL       _btod_emul ; 0x5236
        0x0000476a:    9000        ..      STR      r0,[sp,#0]
        0x0000476c:    0400        ..      LSLS     r0,r0,#16
        0x0000476e:    9202        ..      STR      r2,[sp,#8]
        0x00004770:    0c00        ..      LSRS     r0,r0,#16
        0x00004772:    9101        ..      STR      r1,[sp,#4]
        0x00004774:    d003        ..      BEQ      0x477e ; _fp_digits + 256
        0x00004776:    2000        .       MOVS     r0,#0
        0x00004778:    43c0        .C      MVNS     r0,r0
        0x0000477a:    0841        A.      LSRS     r1,r0,#1
        0x0000477c:    e000        ..      B        0x4780 ; _fp_digits + 258
        0x0000477e:    4610        .F      MOV      r0,r2
        0x00004780:    9a18        ..      LDR      r2,[sp,#0x60]
        0x00004782:    2a00        .*      CMP      r2,#0
        0x00004784:    d003        ..      BEQ      0x478e ; _fp_digits + 272
        0x00004786:    2200        ."      MOVS     r2,#0
        0x00004788:    9200        ..      STR      r2,[sp,#0]
        0x0000478a:    4615        .F      MOV      r5,r2
        0x0000478c:    e01e        ..      B        0x47cc ; _fp_digits + 334
        0x0000478e:    1e75        u.      SUBS     r5,r6,#1
        0x00004790:    d405        ..      BMI      0x479e ; _fp_digits + 288
        0x00004792:    f000fa55    ..U.    BL       _ll_udiv10 ; 0x4c40
        0x00004796:    3230        02      ADDS     r2,r2,#0x30
        0x00004798:    5562        bU      STRB     r2,[r4,r5]
        0x0000479a:    1e6d        m.      SUBS     r5,r5,#1
        0x0000479c:    d5f9        ..      BPL      0x4792 ; _fp_digits + 276
        0x0000479e:    2201        ."      MOVS     r2,#1
        0x000047a0:    4308        .C      ORRS     r0,r0,r1
        0x000047a2:    9607        ..      STR      r6,[sp,#0x1c]
        0x000047a4:    d002        ..      BEQ      0x47ac ; _fp_digits + 302
        0x000047a6:    2200        ."      MOVS     r2,#0
        0x000047a8:    1c7f        ..      ADDS     r7,r7,#1
        0x000047aa:    e004        ..      B        0x47b6 ; _fp_digits + 312
        0x000047ac:    7820         x      LDRB     r0,[r4,#0]
        0x000047ae:    2830        0(      CMP      r0,#0x30
        0x000047b0:    d101        ..      BNE      0x47b6 ; _fp_digits + 312
        0x000047b2:    2200        ."      MOVS     r2,#0
        0x000047b4:    1e7f        ..      SUBS     r7,r7,#1
        0x000047b6:    2a00        .*      CMP      r2,#0
        0x000047b8:    9706        ..      STR      r7,[sp,#0x18]
        0x000047ba:    d088        ..      BEQ      0x46ce ; _fp_digits + 80
        0x000047bc:    e01e        ..      B        0x47fc ; _fp_digits + 382
        0x000047be:    2d11        .-      CMP      r5,#0x11
        0x000047c0:    da07        ..      BGE      0x47d2 ; _fp_digits + 340
        0x000047c2:    f000fa3d    ..=.    BL       _ll_udiv10 ; 0x4c40
        0x000047c6:    3230        02      ADDS     r2,r2,#0x30
        0x000047c8:    5562        bU      STRB     r2,[r4,r5]
        0x000047ca:    1c6d        m.      ADDS     r5,r5,#1
        0x000047cc:    4602        .F      MOV      r2,r0
        0x000047ce:    430a        .C      ORRS     r2,r2,r1
        0x000047d0:    d1f5        ..      BNE      0x47be ; _fp_digits + 320
        0x000047d2:    4308        .C      ORRS     r0,r0,r1
        0x000047d4:    d10f        ..      BNE      0x47f6 ; _fp_digits + 376
        0x000047d6:    2100        .!      MOVS     r1,#0
        0x000047d8:    1e68        h.      SUBS     r0,r5,#1
        0x000047da:    e005        ..      B        0x47e8 ; _fp_digits + 362
        0x000047dc:    5c23        #\      LDRB     r3,[r4,r0]
        0x000047de:    5c62        b\      LDRB     r2,[r4,r1]
        0x000047e0:    5463        cT      STRB     r3,[r4,r1]
        0x000047e2:    1c49        I.      ADDS     r1,r1,#1
        0x000047e4:    5422        "T      STRB     r2,[r4,r0]
        0x000047e6:    1e40        @.      SUBS     r0,r0,#1
        0x000047e8:    4281        .B      CMP      r1,r0
        0x000047ea:    dbf7        ..      BLT      0x47dc ; _fp_digits + 350
        0x000047ec:    1ba8        ..      SUBS     r0,r5,r6
        0x000047ee:    1e40        @.      SUBS     r0,r0,#1
        0x000047f0:    9507        ..      STR      r5,[sp,#0x1c]
        0x000047f2:    9006        ..      STR      r0,[sp,#0x18]
        0x000047f4:    e002        ..      B        0x47fc ; _fp_digits + 382
        0x000047f6:    9800        ..      LDR      r0,[sp,#0]
        0x000047f8:    2800        .(      CMP      r0,#0
        0x000047fa:    d00a        ..      BEQ      0x4812 ; _fp_digits + 404
        0x000047fc:    9a07        ..      LDR      r2,[sp,#0x1c]
        0x000047fe:    9918        ..      LDR      r1,[sp,#0x60]
        0x00004800:    2000        .       MOVS     r0,#0
        0x00004802:    54a0        .T      STRB     r0,[r4,r2]
        0x00004804:    980f        ..      LDR      r0,[sp,#0x3c]
        0x00004806:    9b07        ..      LDR      r3,[sp,#0x1c]
        0x00004808:    9a06        ..      LDR      r2,[sp,#0x18]
        0x0000480a:    6043        C`      STR      r3,[r0,#4]
        0x0000480c:    6002        .`      STR      r2,[r0,#0]
        0x0000480e:    6081        .`      STR      r1,[r0,#8]
        0x00004810:    e77c        |.      B        0x470c ; _fp_digits + 142
        0x00004812:    2611        .&      MOVS     r6,#0x11
        0x00004814:    2000        .       MOVS     r0,#0
        0x00004816:    9018        ..      STR      r0,[sp,#0x60]
        0x00004818:    e759        Y.      B        0x46ce ; _fp_digits + 80
    _printf_fp_dec_real
        0x0000481a:    1dd2        ..      ADDS     r2,r2,#7
        0x0000481c:    b5f0        ..      PUSH     {r4-r7,lr}
        0x0000481e:    460d        .F      MOV      r5,r1
        0x00004820:    4604        .F      MOV      r4,r0
        0x00004822:    08d1        ..      LSRS     r1,r2,#3
        0x00004824:    b093        ..      SUB      sp,sp,#0x4c
        0x00004826:    00c9        ..      LSLS     r1,r1,#3
        0x00004828:    c903        ..      LDM      r1,{r0,r1}
        0x0000482a:    900c        ..      STR      r0,[sp,#0x30]
        0x0000482c:    910d        ..      STR      r1,[sp,#0x34]
        0x0000482e:    f000fea3    ....    BL       __ARM_fpclassify ; 0x5578
        0x00004832:    4602        .F      MOV      r2,r0
        0x00004834:    980d        ..      LDR      r0,[sp,#0x34]
        0x00004836:    0fc0        ..      LSRS     r0,r0,#31
        0x00004838:    d001        ..      BEQ      0x483e ; _printf_fp_dec_real + 36
        0x0000483a:    202d        -       MOVS     r0,#0x2d
        0x0000483c:    e007        ..      B        0x484e ; _printf_fp_dec_real + 52
        0x0000483e:    6820         h      LDR      r0,[r4,#0]
        0x00004840:    0781        ..      LSLS     r1,r0,#30
        0x00004842:    d501        ..      BPL      0x4848 ; _printf_fp_dec_real + 46
        0x00004844:    202b        +       MOVS     r0,#0x2b
        0x00004846:    e002        ..      B        0x484e ; _printf_fp_dec_real + 52
        0x00004848:    0740        @.      LSLS     r0,r0,#29
        0x0000484a:    0fc0        ..      LSRS     r0,r0,#31
        0x0000484c:    0140        @.      LSLS     r0,r0,#5
        0x0000484e:    2a03        .*      CMP      r2,#3
        0x00004850:    900f        ..      STR      r0,[sp,#0x3c]
        0x00004852:    d001        ..      BEQ      0x4858 ; _printf_fp_dec_real + 62
        0x00004854:    2a07        .*      CMP      r2,#7
        0x00004856:    db05        ..      BLT      0x4864 ; _printf_fp_dec_real + 74
        0x00004858:    4603        .F      MOV      r3,r0
        0x0000485a:    4629        )F      MOV      r1,r5
        0x0000485c:    4620         F      MOV      r0,r4
        0x0000485e:    f000fa45    ..E.    BL       _printf_fp_infnan ; 0x4cec
        0x00004862:    e10d        ..      B        0x4a80 ; _printf_fp_dec_real + 614
        0x00004864:    7820         x      LDRB     r0,[r4,#0]
        0x00004866:    0680        ..      LSLS     r0,r0,#26
        0x00004868:    d501        ..      BPL      0x486e ; _printf_fp_dec_real + 84
        0x0000486a:    69e7        .i      LDR      r7,[r4,#0x1c]
        0x0000486c:    e000        ..      B        0x4870 ; _printf_fp_dec_real + 86
        0x0000486e:    2706        .'      MOVS     r7,#6
        0x00004870:    4628        (F      MOV      r0,r5
        0x00004872:    2d65        e-      CMP      r5,#0x65
        0x00004874:    d004        ..      BEQ      0x4880 ; _printf_fp_dec_real + 102
        0x00004876:    2866        f(      CMP      r0,#0x66
        0x00004878:    d014        ..      BEQ      0x48a4 ; _printf_fp_dec_real + 138
        0x0000487a:    2d67        g-      CMP      r5,#0x67
        0x0000487c:    d169        i.      BNE      0x4952 ; _printf_fp_dec_real + 312
        0x0000487e:    e02d        -.      B        0x48dc ; _printf_fp_dec_real + 194
        0x00004880:    2000        .       MOVS     r0,#0
        0x00004882:    2f11        ./      CMP      r7,#0x11
        0x00004884:    9000        ..      STR      r0,[sp,#0]
        0x00004886:    db01        ..      BLT      0x488c ; _printf_fp_dec_real + 114
        0x00004888:    2311        .#      MOVS     r3,#0x11
        0x0000488a:    e000        ..      B        0x488e ; _printf_fp_dec_real + 116
        0x0000488c:    1c7b        {.      ADDS     r3,r7,#1
        0x0000488e:    aa0c        ..      ADD      r2,sp,#0x30
        0x00004890:    a903        ..      ADD      r1,sp,#0xc
        0x00004892:    a810        ..      ADD      r0,sp,#0x40
        0x00004894:    f7fffef3    ....    BL       _fp_digits ; 0x467e
        0x00004898:    9911        ..      LDR      r1,[sp,#0x44]
        0x0000489a:    2600        .&      MOVS     r6,#0
        0x0000489c:    9810        ..      LDR      r0,[sp,#0x40]
        0x0000489e:    1c7d        }.      ADDS     r5,r7,#1
        0x000048a0:    910e        ..      STR      r1,[sp,#0x38]
        0x000048a2:    e042        B.      B        0x492a ; _printf_fp_dec_real + 272
        0x000048a4:    2001        .       MOVS     r0,#1
        0x000048a6:    463b        ;F      MOV      r3,r7
        0x000048a8:    aa0c        ..      ADD      r2,sp,#0x30
        0x000048aa:    07c0        ..      LSLS     r0,r0,#31
        0x000048ac:    900b        ..      STR      r0,[sp,#0x2c]
        0x000048ae:    2001        .       MOVS     r0,#1
        0x000048b0:    9000        ..      STR      r0,[sp,#0]
        0x000048b2:    a903        ..      ADD      r1,sp,#0xc
        0x000048b4:    a810        ..      ADD      r0,sp,#0x40
        0x000048b6:    f7fffee2    ....    BL       _fp_digits ; 0x467e
        0x000048ba:    9d11        ..      LDR      r5,[sp,#0x44]
        0x000048bc:    9812        ..      LDR      r0,[sp,#0x48]
        0x000048be:    9910        ..      LDR      r1,[sp,#0x40]
        0x000048c0:    2600        .&      MOVS     r6,#0
        0x000048c2:    2800        .(      CMP      r0,#0
        0x000048c4:    950e        ..      STR      r5,[sp,#0x38]
        0x000048c6:    d101        ..      BNE      0x48cc ; _printf_fp_dec_real + 178
        0x000048c8:    1c78        x.      ADDS     r0,r7,#1
        0x000048ca:    180d        ..      ADDS     r5,r1,r0
        0x000048cc:    1b78        x.      SUBS     r0,r7,r5
        0x000048ce:    d402        ..      BMI      0x48d6 ; _printf_fp_dec_real + 188
        0x000048d0:    4246        FB      RSBS     r6,r0,#0
        0x000048d2:    1e76        v.      SUBS     r6,r6,#1
        0x000048d4:    1c7d        }.      ADDS     r5,r7,#1
        0x000048d6:    1be8        ..      SUBS     r0,r5,r7
        0x000048d8:    9000        ..      STR      r0,[sp,#0]
        0x000048da:    e03a        :.      B        0x4952 ; _printf_fp_dec_real + 312
        0x000048dc:    2f01        ./      CMP      r7,#1
        0x000048de:    da00        ..      BGE      0x48e2 ; _printf_fp_dec_real + 200
        0x000048e0:    2701        .'      MOVS     r7,#1
        0x000048e2:    2000        .       MOVS     r0,#0
        0x000048e4:    2f11        ./      CMP      r7,#0x11
        0x000048e6:    9000        ..      STR      r0,[sp,#0]
        0x000048e8:    dd01        ..      BLE      0x48ee ; _printf_fp_dec_real + 212
        0x000048ea:    2311        .#      MOVS     r3,#0x11
        0x000048ec:    e000        ..      B        0x48f0 ; _printf_fp_dec_real + 214
        0x000048ee:    463b        ;F      MOV      r3,r7
        0x000048f0:    aa0c        ..      ADD      r2,sp,#0x30
        0x000048f2:    a903        ..      ADD      r1,sp,#0xc
        0x000048f4:    a810        ..      ADD      r0,sp,#0x40
        0x000048f6:    f7fffec2    ....    BL       _fp_digits ; 0x467e
        0x000048fa:    9911        ..      LDR      r1,[sp,#0x44]
        0x000048fc:    463d        =F      MOV      r5,r7
        0x000048fe:    9810        ..      LDR      r0,[sp,#0x40]
        0x00004900:    2600        .&      MOVS     r6,#0
        0x00004902:    910e        ..      STR      r1,[sp,#0x38]
        0x00004904:    7821        !x      LDRB     r1,[r4,#0]
        0x00004906:    0709        ..      LSLS     r1,r1,#28
        0x00004908:    d40b        ..      BMI      0x4922 ; _printf_fp_dec_real + 264
        0x0000490a:    990e        ..      LDR      r1,[sp,#0x38]
        0x0000490c:    42a9        .B      CMP      r1,r5
        0x0000490e:    da00        ..      BGE      0x4912 ; _printf_fp_dec_real + 248
        0x00004910:    460d        .F      MOV      r5,r1
        0x00004912:    a903        ..      ADD      r1,sp,#0xc
        0x00004914:    2d01        .-      CMP      r5,#1
        0x00004916:    dd04        ..      BLE      0x4922 ; _printf_fp_dec_real + 264
        0x00004918:    194a        J.      ADDS     r2,r1,r5
        0x0000491a:    3a20         :      SUBS     r2,r2,#0x20
        0x0000491c:    7fd2        ..      LDRB     r2,[r2,#0x1f]
        0x0000491e:    2a30        0*      CMP      r2,#0x30
        0x00004920:    d006        ..      BEQ      0x4930 ; _printf_fp_dec_real + 278
        0x00004922:    42b8        .B      CMP      r0,r7
        0x00004924:    da01        ..      BGE      0x492a ; _printf_fp_dec_real + 272
        0x00004926:    1d01        ..      ADDS     r1,r0,#4
        0x00004928:    da04        ..      BGE      0x4934 ; _printf_fp_dec_real + 282
        0x0000492a:    2101        .!      MOVS     r1,#1
        0x0000492c:    9100        ..      STR      r1,[sp,#0]
        0x0000492e:    e00f        ..      B        0x4950 ; _printf_fp_dec_real + 310
        0x00004930:    1e6d        m.      SUBS     r5,r5,#1
        0x00004932:    e7ef        ..      B        0x4914 ; _printf_fp_dec_real + 250
        0x00004934:    2800        .(      CMP      r0,#0
        0x00004936:    dc02        ..      BGT      0x493e ; _printf_fp_dec_real + 292
        0x00004938:    1986        ..      ADDS     r6,r0,r6
        0x0000493a:    1a2d        -.      SUBS     r5,r5,r0
        0x0000493c:    e003        ..      B        0x4946 ; _printf_fp_dec_real + 300
        0x0000493e:    1c41        A.      ADDS     r1,r0,#1
        0x00004940:    42a9        .B      CMP      r1,r5
        0x00004942:    dd00        ..      BLE      0x4946 ; _printf_fp_dec_real + 300
        0x00004944:    460d        .F      MOV      r5,r1
        0x00004946:    1b80        ..      SUBS     r0,r0,r6
        0x00004948:    1c40        @.      ADDS     r0,r0,#1
        0x0000494a:    9000        ..      STR      r0,[sp,#0]
        0x0000494c:    2001        .       MOVS     r0,#1
        0x0000494e:    07c0        ..      LSLS     r0,r0,#31
        0x00004950:    900b        ..      STR      r0,[sp,#0x2c]
        0x00004952:    7820         x      LDRB     r0,[r4,#0]
        0x00004954:    0700        ..      LSLS     r0,r0,#28
        0x00004956:    d405        ..      BMI      0x4964 ; _printf_fp_dec_real + 330
        0x00004958:    9800        ..      LDR      r0,[sp,#0]
        0x0000495a:    42a8        .B      CMP      r0,r5
        0x0000495c:    db02        ..      BLT      0x4964 ; _printf_fp_dec_real + 330
        0x0000495e:    2000        .       MOVS     r0,#0
        0x00004960:    43c0        .C      MVNS     r0,r0
        0x00004962:    9000        ..      STR      r0,[sp,#0]
        0x00004964:    4669        iF      MOV      r1,sp
        0x00004966:    2000        .       MOVS     r0,#0
        0x00004968:    72c8        .r      STRB     r0,[r1,#0xb]
        0x0000496a:    980b        ..      LDR      r0,[sp,#0x2c]
        0x0000496c:    2101        .!      MOVS     r1,#1
        0x0000496e:    af02        ..      ADD      r7,sp,#8
        0x00004970:    3703        .7      ADDS     r7,#3
        0x00004972:    07c9        ..      LSLS     r1,r1,#31
        0x00004974:    4288        .B      CMP      r0,r1
        0x00004976:    d025        %.      BEQ      0x49c4 ; _printf_fp_dec_real + 426
        0x00004978:    2002        .       MOVS     r0,#2
        0x0000497a:    9010        ..      STR      r0,[sp,#0x40]
        0x0000497c:    202b        +       MOVS     r0,#0x2b
        0x0000497e:    9011        ..      STR      r0,[sp,#0x44]
        0x00004980:    980b        ..      LDR      r0,[sp,#0x2c]
        0x00004982:    2800        .(      CMP      r0,#0
        0x00004984:    da0b        ..      BGE      0x499e ; _printf_fp_dec_real + 388
        0x00004986:    4240        @B      RSBS     r0,r0,#0
        0x00004988:    900b        ..      STR      r0,[sp,#0x2c]
        0x0000498a:    202d        -       MOVS     r0,#0x2d
        0x0000498c:    9011        ..      STR      r0,[sp,#0x44]
        0x0000498e:    e006        ..      B        0x499e ; _printf_fp_dec_real + 388
        0x00004990:    980b        ..      LDR      r0,[sp,#0x2c]
        0x00004992:    f000f891    ....    BL       __rt_udiv10 ; 0x4ab8
        0x00004996:    3130        01      ADDS     r1,r1,#0x30
        0x00004998:    1e7f        ..      SUBS     r7,r7,#1
        0x0000499a:    900b        ..      STR      r0,[sp,#0x2c]
        0x0000499c:    7039        9p      STRB     r1,[r7,#0]
        0x0000499e:    9910        ..      LDR      r1,[sp,#0x40]
        0x000049a0:    1e48        H.      SUBS     r0,r1,#1
        0x000049a2:    2900        .)      CMP      r1,#0
        0x000049a4:    9010        ..      STR      r0,[sp,#0x40]
        0x000049a6:    dcf3        ..      BGT      0x4990 ; _printf_fp_dec_real + 374
        0x000049a8:    980b        ..      LDR      r0,[sp,#0x2c]
        0x000049aa:    2800        .(      CMP      r0,#0
        0x000049ac:    d1f0        ..      BNE      0x4990 ; _printf_fp_dec_real + 374
        0x000049ae:    9811        ..      LDR      r0,[sp,#0x44]
        0x000049b0:    1e7f        ..      SUBS     r7,r7,#1
        0x000049b2:    7038        8p      STRB     r0,[r7,#0]
        0x000049b4:    8820         .      LDRH     r0,[r4,#0]
        0x000049b6:    0500        ..      LSLS     r0,r0,#20
        0x000049b8:    d501        ..      BPL      0x49be ; _printf_fp_dec_real + 420
        0x000049ba:    2045        E       MOVS     r0,#0x45
        0x000049bc:    e000        ..      B        0x49c0 ; _printf_fp_dec_real + 422
        0x000049be:    2065        e       MOVS     r0,#0x65
        0x000049c0:    1e7f        ..      SUBS     r7,r7,#1
        0x000049c2:    7038        8p      STRB     r0,[r7,#0]
        0x000049c4:    a801        ..      ADD      r0,sp,#4
        0x000049c6:    1bc0        ..      SUBS     r0,r0,r7
        0x000049c8:    1dc0        ..      ADDS     r0,r0,#7
        0x000049ca:    900b        ..      STR      r0,[sp,#0x2c]
        0x000049cc:    980f        ..      LDR      r0,[sp,#0x3c]
        0x000049ce:    2800        .(      CMP      r0,#0
        0x000049d0:    d000        ..      BEQ      0x49d4 ; _printf_fp_dec_real + 442
        0x000049d2:    2001        .       MOVS     r0,#1
        0x000049d4:    1941        A.      ADDS     r1,r0,r5
        0x000049d6:    9800        ..      LDR      r0,[sp,#0]
        0x000049d8:    17c0        ..      ASRS     r0,r0,#31
        0x000049da:    1809        ..      ADDS     r1,r1,r0
        0x000049dc:    980b        ..      LDR      r0,[sp,#0x2c]
        0x000049de:    1808        ..      ADDS     r0,r1,r0
        0x000049e0:    69a1        .i      LDR      r1,[r4,#0x18]
        0x000049e2:    1a08        ..      SUBS     r0,r1,r0
        0x000049e4:    1e40        @.      SUBS     r0,r0,#1
        0x000049e6:    61a0        .a      STR      r0,[r4,#0x18]
        0x000049e8:    7820         x      LDRB     r0,[r4,#0]
        0x000049ea:    06c0        ..      LSLS     r0,r0,#27
        0x000049ec:    d402        ..      BMI      0x49f4 ; _printf_fp_dec_real + 474
        0x000049ee:    4620         F      MOV      r0,r4
        0x000049f0:    46c0        .F      MOV      r8,r8
        0x000049f2:    46c0        .F      MOV      r8,r8
        0x000049f4:    980f        ..      LDR      r0,[sp,#0x3c]
        0x000049f6:    2800        .(      CMP      r0,#0
        0x000049f8:    d005        ..      BEQ      0x4a06 ; _printf_fp_dec_real + 492
        0x000049fa:    6862        bh      LDR      r2,[r4,#4]
        0x000049fc:    68a1        .h      LDR      r1,[r4,#8]
        0x000049fe:    4790        .G      BLX      r2
        0x00004a00:    6a20         j      LDR      r0,[r4,#0x20]
        0x00004a02:    1c40        @.      ADDS     r0,r0,#1
        0x00004a04:    6220         b      STR      r0,[r4,#0x20]
        0x00004a06:    7820         x      LDRB     r0,[r4,#0]
        0x00004a08:    06c0        ..      LSLS     r0,r0,#27
        0x00004a0a:    d524        $.      BPL      0x4a56 ; _printf_fp_dec_real + 572
        0x00004a0c:    4620         F      MOV      r0,r4
        0x00004a0e:    46c0        .F      MOV      r8,r8
        0x00004a10:    46c0        .F      MOV      r8,r8
        0x00004a12:    e020         .      B        0x4a56 ; _printf_fp_dec_real + 572
        0x00004a14:    2e00        ..      CMP      r6,#0
        0x00004a16:    db07        ..      BLT      0x4a28 ; _printf_fp_dec_real + 526
        0x00004a18:    980e        ..      LDR      r0,[sp,#0x38]
        0x00004a1a:    42b0        .B      CMP      r0,r6
        0x00004a1c:    dd04        ..      BLE      0x4a28 ; _printf_fp_dec_real + 526
        0x00004a1e:    a803        ..      ADD      r0,sp,#0xc
        0x00004a20:    6862        bh      LDR      r2,[r4,#4]
        0x00004a22:    5d80        .]      LDRB     r0,[r0,r6]
        0x00004a24:    68a1        .h      LDR      r1,[r4,#8]
        0x00004a26:    e002        ..      B        0x4a2e ; _printf_fp_dec_real + 532
        0x00004a28:    6862        bh      LDR      r2,[r4,#4]
        0x00004a2a:    68a1        .h      LDR      r1,[r4,#8]
        0x00004a2c:    2030        0       MOVS     r0,#0x30
        0x00004a2e:    4790        .G      BLX      r2
        0x00004a30:    6a20         j      LDR      r0,[r4,#0x20]
        0x00004a32:    1c76        v.      ADDS     r6,r6,#1
        0x00004a34:    1c40        @.      ADDS     r0,r0,#1
        0x00004a36:    6220         b      STR      r0,[r4,#0x20]
        0x00004a38:    9800        ..      LDR      r0,[sp,#0]
        0x00004a3a:    1e40        @.      SUBS     r0,r0,#1
        0x00004a3c:    9000        ..      STR      r0,[sp,#0]
        0x00004a3e:    d10a        ..      BNE      0x4a56 ; _printf_fp_dec_real + 572
        0x00004a40:    f000f8f6    ....    BL       __rt_locale ; 0x4c30
        0x00004a44:    68c0        .h      LDR      r0,[r0,#0xc]
        0x00004a46:    6862        bh      LDR      r2,[r4,#4]
        0x00004a48:    6801        .h      LDR      r1,[r0,#0]
        0x00004a4a:    5c40        @\      LDRB     r0,[r0,r1]
        0x00004a4c:    68a1        .h      LDR      r1,[r4,#8]
        0x00004a4e:    4790        .G      BLX      r2
        0x00004a50:    6a20         j      LDR      r0,[r4,#0x20]
        0x00004a52:    1c40        @.      ADDS     r0,r0,#1
        0x00004a54:    6220         b      STR      r0,[r4,#0x20]
        0x00004a56:    4628        (F      MOV      r0,r5
        0x00004a58:    1e6d        m.      SUBS     r5,r5,#1
        0x00004a5a:    2800        .(      CMP      r0,#0
        0x00004a5c:    dcda        ..      BGT      0x4a14 ; _printf_fp_dec_real + 506
        0x00004a5e:    e007        ..      B        0x4a70 ; _printf_fp_dec_real + 598
        0x00004a60:    6862        bh      LDR      r2,[r4,#4]
        0x00004a62:    7838        8x      LDRB     r0,[r7,#0]
        0x00004a64:    68a1        .h      LDR      r1,[r4,#8]
        0x00004a66:    1c7f        ..      ADDS     r7,r7,#1
        0x00004a68:    4790        .G      BLX      r2
        0x00004a6a:    6a20         j      LDR      r0,[r4,#0x20]
        0x00004a6c:    1c40        @.      ADDS     r0,r0,#1
        0x00004a6e:    6220         b      STR      r0,[r4,#0x20]
        0x00004a70:    990b        ..      LDR      r1,[sp,#0x2c]
        0x00004a72:    1e48        H.      SUBS     r0,r1,#1
        0x00004a74:    2900        .)      CMP      r1,#0
        0x00004a76:    900b        ..      STR      r0,[sp,#0x2c]
        0x00004a78:    dcf2        ..      BGT      0x4a60 ; _printf_fp_dec_real + 582
        0x00004a7a:    4620         F      MOV      r0,r4
        0x00004a7c:    46c0        .F      MOV      r8,r8
        0x00004a7e:    46c0        .F      MOV      r8,r8
        0x00004a80:    2002        .       MOVS     r0,#2
        0x00004a82:    e643        C.      B        0x470c ; _fp_digits + 142
    $d
        0x00004a84:    fffffc01    ....    DCD    4294966273
        0x00004a88:    00004d10    .M..    DCD    19728
        0x00004a8c:    ffffdfe1    ....    DCD    4294959073
    $t
    .text
    _printf_char_file
        0x00004a90:    4b08        .K      LDR      r3,[pc,#32] ; [0x4ab4] = 0xffffc5af
        0x00004a92:    b570        p.      PUSH     {r4-r6,lr}
        0x00004a94:    460d        .F      MOV      r5,r1
        0x00004a96:    447b        {D      ADD      r3,r3,pc
        0x00004a98:    f000f915    ....    BL       _printf_char_common ; 0x4cc6
        0x00004a9c:    4604        .F      MOV      r4,r0
        0x00004a9e:    4628        (F      MOV      r0,r5
        0x00004aa0:    f7fcfadf    ....    BL       ferror ; 0x1062
        0x00004aa4:    2800        .(      CMP      r0,#0
        0x00004aa6:    d002        ..      BEQ      0x4aae ; _printf_char_file + 30
        0x00004aa8:    2000        .       MOVS     r0,#0
        0x00004aaa:    43c0        .C      MVNS     r0,r0
        0x00004aac:    bd70        p.      POP      {r4-r6,pc}
        0x00004aae:    4620         F      MOV      r0,r4
        0x00004ab0:    bd70        p.      POP      {r4-r6,pc}
    $d
        0x00004ab2:    0000        ..      DCW    0
        0x00004ab4:    ffffc5af    ....    DCD    4294952367
    $t
    .text
    __rt_udiv10
        0x00004ab8:    4601        .F      MOV      r1,r0
        0x00004aba:    0880        ..      LSRS     r0,r0,#2
        0x00004abc:    1a08        ..      SUBS     r0,r1,r0
        0x00004abe:    0902        ..      LSRS     r2,r0,#4
        0x00004ac0:    1810        ..      ADDS     r0,r2,r0
        0x00004ac2:    0a02        ..      LSRS     r2,r0,#8
        0x00004ac4:    1810        ..      ADDS     r0,r2,r0
        0x00004ac6:    0c02        ..      LSRS     r2,r0,#16
        0x00004ac8:    1810        ..      ADDS     r0,r2,r0
        0x00004aca:    08c0        ..      LSRS     r0,r0,#3
        0x00004acc:    0082        ..      LSLS     r2,r0,#2
        0x00004ace:    1812        ..      ADDS     r2,r2,r0
        0x00004ad0:    0052        R.      LSLS     r2,r2,#1
        0x00004ad2:    1a89        ..      SUBS     r1,r1,r2
        0x00004ad4:    e001        ..      B        0x4ada ; __rt_udiv10 + 34
        0x00004ad6:    390a        .9      SUBS     r1,r1,#0xa
        0x00004ad8:    1c40        @.      ADDS     r0,r0,#1
        0x00004ada:    290a        .)      CMP      r1,#0xa
        0x00004adc:    d2fb        ..      BCS      0x4ad6 ; __rt_udiv10 + 30
        0x00004ade:    4770        pG      BX       lr
    .text
    __fpl_dcmp_InfNaN
        0x00004ae0:    b5f8        ..      PUSH     {r3-r7,lr}
        0x00004ae2:    4c22        "L      LDR      r4,[pc,#136] ; [0x4b6c] = 0xffe00000
        0x00004ae4:    004e        N.      LSLS     r6,r1,#1
        0x00004ae6:    9d06        ..      LDR      r5,[sp,#0x18]
        0x00004ae8:    42a6        .B      CMP      r6,r4
        0x00004aea:    d80a        ..      BHI      0x4b02 ; __fpl_dcmp_InfNaN + 34
        0x00004aec:    42a6        .B      CMP      r6,r4
        0x00004aee:    d101        ..      BNE      0x4af4 ; __fpl_dcmp_InfNaN + 20
        0x00004af0:    2800        .(      CMP      r0,#0
        0x00004af2:    d106        ..      BNE      0x4b02 ; __fpl_dcmp_InfNaN + 34
        0x00004af4:    005e        ^.      LSLS     r6,r3,#1
        0x00004af6:    42a6        .B      CMP      r6,r4
        0x00004af8:    d803        ..      BHI      0x4b02 ; __fpl_dcmp_InfNaN + 34
        0x00004afa:    42a6        .B      CMP      r6,r4
        0x00004afc:    d10a        ..      BNE      0x4b14 ; __fpl_dcmp_InfNaN + 52
        0x00004afe:    2a00        .*      CMP      r2,#0
        0x00004b00:    d008        ..      BEQ      0x4b14 ; __fpl_dcmp_InfNaN + 52
        0x00004b02:    240d        .$      MOVS     r4,#0xd
        0x00004b04:    0424        $.      LSLS     r4,r4,#16
        0x00004b06:    4225        %B      TST      r5,r4
        0x00004b08:    d02c        ,.      BEQ      0x4b64 ; __fpl_dcmp_InfNaN + 132
        0x00004b0a:    4629        )F      MOV      r1,r5
        0x00004b0c:    2000        .       MOVS     r0,#0
        0x00004b0e:    f000fbeb    ....    BL       __fpl_cmpreturn ; 0x52e8
        0x00004b12:    bdf8        ..      POP      {r3-r7,pc}
        0x00004b14:    460c        .F      MOV      r4,r1
        0x00004b16:    431c        .C      ORRS     r4,r4,r3
        0x00004b18:    d40c        ..      BMI      0x4b34 ; __fpl_dcmp_InfNaN + 84
        0x00004b1a:    4299        .B      CMP      r1,r3
        0x00004b1c:    d002        ..      BEQ      0x4b24 ; __fpl_dcmp_InfNaN + 68
        0x00004b1e:    f3ef8000    ....    MRS      r0,APSR ; formerly CPSR
        0x00004b22:    bdf8        ..      POP      {r3-r7,pc}
        0x00004b24:    4290        .B      CMP      r0,r2
        0x00004b26:    d002        ..      BEQ      0x4b2e ; __fpl_dcmp_InfNaN + 78
        0x00004b28:    f3ef8000    ....    MRS      r0,APSR ; formerly CPSR
        0x00004b2c:    bdf8        ..      POP      {r3-r7,pc}
        0x00004b2e:    f3ef8000    ....    MRS      r0,APSR ; formerly CPSR
        0x00004b32:    bdf8        ..      POP      {r3-r7,pc}
        0x00004b34:    2409        .$      MOVS     r4,#9
        0x00004b36:    0724        $.      LSLS     r4,r4,#28
        0x00004b38:    00e5        ..      LSLS     r5,r4,#3
        0x00004b3a:    428b        .B      CMP      r3,r1
        0x00004b3c:    d006        ..      BEQ      0x4b4c ; __fpl_dcmp_InfNaN + 108
        0x00004b3e:    f3ef8000    ....    MRS      r0,APSR ; formerly CPSR
        0x00004b42:    43a0        .C      BICS     r0,r0,r4
        0x00004b44:    1a59        Y.      SUBS     r1,r3,r1
        0x00004b46:    d206        ..      BCS      0x4b56 ; __fpl_dcmp_InfNaN + 118
        0x00004b48:    4328        (C      ORRS     r0,r0,r5
        0x00004b4a:    e004        ..      B        0x4b56 ; __fpl_dcmp_InfNaN + 118
        0x00004b4c:    1a10        ..      SUBS     r0,r2,r0
        0x00004b4e:    d305        ..      BCC      0x4b5c ; __fpl_dcmp_InfNaN + 124
        0x00004b50:    f3ef8000    ....    MRS      r0,APSR ; formerly CPSR
        0x00004b54:    43a0        .C      BICS     r0,r0,r4
        0x00004b56:    f3808800    ....    MSR      APSR_nzcvq,r0 ; formerly CPSR_f
        0x00004b5a:    bdf8        ..      POP      {r3-r7,pc}
        0x00004b5c:    f3ef8000    ....    MRS      r0,APSR ; formerly CPSR
        0x00004b60:    43a0        .C      BICS     r0,r0,r4
        0x00004b62:    e7f1        ..      B        0x4b48 ; __fpl_dcmp_InfNaN + 104
        0x00004b64:    9500        ..      STR      r5,[sp,#0]
        0x00004b66:    f000fc0d    ....    BL       __fpl_dcheck_NaN2 ; 0x5384
        0x00004b6a:    bdf8        ..      POP      {r3-r7,pc}
    $d
        0x00004b6c:    ffe00000    ....    DCD    4292870144
    $t
    .text
    __ARM_scalbn
        0x00004b70:    b570        p.      PUSH     {r4-r6,lr}
        0x00004b72:    4606        .F      MOV      r6,r0
        0x00004b74:    0048        H.      LSLS     r0,r1,#1
        0x00004b76:    0d44        D.      LSRS     r4,r0,#21
        0x00004b78:    4b11        .K      LDR      r3,[pc,#68] ; [0x4bc0] = 0x7ff
        0x00004b7a:    2000        .       MOVS     r0,#0
        0x00004b7c:    2c00        .,      CMP      r4,#0
        0x00004b7e:    d00a        ..      BEQ      0x4b96 ; __ARM_scalbn + 38
        0x00004b80:    4063        c@      EORS     r3,r3,r4
        0x00004b82:    d008        ..      BEQ      0x4b96 ; __ARM_scalbn + 38
        0x00004b84:    429a        .B      CMP      r2,r3
        0x00004b86:    da06        ..      BGE      0x4b96 ; __ARM_scalbn + 38
        0x00004b88:    4265        eB      RSBS     r5,r4,#0
        0x00004b8a:    42aa        .B      CMP      r2,r5
        0x00004b8c:    dd03        ..      BLE      0x4b96 ; __ARM_scalbn + 38
        0x00004b8e:    0512        ..      LSLS     r2,r2,#20
        0x00004b90:    1980        ..      ADDS     r0,r0,r6
        0x00004b92:    4151        QA      ADCS     r1,r1,r2
        0x00004b94:    bd70        p.      POP      {r4-r6,pc}
        0x00004b96:    0fcd        ..      LSRS     r5,r1,#31
        0x00004b98:    07ed        ..      LSLS     r5,r5,#31
        0x00004b9a:    2c00        .,      CMP      r4,#0
        0x00004b9c:    d005        ..      BEQ      0x4baa ; __ARM_scalbn + 58
        0x00004b9e:    2b00        .+      CMP      r3,#0
        0x00004ba0:    d005        ..      BEQ      0x4bae ; __ARM_scalbn + 62
        0x00004ba2:    2a00        .*      CMP      r2,#0
        0x00004ba4:    db01        ..      BLT      0x4baa ; __ARM_scalbn + 58
        0x00004ba6:    4907        .I      LDR      r1,[pc,#28] ; [0x4bc4] = 0x7ff00000
        0x00004ba8:    430d        .C      ORRS     r5,r5,r1
        0x00004baa:    4629        )F      MOV      r1,r5
        0x00004bac:    bd70        p.      POP      {r4-r6,pc}
        0x00004bae:    4630        0F      MOV      r0,r6
        0x00004bb0:    030a        ..      LSLS     r2,r1,#12
        0x00004bb2:    4310        .C      ORRS     r0,r0,r2
        0x00004bb4:    d002        ..      BEQ      0x4bbc ; __ARM_scalbn + 76
        0x00004bb6:    2000        .       MOVS     r0,#0
        0x00004bb8:    4903        .I      LDR      r1,[pc,#12] ; [0x4bc8] = 0x7ff80000
        0x00004bba:    bd70        p.      POP      {r4-r6,pc}
        0x00004bbc:    4630        0F      MOV      r0,r6
        0x00004bbe:    bd70        p.      POP      {r4-r6,pc}
    $d
        0x00004bc0:    000007ff    ....    DCD    2047
        0x00004bc4:    7ff00000    ....    DCD    2146435072
        0x00004bc8:    7ff80000    ....    DCD    2146959360
    $t
    .text
    __fpl_fcmp_InfNaN
        0x00004bcc:    b510        ..      PUSH     {r4,lr}
        0x00004bce:    23ff        .#      MOVS     r3,#0xff
        0x00004bd0:    061b        ..      LSLS     r3,r3,#24
        0x00004bd2:    0044        D.      LSLS     r4,r0,#1
        0x00004bd4:    429c        .B      CMP      r4,r3
        0x00004bd6:    d81d        ..      BHI      0x4c14 ; __fpl_fcmp_InfNaN + 72
        0x00004bd8:    004c        L.      LSLS     r4,r1,#1
        0x00004bda:    429c        .B      CMP      r4,r3
        0x00004bdc:    d81a        ..      BHI      0x4c14 ; __fpl_fcmp_InfNaN + 72
        0x00004bde:    4603        .F      MOV      r3,r0
        0x00004be0:    4a12        .J      LDR      r2,[pc,#72] ; [0x4c2c] = 0x90000000
        0x00004be2:    430b        .C      ORRS     r3,r3,r1
        0x00004be4:    d407        ..      BMI      0x4bf6 ; __fpl_fcmp_InfNaN + 42
        0x00004be6:    1a40        @.      SUBS     r0,r0,r1
        0x00004be8:    d302        ..      BCC      0x4bf0 ; __fpl_fcmp_InfNaN + 36
        0x00004bea:    f3ef8000    ....    MRS      r0,APSR ; formerly CPSR
        0x00004bee:    bd10        ..      POP      {r4,pc}
        0x00004bf0:    f3ef8000    ....    MRS      r0,APSR ; formerly CPSR
        0x00004bf4:    bd10        ..      POP      {r4,pc}
        0x00004bf6:    1a08        ..      SUBS     r0,r1,r0
        0x00004bf8:    d206        ..      BCS      0x4c08 ; __fpl_fcmp_InfNaN + 60
        0x00004bfa:    f3ef8000    ....    MRS      r0,APSR ; formerly CPSR
        0x00004bfe:    2101        .!      MOVS     r1,#1
        0x00004c00:    4390        .C      BICS     r0,r0,r2
        0x00004c02:    07c9        ..      LSLS     r1,r1,#31
        0x00004c04:    4308        .C      ORRS     r0,r0,r1
        0x00004c06:    e002        ..      B        0x4c0e ; __fpl_fcmp_InfNaN + 66
        0x00004c08:    f3ef8000    ....    MRS      r0,APSR ; formerly CPSR
        0x00004c0c:    4390        .C      BICS     r0,r0,r2
        0x00004c0e:    f3808800    ....    MSR      APSR_nzcvq,r0 ; formerly CPSR_f
        0x00004c12:    bd10        ..      POP      {r4,pc}
        0x00004c14:    230d        .#      MOVS     r3,#0xd
        0x00004c16:    041b        ..      LSLS     r3,r3,#16
        0x00004c18:    421a        .B      TST      r2,r3
        0x00004c1a:    d004        ..      BEQ      0x4c26 ; __fpl_fcmp_InfNaN + 90
        0x00004c1c:    4611        .F      MOV      r1,r2
        0x00004c1e:    2000        .       MOVS     r0,#0
        0x00004c20:    f000fb62    ..b.    BL       __fpl_cmpreturn ; 0x52e8
        0x00004c24:    bd10        ..      POP      {r4,pc}
        0x00004c26:    f000fbb7    ....    BL       __fpl_fcheck_NaN2 ; 0x5398
        0x00004c2a:    bd10        ..      POP      {r4,pc}
    $d
        0x00004c2c:    90000000    ....    DCD    2415919104
    $t
    .text
    __rt_locale
        0x00004c30:    4800        .H      LDR      r0,[pc,#0] ; [0x4c34] = 0x200003e8
        0x00004c32:    4770        pG      BX       lr
    $d
        0x00004c34:    200003e8    ...     DCD    536871912
    $t
    .text
    __aeabi_errno_addr
    __errno$intlibspace
    __rt_errno_addr$intlibspace
        0x00004c38:    4800        .H      LDR      r0,[pc,#0] ; [0x4c3c] = 0x200003c8
        0x00004c3a:    4770        pG      BX       lr
    $d
        0x00004c3c:    200003c8    ...     DCD    536871880
    $t
    .text
    _ll_udiv10
        0x00004c40:    460b        .F      MOV      r3,r1
        0x00004c42:    b570        p.      PUSH     {r4-r6,lr}
        0x00004c44:    4602        .F      MOV      r2,r0
        0x00004c46:    0789        ..      LSLS     r1,r1,#30
        0x00004c48:    0880        ..      LSRS     r0,r0,#2
        0x00004c4a:    4308        .C      ORRS     r0,r0,r1
        0x00004c4c:    4619        .F      MOV      r1,r3
        0x00004c4e:    089d        ..      LSRS     r5,r3,#2
        0x00004c50:    1a14        ..      SUBS     r4,r2,r0
        0x00004c52:    41a9        .A      SBCS     r1,r1,r5
        0x00004c54:    0925        %.      LSRS     r5,r4,#4
        0x00004c56:    0708        ..      LSLS     r0,r1,#28
        0x00004c58:    4305        .C      ORRS     r5,r5,r0
        0x00004c5a:    0908        ..      LSRS     r0,r1,#4
        0x00004c5c:    192c        ,.      ADDS     r4,r5,r4
        0x00004c5e:    4148        HA      ADCS     r0,r0,r1
        0x00004c60:    0a25        %.      LSRS     r5,r4,#8
        0x00004c62:    0601        ..      LSLS     r1,r0,#24
        0x00004c64:    430d        .C      ORRS     r5,r5,r1
        0x00004c66:    0a01        ..      LSRS     r1,r0,#8
        0x00004c68:    192c        ,.      ADDS     r4,r5,r4
        0x00004c6a:    4141        AA      ADCS     r1,r1,r0
        0x00004c6c:    0c20         .      LSRS     r0,r4,#16
        0x00004c6e:    040d        ..      LSLS     r5,r1,#16
        0x00004c70:    4328        (C      ORRS     r0,r0,r5
        0x00004c72:    0c0d        ..      LSRS     r5,r1,#16
        0x00004c74:    1900        ..      ADDS     r0,r0,r4
        0x00004c76:    414d        MA      ADCS     r5,r5,r1
        0x00004c78:    2100        .!      MOVS     r1,#0
        0x00004c7a:    1940        @.      ADDS     r0,r0,r5
        0x00004c7c:    414d        MA      ADCS     r5,r5,r1
        0x00004c7e:    08c0        ..      LSRS     r0,r0,#3
        0x00004c80:    0769        i.      LSLS     r1,r5,#29
        0x00004c82:    4308        .C      ORRS     r0,r0,r1
        0x00004c84:    08e9        ..      LSRS     r1,r5,#3
        0x00004c86:    0f84        ..      LSRS     r4,r0,#30
        0x00004c88:    008d        ..      LSLS     r5,r1,#2
        0x00004c8a:    4325        %C      ORRS     r5,r5,r4
        0x00004c8c:    0084        ..      LSLS     r4,r0,#2
        0x00004c8e:    1824        $.      ADDS     r4,r4,r0
        0x00004c90:    414d        MA      ADCS     r5,r5,r1
        0x00004c92:    1924        $.      ADDS     r4,r4,r4
        0x00004c94:    416d        mA      ADCS     r5,r5,r5
        0x00004c96:    1b12        ..      SUBS     r2,r2,r4
        0x00004c98:    41ab        .A      SBCS     r3,r3,r5
        0x00004c9a:    e007        ..      B        0x4cac ; _ll_udiv10 + 108
        0x00004c9c:    2509        .%      MOVS     r5,#9
        0x00004c9e:    43ed        .C      MVNS     r5,r5
        0x00004ca0:    112c        ,.      ASRS     r4,r5,#4
        0x00004ca2:    1952        R.      ADDS     r2,r2,r5
        0x00004ca4:    4163        cA      ADCS     r3,r3,r4
        0x00004ca6:    2400        .$      MOVS     r4,#0
        0x00004ca8:    1c40        @.      ADDS     r0,r0,#1
        0x00004caa:    4161        aA      ADCS     r1,r1,r4
        0x00004cac:    461c        .F      MOV      r4,r3
        0x00004cae:    250a        .%      MOVS     r5,#0xa
        0x00004cb0:    2600        .&      MOVS     r6,#0
        0x00004cb2:    1b55        U.      SUBS     r5,r2,r5
        0x00004cb4:    41b4        .A      SBCS     r4,r4,r6
        0x00004cb6:    d2f1        ..      BCS      0x4c9c ; _ll_udiv10 + 92
        0x00004cb8:    bd70        p.      POP      {r4-r6,pc}
        0x00004cba:    0000        ..      MOVS     r0,r0
    .text
    _printf_input_char
        0x00004cbc:    6901        .i      LDR      r1,[r0,#0x10]
        0x00004cbe:    1c4a        J.      ADDS     r2,r1,#1
        0x00004cc0:    6102        .a      STR      r2,[r0,#0x10]
        0x00004cc2:    7808        .x      LDRB     r0,[r1,#0]
        0x00004cc4:    4770        pG      BX       lr
    _printf_char_common
        0x00004cc6:    b500        ..      PUSH     {lr}
        0x00004cc8:    b08f        ..      SUB      sp,sp,#0x3c
        0x00004cca:    9102        ..      STR      r1,[sp,#8]
        0x00004ccc:    2100        .!      MOVS     r1,#0
        0x00004cce:    9105        ..      STR      r1,[sp,#0x14]
        0x00004cd0:    4905        .I      LDR      r1,[pc,#20] ; [0x4ce8] = 0xffffffe5
        0x00004cd2:    9301        ..      STR      r3,[sp,#4]
        0x00004cd4:    4479        yD      ADD      r1,r1,pc
        0x00004cd6:    9103        ..      STR      r1,[sp,#0xc]
        0x00004cd8:    4611        .F      MOV      r1,r2
        0x00004cda:    9004        ..      STR      r0,[sp,#0x10]
        0x00004cdc:    4668        hF      MOV      r0,sp
        0x00004cde:    f7fefc77    ..w.    BL       __printf ; 0x35d0
        0x00004ce2:    b00f        ..      ADD      sp,sp,#0x3c
        0x00004ce4:    bd00        ..      POP      {pc}
    $d
        0x00004ce6:    0000        ..      DCW    0
        0x00004ce8:    ffffffe5    ....    DCD    4294967269
    $t
    .text
    _printf_fp_infnan
        0x00004cec:    b5f8        ..      PUSH     {r3-r7,lr}
        0x00004cee:    461f        .F      MOV      r7,r3
        0x00004cf0:    4604        .F      MOV      r4,r0
        0x00004cf2:    2301        .#      MOVS     r3,#1
        0x00004cf4:    6800        .h      LDR      r0,[r0,#0]
        0x00004cf6:    02db        ..      LSLS     r3,r3,#11
        0x00004cf8:    2603        .&      MOVS     r6,#3
        0x00004cfa:    4601        .F      MOV      r1,r0
        0x00004cfc:    4018        .@      ANDS     r0,r0,r3
        0x00004cfe:    2a07        .*      CMP      r2,#7
        0x00004d00:    db05        ..      BLT      0x4d0e ; _printf_fp_infnan + 34
        0x00004d02:    2800        .(      CMP      r0,#0
        0x00004d04:    d001        ..      BEQ      0x4d0a ; _printf_fp_infnan + 30
        0x00004d06:    a517        ..      ADR      r5,{pc}+0x5e ; 0x4d64
        0x00004d08:    e006        ..      B        0x4d18 ; _printf_fp_infnan + 44
        0x00004d0a:    a517        ..      ADR      r5,{pc}+0x5e ; 0x4d68
        0x00004d0c:    e004        ..      B        0x4d18 ; _printf_fp_infnan + 44
        0x00004d0e:    2800        .(      CMP      r0,#0
        0x00004d10:    d001        ..      BEQ      0x4d16 ; _printf_fp_infnan + 42
        0x00004d12:    a516        ..      ADR      r5,{pc}+0x5a ; 0x4d6c
        0x00004d14:    e000        ..      B        0x4d18 ; _printf_fp_infnan + 44
        0x00004d16:    a516        ..      ADR      r5,{pc}+0x5a ; 0x4d70
        0x00004d18:    2010        .       MOVS     r0,#0x10
        0x00004d1a:    4381        .C      BICS     r1,r1,r0
        0x00004d1c:    6021        !`      STR      r1,[r4,#0]
        0x00004d1e:    69a0        .i      LDR      r0,[r4,#0x18]
        0x00004d20:    1ec0        ..      SUBS     r0,r0,#3
        0x00004d22:    2f00        ./      CMP      r7,#0
        0x00004d24:    61a0        .a      STR      r0,[r4,#0x18]
        0x00004d26:    d001        ..      BEQ      0x4d2c ; _printf_fp_infnan + 64
        0x00004d28:    1e40        @.      SUBS     r0,r0,#1
        0x00004d2a:    61a0        .a      STR      r0,[r4,#0x18]
        0x00004d2c:    4620         F      MOV      r0,r4
        0x00004d2e:    46c0        .F      MOV      r8,r8
        0x00004d30:    46c0        .F      MOV      r8,r8
        0x00004d32:    2f00        ./      CMP      r7,#0
        0x00004d34:    d009        ..      BEQ      0x4d4a ; _printf_fp_infnan + 94
        0x00004d36:    4638        8F      MOV      r0,r7
        0x00004d38:    6862        bh      LDR      r2,[r4,#4]
        0x00004d3a:    68a1        .h      LDR      r1,[r4,#8]
        0x00004d3c:    4790        .G      BLX      r2
        0x00004d3e:    6a20         j      LDR      r0,[r4,#0x20]
        0x00004d40:    1c40        @.      ADDS     r0,r0,#1
        0x00004d42:    6220         b      STR      r0,[r4,#0x20]
        0x00004d44:    1cc0        ..      ADDS     r0,r0,#3
        0x00004d46:    6220         b      STR      r0,[r4,#0x20]
        0x00004d48:    e006        ..      B        0x4d58 ; _printf_fp_infnan + 108
        0x00004d4a:    6a20         j      LDR      r0,[r4,#0x20]
        0x00004d4c:    e7fa        ..      B        0x4d44 ; _printf_fp_infnan + 88
        0x00004d4e:    6862        bh      LDR      r2,[r4,#4]
        0x00004d50:    7828        (x      LDRB     r0,[r5,#0]
        0x00004d52:    68a1        .h      LDR      r1,[r4,#8]
        0x00004d54:    1c6d        m.      ADDS     r5,r5,#1
        0x00004d56:    4790        .G      BLX      r2
        0x00004d58:    1e76        v.      SUBS     r6,r6,#1
        0x00004d5a:    d2f8        ..      BCS      0x4d4e ; _printf_fp_infnan + 98
        0x00004d5c:    4620         F      MOV      r0,r4
        0x00004d5e:    46c0        .F      MOV      r8,r8
        0x00004d60:    46c0        .F      MOV      r8,r8
        0x00004d62:    bdf8        ..      POP      {r3-r7,pc}
    $d
        0x00004d64:    004e414e    NAN.    DCD    5128526
        0x00004d68:    006e616e    nan.    DCD    7233902
        0x00004d6c:    00464e49    INF.    DCD    4607561
        0x00004d70:    00666e69    inf.    DCD    6712937
    $t
    .text
    _btod_etento
        0x00004d74:    b5f7        ..      PUSH     {r0-r2,r4-r7,lr}
        0x00004d76:    4616        .F      MOV      r6,r2
        0x00004d78:    b08a        ..      SUB      sp,sp,#0x28
        0x00004d7a:    4830        0H      LDR      r0,[pc,#192] ; [0x4e3c] = 0x1970
        0x00004d7c:    4478        xD      ADD      r0,r0,pc
        0x00004d7e:    466c        lF      MOV      r4,sp
        0x00004d80:    4603        .F      MOV      r3,r0
        0x00004d82:    337c        |3      ADDS     r3,r3,#0x7c
        0x00004d84:    6fc0        .o      LDR      r0,[r0,#0x7c]
        0x00004d86:    685a        Zh      LDR      r2,[r3,#4]
        0x00004d88:    689b        .h      LDR      r3,[r3,#8]
        0x00004d8a:    c40d        ..      STM      r4!,{r0,r2,r3}
        0x00004d8c:    4b2b        +K      LDR      r3,[pc,#172] ; [0x4e3c] = 0x1970
        0x00004d8e:    447b        {D      ADD      r3,r3,pc
        0x00004d90:    336e        n3      ADDS     r3,r3,#0x6e
        0x00004d92:    3308        .3      ADDS     r3,r3,#8
        0x00004d94:    ac03        ..      ADD      r4,sp,#0xc
        0x00004d96:    cb0d        ..      LDM      r3,{r0,r2,r3}
        0x00004d98:    c40d        ..      STM      r4!,{r0,r2,r3}
        0x00004d9a:    2037        7       MOVS     r0,#0x37
        0x00004d9c:    01c0        ..      LSLS     r0,r0,#7
        0x00004d9e:    1808        ..      ADDS     r0,r1,r0
        0x00004da0:    2137        7!      MOVS     r1,#0x37
        0x00004da2:    301b        .0      ADDS     r0,r0,#0x1b
        0x00004da4:    f7fefcce    ....    BL       __aeabi_idiv ; 0x3744
        0x00004da8:    4605        .F      MOV      r5,r0
        0x00004daa:    460c        .F      MOV      r4,r1
        0x00004dac:    3d80        .=      SUBS     r5,r5,#0x80
        0x00004dae:    3c1b        .<      SUBS     r4,r4,#0x1b
        0x00004db0:    d502        ..      BPL      0x4db8 ; _btod_etento + 68
        0x00004db2:    4264        dB      RSBS     r4,r4,#0
        0x00004db4:    2001        .       MOVS     r0,#1
        0x00004db6:    e000        ..      B        0x4dba ; _btod_etento + 70
        0x00004db8:    2000        .       MOVS     r0,#0
        0x00004dba:    2700        .'      MOVS     r7,#0
        0x00004dbc:    9009        ..      STR      r0,[sp,#0x24]
        0x00004dbe:    e00f        ..      B        0x4de0 ; _btod_etento + 108
        0x00004dc0:    07e0        ..      LSLS     r0,r4,#31
        0x00004dc2:    d00b        ..      BEQ      0x4ddc ; _btod_etento + 104
        0x00004dc4:    200c        .       MOVS     r0,#0xc
        0x00004dc6:    491d        .I      LDR      r1,[pc,#116] ; [0x4e3c] = 0x1970
        0x00004dc8:    4378        xC      MULS     r0,r7,r0
        0x00004dca:    4479        yD      ADD      r1,r1,pc
        0x00004dcc:    4632        2F      MOV      r2,r6
        0x00004dce:    394e        N9      SUBS     r1,r1,#0x4e
        0x00004dd0:    1841        A.      ADDS     r1,r0,r1
        0x00004dd2:    4668        hF      MOV      r0,sp
        0x00004dd4:    f000fa2f    ../.    BL       _btod_emul ; 0x5236
        0x00004dd8:    466b        kF      MOV      r3,sp
        0x00004dda:    c307        ..      STM      r3!,{r0-r2}
        0x00004ddc:    1064        d.      ASRS     r4,r4,#1
        0x00004dde:    1c7f        ..      ADDS     r7,r7,#1
        0x00004de0:    2c00        .,      CMP      r4,#0
        0x00004de2:    d1ed        ..      BNE      0x4dc0 ; _btod_etento + 76
        0x00004de4:    4f15        .O      LDR      r7,[pc,#84] ; [0x4e3c] = 0x1970
        0x00004de6:    447f        .D      ADD      r7,r7,pc
        0x00004de8:    3f2e        .?      SUBS     r7,r7,#0x2e
        0x00004dea:    e016        ..      B        0x4e1a ; _btod_etento + 166
        0x00004dec:    07e8        ..      LSLS     r0,r5,#31
        0x00004dee:    d012        ..      BEQ      0x4e16 ; _btod_etento + 162
        0x00004df0:    0120         .      LSLS     r0,r4,#4
        0x00004df2:    19c0        ..      ADDS     r0,r0,r7
        0x00004df4:    4601        .F      MOV      r1,r0
        0x00004df6:    c90e        ..      LDM      r1,{r1-r3}
        0x00004df8:    9106        ..      STR      r1,[sp,#0x18]
        0x00004dfa:    9308        ..      STR      r3,[sp,#0x20]
        0x00004dfc:    9207        ..      STR      r2,[sp,#0x1c]
        0x00004dfe:    68c0        .h      LDR      r0,[r0,#0xc]
        0x00004e00:    42f0        .B      CMN      r0,r6
        0x00004e02:    d101        ..      BNE      0x4e08 ; _btod_etento + 148
        0x00004e04:    1998        ..      ADDS     r0,r3,r6
        0x00004e06:    9008        ..      STR      r0,[sp,#0x20]
        0x00004e08:    4632        2F      MOV      r2,r6
        0x00004e0a:    a906        ..      ADD      r1,sp,#0x18
        0x00004e0c:    a803        ..      ADD      r0,sp,#0xc
        0x00004e0e:    f000fa12    ....    BL       _btod_emul ; 0x5236
        0x00004e12:    ab03        ..      ADD      r3,sp,#0xc
        0x00004e14:    c307        ..      STM      r3!,{r0-r2}
        0x00004e16:    106d        m.      ASRS     r5,r5,#1
        0x00004e18:    1c64        d.      ADDS     r4,r4,#1
        0x00004e1a:    2d00        .-      CMP      r5,#0
        0x00004e1c:    d1e6        ..      BNE      0x4dec ; _btod_etento + 120
        0x00004e1e:    4632        2F      MOV      r2,r6
        0x00004e20:    4669        iF      MOV      r1,sp
        0x00004e22:    9809        ..      LDR      r0,[sp,#0x24]
        0x00004e24:    2800        .(      CMP      r0,#0
        0x00004e26:    a803        ..      ADD      r0,sp,#0xc
        0x00004e28:    d002        ..      BEQ      0x4e30 ; _btod_etento + 188
        0x00004e2a:    f000fa2e    ....    BL       _btod_ediv ; 0x528a
        0x00004e2e:    e001        ..      B        0x4e34 ; _btod_etento + 192
        0x00004e30:    f000fa01    ....    BL       _btod_emul ; 0x5236
        0x00004e34:    9b0a        ..      LDR      r3,[sp,#0x28]
        0x00004e36:    c307        ..      STM      r3!,{r0-r2}
        0x00004e38:    b00d        ..      ADD      sp,sp,#0x34
        0x00004e3a:    bdf0        ..      POP      {r4-r7,pc}
    $d
        0x00004e3c:    00001970    p...    DCD    6512
    $t
    .text
    _btod_d2e
        0x00004e40:    4603        .F      MOV      r3,r0
        0x00004e42:    0040        @.      LSLS     r0,r0,#1
        0x00004e44:    460a        .F      MOV      r2,r1
        0x00004e46:    b510        ..      PUSH     {r4,lr}
        0x00004e48:    0d40        @.      LSRS     r0,r0,#21
        0x00004e4a:    d00b        ..      BEQ      0x4e64 ; _btod_d2e + 36
        0x00004e4c:    2101        .!      MOVS     r1,#1
        0x00004e4e:    07c9        ..      LSLS     r1,r1,#31
        0x00004e50:    240f        .$      MOVS     r4,#0xf
        0x00004e52:    02a4        ..      LSLS     r4,r4,#10
        0x00004e54:    1900        ..      ADDS     r0,r0,r4
        0x00004e56:    031c        ..      LSLS     r4,r3,#12
        0x00004e58:    0864        d.      LSRS     r4,r4,#1
        0x00004e5a:    4321        !C      ORRS     r1,r1,r4
        0x00004e5c:    0d54        T.      LSRS     r4,r2,#21
        0x00004e5e:    4321        !C      ORRS     r1,r1,r4
        0x00004e60:    02d2        ..      LSLS     r2,r2,#11
        0x00004e62:    e007        ..      B        0x4e74 ; _btod_d2e + 52
        0x00004e64:    2100        .!      MOVS     r1,#0
        0x00004e66:    2001        .       MOVS     r0,#1
        0x00004e68:    e7f2        ..      B        0x4e50 ; _btod_d2e + 16
        0x00004e6a:    0fd4        ..      LSRS     r4,r2,#31
        0x00004e6c:    0049        I.      LSLS     r1,r1,#1
        0x00004e6e:    4321        !C      ORRS     r1,r1,r4
        0x00004e70:    0052        R.      LSLS     r2,r2,#1
        0x00004e72:    1e40        @.      SUBS     r0,r0,#1
        0x00004e74:    2900        .)      CMP      r1,#0
        0x00004e76:    daf8        ..      BGE      0x4e6a ; _btod_d2e + 42
        0x00004e78:    0fdb        ..      LSRS     r3,r3,#31
        0x00004e7a:    07db        ..      LSLS     r3,r3,#31
        0x00004e7c:    4318        .C      ORRS     r0,r0,r3
        0x00004e7e:    bd10        ..      POP      {r4,pc}
    btod_internal_mul
        0x00004e80:    b5ff        ..      PUSH     {r0-r7,lr}
        0x00004e82:    460d        .F      MOV      r5,r1
        0x00004e84:    4614        .F      MOV      r4,r2
        0x00004e86:    b085        ..      SUB      sp,sp,#0x14
        0x00004e88:    6848        Hh      LDR      r0,[r1,#4]
        0x00004e8a:    6851        Qh      LDR      r1,[r2,#4]
        0x00004e8c:    f000fb4e    ..N.    BL       __ARM_common_ll_muluu ; 0x552c
        0x00004e90:    9100        ..      STR      r1,[sp,#0]
        0x00004e92:    9001        ..      STR      r0,[sp,#4]
        0x00004e94:    68a8        .h      LDR      r0,[r5,#8]
        0x00004e96:    68a1        .h      LDR      r1,[r4,#8]
        0x00004e98:    f000fb48    ..H.    BL       __ARM_common_ll_muluu ; 0x552c
        0x00004e9c:    9102        ..      STR      r1,[sp,#8]
        0x00004e9e:    9003        ..      STR      r0,[sp,#0xc]
        0x00004ea0:    68a8        .h      LDR      r0,[r5,#8]
        0x00004ea2:    6861        ah      LDR      r1,[r4,#4]
        0x00004ea4:    f000fb42    ..B.    BL       __ARM_common_ll_muluu ; 0x552c
        0x00004ea8:    9a02        ..      LDR      r2,[sp,#8]
        0x00004eaa:    1812        ..      ADDS     r2,r2,r0
        0x00004eac:    4282        .B      CMP      r2,r0
        0x00004eae:    9202        ..      STR      r2,[sp,#8]
        0x00004eb0:    d201        ..      BCS      0x4eb6 ; btod_internal_mul + 54
        0x00004eb2:    2001        .       MOVS     r0,#1
        0x00004eb4:    e000        ..      B        0x4eb8 ; btod_internal_mul + 56
        0x00004eb6:    2000        .       MOVS     r0,#0
        0x00004eb8:    9a01        ..      LDR      r2,[sp,#4]
        0x00004eba:    180b        ..      ADDS     r3,r1,r0
        0x00004ebc:    18d2        ..      ADDS     r2,r2,r3
        0x00004ebe:    2800        .(      CMP      r0,#0
        0x00004ec0:    9201        ..      STR      r2,[sp,#4]
        0x00004ec2:    d002        ..      BEQ      0x4eca ; btod_internal_mul + 74
        0x00004ec4:    428a        .B      CMP      r2,r1
        0x00004ec6:    d902        ..      BLS      0x4ece ; btod_internal_mul + 78
        0x00004ec8:    e003        ..      B        0x4ed2 ; btod_internal_mul + 82
        0x00004eca:    428a        .B      CMP      r2,r1
        0x00004ecc:    d201        ..      BCS      0x4ed2 ; btod_internal_mul + 82
        0x00004ece:    2001        .       MOVS     r0,#1
        0x00004ed0:    e000        ..      B        0x4ed4 ; btod_internal_mul + 84
        0x00004ed2:    2000        .       MOVS     r0,#0
        0x00004ed4:    9900        ..      LDR      r1,[sp,#0]
        0x00004ed6:    1808        ..      ADDS     r0,r1,r0
        0x00004ed8:    9000        ..      STR      r0,[sp,#0]
        0x00004eda:    6868        hh      LDR      r0,[r5,#4]
        0x00004edc:    68a1        .h      LDR      r1,[r4,#8]
        0x00004ede:    f000fb25    ..%.    BL       __ARM_common_ll_muluu ; 0x552c
        0x00004ee2:    9a02        ..      LDR      r2,[sp,#8]
        0x00004ee4:    1812        ..      ADDS     r2,r2,r0
        0x00004ee6:    4282        .B      CMP      r2,r0
        0x00004ee8:    9202        ..      STR      r2,[sp,#8]
        0x00004eea:    d201        ..      BCS      0x4ef0 ; btod_internal_mul + 112
        0x00004eec:    2001        .       MOVS     r0,#1
        0x00004eee:    e000        ..      B        0x4ef2 ; btod_internal_mul + 114
        0x00004ef0:    2000        .       MOVS     r0,#0
        0x00004ef2:    9a01        ..      LDR      r2,[sp,#4]
        0x00004ef4:    180b        ..      ADDS     r3,r1,r0
        0x00004ef6:    18d2        ..      ADDS     r2,r2,r3
        0x00004ef8:    2800        .(      CMP      r0,#0
        0x00004efa:    9201        ..      STR      r2,[sp,#4]
        0x00004efc:    d002        ..      BEQ      0x4f04 ; btod_internal_mul + 132
        0x00004efe:    428a        .B      CMP      r2,r1
        0x00004f00:    d902        ..      BLS      0x4f08 ; btod_internal_mul + 136
        0x00004f02:    e003        ..      B        0x4f0c ; btod_internal_mul + 140
        0x00004f04:    428a        .B      CMP      r2,r1
        0x00004f06:    d201        ..      BCS      0x4f0c ; btod_internal_mul + 140
        0x00004f08:    2001        .       MOVS     r0,#1
        0x00004f0a:    e000        ..      B        0x4f0e ; btod_internal_mul + 142
        0x00004f0c:    2000        .       MOVS     r0,#0
        0x00004f0e:    9900        ..      LDR      r1,[sp,#0]
        0x00004f10:    1808        ..      ADDS     r0,r1,r0
        0x00004f12:    9000        ..      STR      r0,[sp,#0]
        0x00004f14:    6828        (h      LDR      r0,[r5,#0]
        0x00004f16:    6821        !h      LDR      r1,[r4,#0]
        0x00004f18:    0040        @.      LSLS     r0,r0,#1
        0x00004f1a:    0049        I.      LSLS     r1,r1,#1
        0x00004f1c:    0840        @.      LSRS     r0,r0,#1
        0x00004f1e:    0849        I.      LSRS     r1,r1,#1
        0x00004f20:    1840        @.      ADDS     r0,r0,r1
        0x00004f22:    49ee        .I      LDR      r1,[pc,#952] ; [0x52dc] = 0xffffc002
        0x00004f24:    1847        G.      ADDS     r7,r0,r1
        0x00004f26:    e014        ..      B        0x4f52 ; btod_internal_mul + 210
        0x00004f28:    9901        ..      LDR      r1,[sp,#4]
        0x00004f2a:    0040        @.      LSLS     r0,r0,#1
        0x00004f2c:    0fc9        ..      LSRS     r1,r1,#31
        0x00004f2e:    4308        .C      ORRS     r0,r0,r1
        0x00004f30:    9000        ..      STR      r0,[sp,#0]
        0x00004f32:    9801        ..      LDR      r0,[sp,#4]
        0x00004f34:    9902        ..      LDR      r1,[sp,#8]
        0x00004f36:    0040        @.      LSLS     r0,r0,#1
        0x00004f38:    0fc9        ..      LSRS     r1,r1,#31
        0x00004f3a:    4308        .C      ORRS     r0,r0,r1
        0x00004f3c:    9001        ..      STR      r0,[sp,#4]
        0x00004f3e:    9802        ..      LDR      r0,[sp,#8]
        0x00004f40:    9903        ..      LDR      r1,[sp,#0xc]
        0x00004f42:    0040        @.      LSLS     r0,r0,#1
        0x00004f44:    0fc9        ..      LSRS     r1,r1,#31
        0x00004f46:    4308        .C      ORRS     r0,r0,r1
        0x00004f48:    9002        ..      STR      r0,[sp,#8]
        0x00004f4a:    9803        ..      LDR      r0,[sp,#0xc]
        0x00004f4c:    0040        @.      LSLS     r0,r0,#1
        0x00004f4e:    1e7f        ..      SUBS     r7,r7,#1
        0x00004f50:    9003        ..      STR      r0,[sp,#0xc]
        0x00004f52:    9800        ..      LDR      r0,[sp,#0]
        0x00004f54:    2800        .(      CMP      r0,#0
        0x00004f56:    dae7        ..      BGE      0x4f28 ; btod_internal_mul + 168
        0x00004f58:    9808        ..      LDR      r0,[sp,#0x20]
        0x00004f5a:    2800        .(      CMP      r0,#0
        0x00004f5c:    d001        ..      BEQ      0x4f62 ; btod_internal_mul + 226
        0x00004f5e:    4ee0        .N      LDR      r6,[pc,#896] ; [0x52e0] = 0x3c01
        0x00004f60:    e000        ..      B        0x4f64 ; btod_internal_mul + 228
        0x00004f62:    2600        .&      MOVS     r6,#0
        0x00004f64:    42b7        .B      CMP      r7,r6
        0x00004f66:    da28        (.      BGE      0x4fba ; btod_internal_mul + 314
        0x00004f68:    1bf7        ..      SUBS     r7,r6,r7
        0x00004f6a:    06f8        ..      LSLS     r0,r7,#27
        0x00004f6c:    0ec0        ..      LSRS     r0,r0,#27
        0x00004f6e:    d015        ..      BEQ      0x4f9c ; btod_internal_mul + 284
        0x00004f70:    9b02        ..      LDR      r3,[sp,#8]
        0x00004f72:    2120         !      MOVS     r1,#0x20
        0x00004f74:    1a09        ..      SUBS     r1,r1,r0
        0x00004f76:    9a03        ..      LDR      r2,[sp,#0xc]
        0x00004f78:    408b        .@      LSLS     r3,r3,r1
        0x00004f7a:    431a        .C      ORRS     r2,r2,r3
        0x00004f7c:    9203        ..      STR      r2,[sp,#0xc]
        0x00004f7e:    9a02        ..      LDR      r2,[sp,#8]
        0x00004f80:    9b01        ..      LDR      r3,[sp,#4]
        0x00004f82:    40c2        .@      LSRS     r2,r2,r0
        0x00004f84:    408b        .@      LSLS     r3,r3,r1
        0x00004f86:    431a        .C      ORRS     r2,r2,r3
        0x00004f88:    9202        ..      STR      r2,[sp,#8]
        0x00004f8a:    9a01        ..      LDR      r2,[sp,#4]
        0x00004f8c:    9b00        ..      LDR      r3,[sp,#0]
        0x00004f8e:    40c2        .@      LSRS     r2,r2,r0
        0x00004f90:    408b        .@      LSLS     r3,r3,r1
        0x00004f92:    9900        ..      LDR      r1,[sp,#0]
        0x00004f94:    431a        .C      ORRS     r2,r2,r3
        0x00004f96:    9201        ..      STR      r2,[sp,#4]
        0x00004f98:    40c1        .@      LSRS     r1,r1,r0
        0x00004f9a:    9100        ..      STR      r1,[sp,#0]
        0x00004f9c:    117a        z.      ASRS     r2,r7,#5
        0x00004f9e:    d00b        ..      BEQ      0x4fb8 ; btod_internal_mul + 312
        0x00004fa0:    466b        kF      MOV      r3,sp
        0x00004fa2:    2003        .       MOVS     r0,#3
        0x00004fa4:    1a81        ..      SUBS     r1,r0,r2
        0x00004fa6:    d501        ..      BPL      0x4fac ; btod_internal_mul + 300
        0x00004fa8:    2100        .!      MOVS     r1,#0
        0x00004faa:    e001        ..      B        0x4fb0 ; btod_internal_mul + 304
        0x00004fac:    0089        ..      LSLS     r1,r1,#2
        0x00004fae:    5859        YX      LDR      r1,[r3,r1]
        0x00004fb0:    0087        ..      LSLS     r7,r0,#2
        0x00004fb2:    1e40        @.      SUBS     r0,r0,#1
        0x00004fb4:    51d9        .Q      STR      r1,[r3,r7]
        0x00004fb6:    d5f5        ..      BPL      0x4fa4 ; btod_internal_mul + 292
        0x00004fb8:    4637        7F      MOV      r7,r6
        0x00004fba:    9803        ..      LDR      r0,[sp,#0xc]
        0x00004fbc:    9902        ..      LDR      r1,[sp,#8]
        0x00004fbe:    2800        .(      CMP      r0,#0
        0x00004fc0:    d000        ..      BEQ      0x4fc4 ; btod_internal_mul + 324
        0x00004fc2:    2001        .       MOVS     r0,#1
        0x00004fc4:    4301        .C      ORRS     r1,r1,r0
        0x00004fc6:    9808        ..      LDR      r0,[sp,#0x20]
        0x00004fc8:    9102        ..      STR      r1,[sp,#8]
        0x00004fca:    2800        .(      CMP      r0,#0
        0x00004fcc:    4608        .F      MOV      r0,r1
        0x00004fce:    d00c        ..      BEQ      0x4fea ; btod_internal_mul + 362
        0x00004fd0:    2800        .(      CMP      r0,#0
        0x00004fd2:    d000        ..      BEQ      0x4fd6 ; btod_internal_mul + 342
        0x00004fd4:    2001        .       MOVS     r0,#1
        0x00004fd6:    9901        ..      LDR      r1,[sp,#4]
        0x00004fd8:    9a01        ..      LDR      r2,[sp,#4]
        0x00004fda:    0549        I.      LSLS     r1,r1,#21
        0x00004fdc:    4308        .C      ORRS     r0,r0,r1
        0x00004fde:    2101        .!      MOVS     r1,#1
        0x00004fe0:    0ad2        ..      LSRS     r2,r2,#11
        0x00004fe2:    02c9        ..      LSLS     r1,r1,#11
        0x00004fe4:    02d2        ..      LSLS     r2,r2,#11
        0x00004fe6:    9201        ..      STR      r2,[sp,#4]
        0x00004fe8:    e000        ..      B        0x4fec ; btod_internal_mul + 364
        0x00004fea:    2101        .!      MOVS     r1,#1
        0x00004fec:    9b0e        ..      LDR      r3,[sp,#0x38]
        0x00004fee:    2201        ."      MOVS     r2,#1
        0x00004ff0:    07d2        ..      LSLS     r2,r2,#31
        0x00004ff2:    2b01        .+      CMP      r3,#1
        0x00004ff4:    d002        ..      BEQ      0x4ffc ; btod_internal_mul + 380
        0x00004ff6:    2b00        .+      CMP      r3,#0
        0x00004ff8:    d003        ..      BEQ      0x5002 ; btod_internal_mul + 386
        0x00004ffa:    e013        ..      B        0x5024 ; btod_internal_mul + 420
        0x00004ffc:    2800        .(      CMP      r0,#0
        0x00004ffe:    d107        ..      BNE      0x5010 ; btod_internal_mul + 400
        0x00005000:    e016        ..      B        0x5030 ; btod_internal_mul + 432
        0x00005002:    4290        .B      CMP      r0,r2
        0x00005004:    d804        ..      BHI      0x5010 ; btod_internal_mul + 400
        0x00005006:    4290        .B      CMP      r0,r2
        0x00005008:    d10c        ..      BNE      0x5024 ; btod_internal_mul + 420
        0x0000500a:    9b01        ..      LDR      r3,[sp,#4]
        0x0000500c:    420b        .B      TST      r3,r1
        0x0000500e:    d009        ..      BEQ      0x5024 ; btod_internal_mul + 420
        0x00005010:    9b01        ..      LDR      r3,[sp,#4]
        0x00005012:    1859        Y.      ADDS     r1,r3,r1
        0x00005014:    9101        ..      STR      r1,[sp,#4]
        0x00005016:    d105        ..      BNE      0x5024 ; btod_internal_mul + 420
        0x00005018:    9900        ..      LDR      r1,[sp,#0]
        0x0000501a:    1c49        I.      ADDS     r1,r1,#1
        0x0000501c:    9100        ..      STR      r1,[sp,#0]
        0x0000501e:    d101        ..      BNE      0x5024 ; btod_internal_mul + 420
        0x00005020:    1c7f        ..      ADDS     r7,r7,#1
        0x00005022:    9200        ..      STR      r2,[sp,#0]
        0x00005024:    2800        .(      CMP      r0,#0
        0x00005026:    d003        ..      BEQ      0x5030 ; btod_internal_mul + 432
        0x00005028:    2110        .!      MOVS     r1,#0x10
        0x0000502a:    4608        .F      MOV      r0,r1
        0x0000502c:    2000        .       MOVS     r0,#0
        0x0000502e:    46c0        .F      MOV      r8,r8
        0x00005030:    6828        (h      LDR      r0,[r5,#0]
        0x00005032:    6821        !h      LDR      r1,[r4,#0]
        0x00005034:    9b01        ..      LDR      r3,[sp,#4]
        0x00005036:    9a00        ..      LDR      r2,[sp,#0]
        0x00005038:    4048        H@      EORS     r0,r0,r1
        0x0000503a:    0fc1        ..      LSRS     r1,r0,#31
        0x0000503c:    9805        ..      LDR      r0,[sp,#0x14]
        0x0000503e:    07c9        ..      LSLS     r1,r1,#31
        0x00005040:    4339        9C      ORRS     r1,r1,r7
        0x00005042:    c00e        ..      STM      r0!,{r1-r3}
        0x00005044:    b009        ..      ADD      sp,sp,#0x24
        0x00005046:    bdf0        ..      POP      {r4-r7,pc}
    btod_internal_div
        0x00005048:    b5ff        ..      PUSH     {r0-r7,lr}
        0x0000504a:    b087        ..      SUB      sp,sp,#0x1c
        0x0000504c:    9a09        ..      LDR      r2,[sp,#0x24]
        0x0000504e:    9808        ..      LDR      r0,[sp,#0x20]
        0x00005050:    9908        ..      LDR      r1,[sp,#0x20]
        0x00005052:    6853        Sh      LDR      r3,[r2,#4]
        0x00005054:    6892        .h      LDR      r2,[r2,#8]
        0x00005056:    6840        @h      LDR      r0,[r0,#4]
        0x00005058:    6889        .h      LDR      r1,[r1,#8]
        0x0000505a:    4696        .F      MOV      lr,r2
        0x0000505c:    2200        ."      MOVS     r2,#0
        0x0000505e:    9303        ..      STR      r3,[sp,#0xc]
        0x00005060:    4617        .F      MOV      r7,r2
        0x00005062:    4694        .F      MOV      r12,r2
        0x00005064:    9a08        ..      LDR      r2,[sp,#0x20]
        0x00005066:    6812        .h      LDR      r2,[r2,#0]
        0x00005068:    0053        S.      LSLS     r3,r2,#1
        0x0000506a:    9a09        ..      LDR      r2,[sp,#0x24]
        0x0000506c:    085b        [.      LSRS     r3,r3,#1
        0x0000506e:    6812        .h      LDR      r2,[r2,#0]
        0x00005070:    0052        R.      LSLS     r2,r2,#1
        0x00005072:    0852        R.      LSRS     r2,r2,#1
        0x00005074:    1a9a        ..      SUBS     r2,r3,r2
        0x00005076:    4b9b        .K      LDR      r3,[pc,#620] ; [0x52e4] = 0x3fff
        0x00005078:    18d4        ..      ADDS     r4,r2,r3
        0x0000507a:    9a0a        ..      LDR      r2,[sp,#0x28]
        0x0000507c:    2a00        .*      CMP      r2,#0
        0x0000507e:    d001        ..      BEQ      0x5084 ; btod_internal_div + 60
        0x00005080:    2235        5"      MOVS     r2,#0x35
        0x00005082:    e000        ..      B        0x5086 ; btod_internal_div + 62
        0x00005084:    2240        @"      MOVS     r2,#0x40
        0x00005086:    9206        ..      STR      r2,[sp,#0x18]
        0x00005088:    2200        ."      MOVS     r2,#0
        0x0000508a:    2301        .#      MOVS     r3,#1
        0x0000508c:    4615        .F      MOV      r5,r2
        0x0000508e:    9204        ..      STR      r2,[sp,#0x10]
        0x00005090:    07db        ..      LSLS     r3,r3,#31
        0x00005092:    9305        ..      STR      r3,[sp,#0x14]
        0x00005094:    e024        $.      B        0x50e0 ; btod_internal_div + 152
        0x00005096:    2d00        .-      CMP      r5,#0
        0x00005098:    d105        ..      BNE      0x50a6 ; btod_internal_div + 94
        0x0000509a:    4675        uF      MOV      r5,lr
        0x0000509c:    4603        .F      MOV      r3,r0
        0x0000509e:    9e03        ..      LDR      r6,[sp,#0xc]
        0x000050a0:    1b4d        M.      SUBS     r5,r1,r5
        0x000050a2:    41b3        .A      SBCS     r3,r3,r6
        0x000050a4:    d309        ..      BCC      0x50ba ; btod_internal_div + 114
        0x000050a6:    4675        uF      MOV      r5,lr
        0x000050a8:    4666        fF      MOV      r6,r12
        0x000050aa:    9b03        ..      LDR      r3,[sp,#0xc]
        0x000050ac:    1b49        I.      SUBS     r1,r1,r5
        0x000050ae:    9d04        ..      LDR      r5,[sp,#0x10]
        0x000050b0:    4198        .A      SBCS     r0,r0,r3
        0x000050b2:    9b05        ..      LDR      r3,[sp,#0x14]
        0x000050b4:    1975        u.      ADDS     r5,r6,r5
        0x000050b6:    46ac        .F      MOV      r12,r5
        0x000050b8:    415f        _A      ADCS     r7,r7,r3
        0x000050ba:    4663        cF      MOV      r3,r12
        0x000050bc:    433b        ;C      ORRS     r3,r3,r7
        0x000050be:    d008        ..      BEQ      0x50d2 ; btod_internal_div + 138
        0x000050c0:    9b05        ..      LDR      r3,[sp,#0x14]
        0x000050c2:    9e04        ..      LDR      r6,[sp,#0x10]
        0x000050c4:    07dd        ..      LSLS     r5,r3,#31
        0x000050c6:    0876        v.      LSRS     r6,r6,#1
        0x000050c8:    432e        .C      ORRS     r6,r6,r5
        0x000050ca:    085b        [.      LSRS     r3,r3,#1
        0x000050cc:    9604        ..      STR      r6,[sp,#0x10]
        0x000050ce:    9305        ..      STR      r3,[sp,#0x14]
        0x000050d0:    e001        ..      B        0x50d6 ; btod_internal_div + 142
        0x000050d2:    1e64        d.      SUBS     r4,r4,#1
        0x000050d4:    1e52        R.      SUBS     r2,r2,#1
        0x000050d6:    0fc5        ..      LSRS     r5,r0,#31
        0x000050d8:    07ed        ..      LSLS     r5,r5,#31
        0x000050da:    1849        I.      ADDS     r1,r1,r1
        0x000050dc:    4140        @A      ADCS     r0,r0,r0
        0x000050de:    1c52        R.      ADDS     r2,r2,#1
        0x000050e0:    9b06        ..      LDR      r3,[sp,#0x18]
        0x000050e2:    429a        .B      CMP      r2,r3
        0x000050e4:    dbd7        ..      BLT      0x5096 ; btod_internal_div + 78
        0x000050e6:    2d00        .-      CMP      r5,#0
        0x000050e8:    d104        ..      BNE      0x50f4 ; btod_internal_div + 172
        0x000050ea:    4675        uF      MOV      r5,lr
        0x000050ec:    9a03        ..      LDR      r2,[sp,#0xc]
        0x000050ee:    1a6b        k.      SUBS     r3,r5,r1
        0x000050f0:    4182        .A      SBCS     r2,r2,r0
        0x000050f2:    d201        ..      BCS      0x50f8 ; btod_internal_div + 176
        0x000050f4:    2003        .       MOVS     r0,#3
        0x000050f6:    e00c        ..      B        0x5112 ; btod_internal_div + 202
        0x000050f8:    9a03        ..      LDR      r2,[sp,#0xc]
        0x000050fa:    460b        .F      MOV      r3,r1
        0x000050fc:    406b        k@      EORS     r3,r3,r5
        0x000050fe:    4042        B@      EORS     r2,r2,r0
        0x00005100:    4313        .C      ORRS     r3,r3,r2
        0x00005102:    d101        ..      BNE      0x5108 ; btod_internal_div + 192
        0x00005104:    2002        .       MOVS     r0,#2
        0x00005106:    e004        ..      B        0x5112 ; btod_internal_div + 202
        0x00005108:    4301        .C      ORRS     r1,r1,r0
        0x0000510a:    d001        ..      BEQ      0x5110 ; btod_internal_div + 200
        0x0000510c:    2001        .       MOVS     r0,#1
        0x0000510e:    e000        ..      B        0x5112 ; btod_internal_div + 202
        0x00005110:    2000        .       MOVS     r0,#0
        0x00005112:    4661        aF      MOV      r1,r12
        0x00005114:    9101        ..      STR      r1,[sp,#4]
        0x00005116:    2100        .!      MOVS     r1,#0
        0x00005118:    9700        ..      STR      r7,[sp,#0]
        0x0000511a:    9102        ..      STR      r1,[sp,#8]
        0x0000511c:    990a        ..      LDR      r1,[sp,#0x28]
        0x0000511e:    2900        .)      CMP      r1,#0
        0x00005120:    d005        ..      BEQ      0x512e ; btod_internal_div + 230
        0x00005122:    4661        aF      MOV      r1,r12
        0x00005124:    0240        @.      LSLS     r0,r0,#9
        0x00005126:    4301        .C      ORRS     r1,r1,r0
        0x00005128:    4b6d        mK      LDR      r3,[pc,#436] ; [0x52e0] = 0x3c01
        0x0000512a:    9101        ..      STR      r1,[sp,#4]
        0x0000512c:    e002        ..      B        0x5134 ; btod_internal_div + 236
        0x0000512e:    0780        ..      LSLS     r0,r0,#30
        0x00005130:    2300        .#      MOVS     r3,#0
        0x00005132:    9002        ..      STR      r0,[sp,#8]
        0x00005134:    429c        .B      CMP      r4,r3
        0x00005136:    da3a        :.      BGE      0x51ae ; btod_internal_div + 358
        0x00005138:    1b1a        ..      SUBS     r2,r3,r4
        0x0000513a:    06d0        ..      LSLS     r0,r2,#27
        0x0000513c:    0ec0        ..      LSRS     r0,r0,#27
        0x0000513e:    d015        ..      BEQ      0x516c ; btod_internal_div + 292
        0x00005140:    9d02        ..      LDR      r5,[sp,#8]
        0x00005142:    2120         !      MOVS     r1,#0x20
        0x00005144:    9c01        ..      LDR      r4,[sp,#4]
        0x00005146:    1a09        ..      SUBS     r1,r1,r0
        0x00005148:    40c5        .@      LSRS     r5,r5,r0
        0x0000514a:    408c        .@      LSLS     r4,r4,r1
        0x0000514c:    4325        %C      ORRS     r5,r5,r4
        0x0000514e:    9c02        ..      LDR      r4,[sp,#8]
        0x00005150:    408c        .@      LSLS     r4,r4,r1
        0x00005152:    d000        ..      BEQ      0x5156 ; btod_internal_div + 270
        0x00005154:    2401        .$      MOVS     r4,#1
        0x00005156:    4325        %C      ORRS     r5,r5,r4
        0x00005158:    9c01        ..      LDR      r4,[sp,#4]
        0x0000515a:    9502        ..      STR      r5,[sp,#8]
        0x0000515c:    463d        =F      MOV      r5,r7
        0x0000515e:    40c4        .@      LSRS     r4,r4,r0
        0x00005160:    408d        .@      LSLS     r5,r5,r1
        0x00005162:    4639        9F      MOV      r1,r7
        0x00005164:    432c        ,C      ORRS     r4,r4,r5
        0x00005166:    40c1        .@      LSRS     r1,r1,r0
        0x00005168:    9401        ..      STR      r4,[sp,#4]
        0x0000516a:    9100        ..      STR      r1,[sp,#0]
        0x0000516c:    1154        T.      ASRS     r4,r2,#5
        0x0000516e:    d01d        ..      BEQ      0x51ac ; btod_internal_div + 356
        0x00005170:    466d        mF      MOV      r5,sp
        0x00005172:    2102        .!      MOVS     r1,#2
        0x00005174:    2200        ."      MOVS     r2,#0
        0x00005176:    2902        .)      CMP      r1,#2
        0x00005178:    d10c        ..      BNE      0x5194 ; btod_internal_div + 332
        0x0000517a:    2003        .       MOVS     r0,#3
        0x0000517c:    1b00        ..      SUBS     r0,r0,r4
        0x0000517e:    e007        ..      B        0x5190 ; btod_internal_div + 328
        0x00005180:    2800        .(      CMP      r0,#0
        0x00005182:    db04        ..      BLT      0x518e ; btod_internal_div + 326
        0x00005184:    0086        ..      LSLS     r6,r0,#2
        0x00005186:    59ae        .Y      LDR      r6,[r5,r6]
        0x00005188:    2e00        ..      CMP      r6,#0
        0x0000518a:    d000        ..      BEQ      0x518e ; btod_internal_div + 326
        0x0000518c:    2201        ."      MOVS     r2,#1
        0x0000518e:    1c40        @.      ADDS     r0,r0,#1
        0x00005190:    2803        .(      CMP      r0,#3
        0x00005192:    dbf5        ..      BLT      0x5180 ; btod_internal_div + 312
        0x00005194:    1b08        ..      SUBS     r0,r1,r4
        0x00005196:    d502        ..      BPL      0x519e ; btod_internal_div + 342
        0x00005198:    0088        ..      LSLS     r0,r1,#2
        0x0000519a:    502a        *P      STR      r2,[r5,r0]
        0x0000519c:    e004        ..      B        0x51a8 ; btod_internal_div + 352
        0x0000519e:    0080        ..      LSLS     r0,r0,#2
        0x000051a0:    5828        (X      LDR      r0,[r5,r0]
        0x000051a2:    4310        .C      ORRS     r0,r0,r2
        0x000051a4:    008a        ..      LSLS     r2,r1,#2
        0x000051a6:    50a8        .P      STR      r0,[r5,r2]
        0x000051a8:    1e49        I.      SUBS     r1,r1,#1
        0x000051aa:    d5e3        ..      BPL      0x5174 ; btod_internal_div + 300
        0x000051ac:    461c        .F      MOV      r4,r3
        0x000051ae:    980a        ..      LDR      r0,[sp,#0x28]
        0x000051b0:    2800        .(      CMP      r0,#0
        0x000051b2:    9802        ..      LDR      r0,[sp,#8]
        0x000051b4:    d00c        ..      BEQ      0x51d0 ; btod_internal_div + 392
        0x000051b6:    2800        .(      CMP      r0,#0
        0x000051b8:    d000        ..      BEQ      0x51bc ; btod_internal_div + 372
        0x000051ba:    2001        .       MOVS     r0,#1
        0x000051bc:    9901        ..      LDR      r1,[sp,#4]
        0x000051be:    9a01        ..      LDR      r2,[sp,#4]
        0x000051c0:    0549        I.      LSLS     r1,r1,#21
        0x000051c2:    4308        .C      ORRS     r0,r0,r1
        0x000051c4:    2101        .!      MOVS     r1,#1
        0x000051c6:    0ad2        ..      LSRS     r2,r2,#11
        0x000051c8:    02c9        ..      LSLS     r1,r1,#11
        0x000051ca:    02d2        ..      LSLS     r2,r2,#11
        0x000051cc:    9201        ..      STR      r2,[sp,#4]
        0x000051ce:    e000        ..      B        0x51d2 ; btod_internal_div + 394
        0x000051d0:    2101        .!      MOVS     r1,#1
        0x000051d2:    9b10        ..      LDR      r3,[sp,#0x40]
        0x000051d4:    2201        ."      MOVS     r2,#1
        0x000051d6:    07d2        ..      LSLS     r2,r2,#31
        0x000051d8:    2b01        .+      CMP      r3,#1
        0x000051da:    d002        ..      BEQ      0x51e2 ; btod_internal_div + 410
        0x000051dc:    2b00        .+      CMP      r3,#0
        0x000051de:    d003        ..      BEQ      0x51e8 ; btod_internal_div + 416
        0x000051e0:    e013        ..      B        0x520a ; btod_internal_div + 450
        0x000051e2:    2800        .(      CMP      r0,#0
        0x000051e4:    d107        ..      BNE      0x51f6 ; btod_internal_div + 430
        0x000051e6:    e016        ..      B        0x5216 ; btod_internal_div + 462
        0x000051e8:    4290        .B      CMP      r0,r2
        0x000051ea:    d804        ..      BHI      0x51f6 ; btod_internal_div + 430
        0x000051ec:    4290        .B      CMP      r0,r2
        0x000051ee:    d10c        ..      BNE      0x520a ; btod_internal_div + 450
        0x000051f0:    9b01        ..      LDR      r3,[sp,#4]
        0x000051f2:    420b        .B      TST      r3,r1
        0x000051f4:    d009        ..      BEQ      0x520a ; btod_internal_div + 450
        0x000051f6:    9b01        ..      LDR      r3,[sp,#4]
        0x000051f8:    1859        Y.      ADDS     r1,r3,r1
        0x000051fa:    9101        ..      STR      r1,[sp,#4]
        0x000051fc:    d105        ..      BNE      0x520a ; btod_internal_div + 450
        0x000051fe:    9900        ..      LDR      r1,[sp,#0]
        0x00005200:    1c49        I.      ADDS     r1,r1,#1
        0x00005202:    9100        ..      STR      r1,[sp,#0]
        0x00005204:    d101        ..      BNE      0x520a ; btod_internal_div + 450
        0x00005206:    1c64        d.      ADDS     r4,r4,#1
        0x00005208:    9200        ..      STR      r2,[sp,#0]
        0x0000520a:    2800        .(      CMP      r0,#0
        0x0000520c:    d003        ..      BEQ      0x5216 ; btod_internal_div + 462
        0x0000520e:    2110        .!      MOVS     r1,#0x10
        0x00005210:    4608        .F      MOV      r0,r1
        0x00005212:    2000        .       MOVS     r0,#0
        0x00005214:    46c0        .F      MOV      r8,r8
        0x00005216:    9808        ..      LDR      r0,[sp,#0x20]
        0x00005218:    9909        ..      LDR      r1,[sp,#0x24]
        0x0000521a:    9a01        ..      LDR      r2,[sp,#4]
        0x0000521c:    6800        .h      LDR      r0,[r0,#0]
        0x0000521e:    6809        .h      LDR      r1,[r1,#0]
        0x00005220:    4048        H@      EORS     r0,r0,r1
        0x00005222:    9900        ..      LDR      r1,[sp,#0]
        0x00005224:    0fc3        ..      LSRS     r3,r0,#31
        0x00005226:    9807        ..      LDR      r0,[sp,#0x1c]
        0x00005228:    07db        ..      LSLS     r3,r3,#31
        0x0000522a:    4323        #C      ORRS     r3,r3,r4
        0x0000522c:    6003        .`      STR      r3,[r0,#0]
        0x0000522e:    6082        .`      STR      r2,[r0,#8]
        0x00005230:    6041        A`      STR      r1,[r0,#4]
        0x00005232:    b00b        ..      ADD      sp,sp,#0x2c
        0x00005234:    bdf0        ..      POP      {r4-r7,pc}
    _btod_emul
        0x00005236:    b51f        ..      PUSH     {r0-r4,lr}
        0x00005238:    2300        .#      MOVS     r3,#0
        0x0000523a:    9200        ..      STR      r2,[sp,#0]
        0x0000523c:    460a        .F      MOV      r2,r1
        0x0000523e:    4601        .F      MOV      r1,r0
        0x00005240:    a801        ..      ADD      r0,sp,#4
        0x00005242:    f7fffe1d    ....    BL       btod_internal_mul ; 0x4e80
        0x00005246:    a801        ..      ADD      r0,sp,#4
        0x00005248:    c807        ..      LDM      r0,{r0-r2}
        0x0000524a:    b004        ..      ADD      sp,sp,#0x10
        0x0000524c:    bd10        ..      POP      {r4,pc}
    _btod_emuld
        0x0000524e:    b51f        ..      PUSH     {r0-r4,lr}
        0x00005250:    2301        .#      MOVS     r3,#1
        0x00005252:    9200        ..      STR      r2,[sp,#0]
        0x00005254:    460a        .F      MOV      r2,r1
        0x00005256:    4601        .F      MOV      r1,r0
        0x00005258:    a801        ..      ADD      r0,sp,#4
        0x0000525a:    f7fffe11    ....    BL       btod_internal_mul ; 0x4e80
        0x0000525e:    a801        ..      ADD      r0,sp,#4
        0x00005260:    240f        .$      MOVS     r4,#0xf
        0x00005262:    c807        ..      LDM      r0,{r0-r2}
        0x00005264:    02a4        ..      LSLS     r4,r4,#10
        0x00005266:    0fc3        ..      LSRS     r3,r0,#31
        0x00005268:    0040        @.      LSLS     r0,r0,#1
        0x0000526a:    07db        ..      LSLS     r3,r3,#31
        0x0000526c:    0840        @.      LSRS     r0,r0,#1
        0x0000526e:    1b00        ..      SUBS     r0,r0,r4
        0x00005270:    2900        .)      CMP      r1,#0
        0x00005272:    db00        ..      BLT      0x5276 ; _btod_emuld + 40
        0x00005274:    2000        .       MOVS     r0,#0
        0x00005276:    0049        I.      LSLS     r1,r1,#1
        0x00005278:    0500        ..      LSLS     r0,r0,#20
        0x0000527a:    0849        I.      LSRS     r1,r1,#1
        0x0000527c:    0acc        ..      LSRS     r4,r1,#11
        0x0000527e:    4320         C      ORRS     r0,r0,r4
        0x00005280:    0549        I.      LSLS     r1,r1,#21
        0x00005282:    4318        .C      ORRS     r0,r0,r3
        0x00005284:    0ad2        ..      LSRS     r2,r2,#11
        0x00005286:    4311        .C      ORRS     r1,r1,r2
        0x00005288:    e7df        ..      B        0x524a ; _btod_emul + 20
    _btod_ediv
        0x0000528a:    b51f        ..      PUSH     {r0-r4,lr}
        0x0000528c:    2300        .#      MOVS     r3,#0
        0x0000528e:    9200        ..      STR      r2,[sp,#0]
        0x00005290:    460a        .F      MOV      r2,r1
        0x00005292:    4601        .F      MOV      r1,r0
        0x00005294:    a801        ..      ADD      r0,sp,#4
        0x00005296:    f7fffed7    ....    BL       btod_internal_div ; 0x5048
        0x0000529a:    a801        ..      ADD      r0,sp,#4
        0x0000529c:    c807        ..      LDM      r0,{r0-r2}
        0x0000529e:    e7d4        ..      B        0x524a ; _btod_emul + 20
    _btod_edivd
        0x000052a0:    b51f        ..      PUSH     {r0-r4,lr}
        0x000052a2:    2301        .#      MOVS     r3,#1
        0x000052a4:    9200        ..      STR      r2,[sp,#0]
        0x000052a6:    460a        .F      MOV      r2,r1
        0x000052a8:    4601        .F      MOV      r1,r0
        0x000052aa:    a801        ..      ADD      r0,sp,#4
        0x000052ac:    f7fffecc    ....    BL       btod_internal_div ; 0x5048
        0x000052b0:    a801        ..      ADD      r0,sp,#4
        0x000052b2:    240f        .$      MOVS     r4,#0xf
        0x000052b4:    c807        ..      LDM      r0,{r0-r2}
        0x000052b6:    02a4        ..      LSLS     r4,r4,#10
        0x000052b8:    0fc3        ..      LSRS     r3,r0,#31
        0x000052ba:    0040        @.      LSLS     r0,r0,#1
        0x000052bc:    07db        ..      LSLS     r3,r3,#31
        0x000052be:    0840        @.      LSRS     r0,r0,#1
        0x000052c0:    1b00        ..      SUBS     r0,r0,r4
        0x000052c2:    2900        .)      CMP      r1,#0
        0x000052c4:    db00        ..      BLT      0x52c8 ; _btod_edivd + 40
        0x000052c6:    2000        .       MOVS     r0,#0
        0x000052c8:    0049        I.      LSLS     r1,r1,#1
        0x000052ca:    0500        ..      LSLS     r0,r0,#20
        0x000052cc:    0849        I.      LSRS     r1,r1,#1
        0x000052ce:    0acc        ..      LSRS     r4,r1,#11
        0x000052d0:    4320         C      ORRS     r0,r0,r4
        0x000052d2:    0549        I.      LSLS     r1,r1,#21
        0x000052d4:    4318        .C      ORRS     r0,r0,r3
        0x000052d6:    0ad2        ..      LSRS     r2,r2,#11
        0x000052d8:    4311        .C      ORRS     r1,r1,r2
        0x000052da:    e7b6        ..      B        0x524a ; _btod_emul + 20
    $d
        0x000052dc:    ffffc002    ....    DCD    4294950914
        0x000052e0:    00003c01    .<..    DCD    15361
        0x000052e4:    00003fff    .?..    DCD    16383
    $t
    .text
    __fpl_cmpreturn
        0x000052e8:    02ca        ..      LSLS     r2,r1,#11
        0x000052ea:    d510        ..      BPL      0x530e ; __fpl_cmpreturn + 38
        0x000052ec:    034a        J.      LSLS     r2,r1,#13
        0x000052ee:    0f52        R.      LSRS     r2,r2,#29
        0x000052f0:    d004        ..      BEQ      0x52fc ; __fpl_cmpreturn + 20
        0x000052f2:    03c8        ..      LSLS     r0,r1,#15
        0x000052f4:    43c0        .C      MVNS     r0,r0
        0x000052f6:    2101        .!      MOVS     r1,#1
        0x000052f8:    4088        .@      LSLS     r0,r0,r1
        0x000052fa:    4770        pG      BX       lr
        0x000052fc:    4a05        .J      LDR      r2,[pc,#20] ; [0x5314] = 0x30000000
        0x000052fe:    f3ef8100    ....    MRS      r1,APSR ; formerly CPSR
        0x00005302:    0108        ..      LSLS     r0,r1,#4
        0x00005304:    0900        ..      LSRS     r0,r0,#4
        0x00005306:    4310        .C      ORRS     r0,r0,r2
        0x00005308:    f3808800    ....    MSR      APSR_nzcvq,r0 ; formerly CPSR_f
        0x0000530c:    4770        pG      BX       lr
        0x0000530e:    2000        .       MOVS     r0,#0
        0x00005310:    4770        pG      BX       lr
    $d
        0x00005312:    0000        ..      DCW    0
        0x00005314:    30000000    ...0    DCD    805306368
    $t
    .text
    __aeabi_d2iz
    _dfix
        0x00005318:    b530        0.      PUSH     {r4,r5,lr}
        0x0000531a:    4603        .F      MOV      r3,r0
        0x0000531c:    02ca        ..      LSLS     r2,r1,#11
        0x0000531e:    0d40        @.      LSRS     r0,r0,#21
        0x00005320:    4310        .C      ORRS     r0,r0,r2
        0x00005322:    4d15        .M      LDR      r5,[pc,#84] ; [0x5378] = 0x41e
        0x00005324:    4c15        .L      LDR      r4,[pc,#84] ; [0x537c] = 0x80000000
        0x00005326:    150a        ..      ASRS     r2,r1,#20
        0x00005328:    d002        ..      BEQ      0x5330 ; __aeabi_d2iz + 24
        0x0000532a:    4320         C      ORRS     r0,r0,r4
        0x0000532c:    2a00        .*      CMP      r2,#0
        0x0000532e:    db06        ..      BLT      0x533e ; __aeabi_d2iz + 38
        0x00005330:    1aaa        ..      SUBS     r2,r5,r2
        0x00005332:    2a00        .*      CMP      r2,#0
        0x00005334:    dd12        ..      BLE      0x535c ; __aeabi_d2iz + 68
        0x00005336:    40d0        .@      LSRS     r0,r0,r2
        0x00005338:    2aff        .*      CMP      r2,#0xff
        0x0000533a:    dc0b        ..      BGT      0x5354 ; __aeabi_d2iz + 60
        0x0000533c:    bd30        0.      POP      {r4,r5,pc}
        0x0000533e:    0552        R.      LSLS     r2,r2,#21
        0x00005340:    0d52        R.      LSRS     r2,r2,#21
        0x00005342:    d101        ..      BNE      0x5348 ; __aeabi_d2iz + 48
        0x00005344:    0040        @.      LSLS     r0,r0,#1
        0x00005346:    0840        @.      LSRS     r0,r0,#1
        0x00005348:    1aaa        ..      SUBS     r2,r5,r2
        0x0000534a:    d407        ..      BMI      0x535c ; __aeabi_d2iz + 68
        0x0000534c:    40d0        .@      LSRS     r0,r0,r2
        0x0000534e:    4240        @B      RSBS     r0,r0,#0
        0x00005350:    2aff        .*      CMP      r2,#0xff
        0x00005352:    dd01        ..      BLE      0x5358 ; __aeabi_d2iz + 64
        0x00005354:    2000        .       MOVS     r0,#0
        0x00005356:    bd30        0.      POP      {r4,r5,pc}
        0x00005358:    2800        .(      CMP      r0,#0
        0x0000535a:    ddfc        ..      BLE      0x5356 ; __aeabi_d2iz + 62
        0x0000535c:    004a        J.      LSLS     r2,r1,#1
        0x0000535e:    2b00        .+      CMP      r3,#0
        0x00005360:    d001        ..      BEQ      0x5366 ; __aeabi_d2iz + 78
        0x00005362:    2001        .       MOVS     r0,#1
        0x00005364:    e000        ..      B        0x5368 ; __aeabi_d2iz + 80
        0x00005366:    2000        .       MOVS     r0,#0
        0x00005368:    1810        ..      ADDS     r0,r2,r0
        0x0000536a:    4a05        .J      LDR      r2,[pc,#20] ; [0x5380] = 0xffe00000
        0x0000536c:    4290        .B      CMP      r0,r2
        0x0000536e:    d8f1        ..      BHI      0x5354 ; __aeabi_d2iz + 60
        0x00005370:    17c8        ..      ASRS     r0,r1,#31
        0x00005372:    43c0        .C      MVNS     r0,r0
        0x00005374:    4060        `@      EORS     r0,r0,r4
        0x00005376:    bd30        0.      POP      {r4,r5,pc}
    $d
        0x00005378:    0000041e    ....    DCD    1054
        0x0000537c:    80000000    ....    DCD    2147483648
        0x00005380:    ffe00000    ....    DCD    4292870144
    $t
    .text
    __fpl_dcheck_NaN2
        0x00005384:    b510        ..      PUSH     {r4,lr}
        0x00005386:    2000        .       MOVS     r0,#0
        0x00005388:    4902        .I      LDR      r1,[pc,#8] ; [0x5394] = 0x7ff80000
        0x0000538a:    9a02        ..      LDR      r2,[sp,#8]
        0x0000538c:    f000f87a    ..z.    BL       __fpl_return_NaN ; 0x5484
        0x00005390:    bd10        ..      POP      {r4,pc}
    $d
        0x00005392:    0000        ..      DCW    0
        0x00005394:    7ff80000    ....    DCD    2146959360
    $t
    .text
    __fpl_fcheck_NaN2
        0x00005398:    b510        ..      PUSH     {r4,lr}
        0x0000539a:    4802        .H      LDR      r0,[pc,#8] ; [0x53a4] = 0x7fc00000
        0x0000539c:    f000f872    ..r.    BL       __fpl_return_NaN ; 0x5484
        0x000053a0:    bd10        ..      POP      {r4,pc}
    $d
        0x000053a2:    0000        ..      DCW    0
        0x000053a4:    7fc00000    ....    DCD    2143289344
    $t
    .text
    __user_libspace
    __user_perproc_libspace
    __user_perthread_libspace
        0x000053a8:    4800        .H      LDR      r0,[pc,#0] ; [0x53ac] = 0x200003c8
        0x000053aa:    4770        pG      BX       lr
    $d
        0x000053ac:    200003c8    ...     DCD    536871880
    $t
    .text
    __user_setup_stackheap
        0x000053b0:    4675        uF      MOV      r5,lr
        0x000053b2:    f7fffff9    ....    BL       __user_libspace ; 0x53a8
        0x000053b6:    46ae        .F      MOV      lr,r5
        0x000053b8:    0005        ..      MOVS     r5,r0
        0x000053ba:    4669        iF      MOV      r1,sp
        0x000053bc:    4653        SF      MOV      r3,r10
        0x000053be:    08c0        ..      LSRS     r0,r0,#3
        0x000053c0:    00c0        ..      LSLS     r0,r0,#3
        0x000053c2:    4685        .F      MOV      sp,r0
        0x000053c4:    b018        ..      ADD      sp,sp,#0x60
        0x000053c6:    b520         .      PUSH     {r5,lr}
        0x000053c8:    f7fbfe6a    ..j.    BL       __user_initial_stackheap ; 0x10a0
        0x000053cc:    bc60        `.      POP      {r5,r6}
        0x000053ce:    2700        .'      MOVS     r7,#0
        0x000053d0:    0849        I.      LSRS     r1,r1,#1
        0x000053d2:    46b6        .F      MOV      lr,r6
        0x000053d4:    2600        .&      MOVS     r6,#0
        0x000053d6:    c5c0        ..      STM      r5!,{r6,r7}
        0x000053d8:    c5c0        ..      STM      r5!,{r6,r7}
        0x000053da:    c5c0        ..      STM      r5!,{r6,r7}
        0x000053dc:    c5c0        ..      STM      r5!,{r6,r7}
        0x000053de:    c5c0        ..      STM      r5!,{r6,r7}
        0x000053e0:    c5c0        ..      STM      r5!,{r6,r7}
        0x000053e2:    c5c0        ..      STM      r5!,{r6,r7}
        0x000053e4:    c5c0        ..      STM      r5!,{r6,r7}
        0x000053e6:    3d40        @=      SUBS     r5,r5,#0x40
        0x000053e8:    0049        I.      LSLS     r1,r1,#1
        0x000053ea:    468d        .F      MOV      sp,r1
        0x000053ec:    4770        pG      BX       lr
    .text
    exit
        0x000053ee:    4604        .F      MOV      r4,r0
        0x000053f0:    46c0        .F      MOV      r8,r8
        0x000053f2:    46c0        .F      MOV      r8,r8
        0x000053f4:    4620         F      MOV      r0,r4
        0x000053f6:    f7fafeb7    ....    BL       __rt_exit ; 0x168
        0x000053fa:    0000        ..      MOVS     r0,r0
    .text
    strcmp
        0x000053fc:    4602        .F      MOV      r2,r0
        0x000053fe:    b570        p.      PUSH     {r4-r6,lr}
        0x00005400:    430a        .C      ORRS     r2,r2,r1
        0x00005402:    0792        ..      LSLS     r2,r2,#30
        0x00005404:    d12a        *.      BNE      0x545c ; strcmp + 96
        0x00005406:    4d1e        .M      LDR      r5,[pc,#120] ; [0x5480] = 0x1010101
        0x00005408:    01ee        ..      LSLS     r6,r5,#7
        0x0000540a:    c804        ..      LDM      r0!,{r2}
        0x0000540c:    c908        ..      LDM      r1!,{r3}
        0x0000540e:    1b54        T.      SUBS     r4,r2,r5
        0x00005410:    4394        .C      BICS     r4,r4,r2
        0x00005412:    4034        4@      ANDS     r4,r4,r6
        0x00005414:    d017        ..      BEQ      0x5446 ; strcmp + 74
        0x00005416:    b2d0        ..      UXTB     r0,r2
        0x00005418:    b2d9        ..      UXTB     r1,r3
        0x0000541a:    1a40        @.      SUBS     r0,r0,r1
        0x0000541c:    0621        !.      LSLS     r1,r4,#24
        0x0000541e:    4301        .C      ORRS     r1,r1,r0
        0x00005420:    d110        ..      BNE      0x5444 ; strcmp + 72
        0x00005422:    b290        ..      UXTH     r0,r2
        0x00005424:    b299        ..      UXTH     r1,r3
        0x00005426:    1a40        @.      SUBS     r0,r0,r1
        0x00005428:    0421        !.      LSLS     r1,r4,#16
        0x0000542a:    4301        .C      ORRS     r1,r1,r0
        0x0000542c:    d10a        ..      BNE      0x5444 ; strcmp + 72
        0x0000542e:    0210        ..      LSLS     r0,r2,#8
        0x00005430:    0219        ..      LSLS     r1,r3,#8
        0x00005432:    0a00        ..      LSRS     r0,r0,#8
        0x00005434:    0a09        ..      LSRS     r1,r1,#8
        0x00005436:    1a40        @.      SUBS     r0,r0,r1
        0x00005438:    0221        !.      LSLS     r1,r4,#8
        0x0000543a:    4301        .C      ORRS     r1,r1,r0
        0x0000543c:    d102        ..      BNE      0x5444 ; strcmp + 72
        0x0000543e:    0e10        ..      LSRS     r0,r2,#24
        0x00005440:    0e19        ..      LSRS     r1,r3,#24
        0x00005442:    1a40        @.      SUBS     r0,r0,r1
        0x00005444:    bd70        p.      POP      {r4-r6,pc}
        0x00005446:    429a        .B      CMP      r2,r3
        0x00005448:    d0df        ..      BEQ      0x540a ; strcmp + 14
        0x0000544a:    ba10        ..      REV      r0,r2
        0x0000544c:    ba19        ..      REV      r1,r3
        0x0000544e:    4288        .B      CMP      r0,r1
        0x00005450:    d901        ..      BLS      0x5456 ; strcmp + 90
        0x00005452:    2001        .       MOVS     r0,#1
        0x00005454:    bd70        p.      POP      {r4-r6,pc}
        0x00005456:    2000        .       MOVS     r0,#0
        0x00005458:    43c0        .C      MVNS     r0,r0
        0x0000545a:    bd70        p.      POP      {r4-r6,pc}
        0x0000545c:    7802        .x      LDRB     r2,[r0,#0]
        0x0000545e:    780b        .x      LDRB     r3,[r1,#0]
        0x00005460:    1c40        @.      ADDS     r0,r0,#1
        0x00005462:    1c49        I.      ADDS     r1,r1,#1
        0x00005464:    2a00        .*      CMP      r2,#0
        0x00005466:    d009        ..      BEQ      0x547c ; strcmp + 128
        0x00005468:    429a        .B      CMP      r2,r3
        0x0000546a:    d107        ..      BNE      0x547c ; strcmp + 128
        0x0000546c:    7802        .x      LDRB     r2,[r0,#0]
        0x0000546e:    780b        .x      LDRB     r3,[r1,#0]
        0x00005470:    1c40        @.      ADDS     r0,r0,#1
        0x00005472:    1c49        I.      ADDS     r1,r1,#1
        0x00005474:    2a00        .*      CMP      r2,#0
        0x00005476:    d001        ..      BEQ      0x547c ; strcmp + 128
        0x00005478:    429a        .B      CMP      r2,r3
        0x0000547a:    d0ef        ..      BEQ      0x545c ; strcmp + 96
        0x0000547c:    1ad0        ..      SUBS     r0,r2,r3
        0x0000547e:    bd70        p.      POP      {r4-r6,pc}
    $d
        0x00005480:    01010101    ....    DCD    16843009
    $t
    .text
    __fpl_return_NaN
        0x00005484:    b510        ..      PUSH     {r4,lr}
        0x00005486:    460c        .F      MOV      r4,r1
        0x00005488:    0711        ..      LSLS     r1,r2,#28
        0x0000548a:    0f09        ..      LSRS     r1,r1,#28
        0x0000548c:    2909        .)      CMP      r1,#9
        0x0000548e:    d004        ..      BEQ      0x549a ; __fpl_return_NaN + 22
        0x00005490:    290a        .)      CMP      r1,#0xa
        0x00005492:    d00a        ..      BEQ      0x54aa ; __fpl_return_NaN + 38
        0x00005494:    2908        .)      CMP      r1,#8
        0x00005496:    d10c        ..      BNE      0x54b2 ; __fpl_return_NaN + 46
        0x00005498:    e004        ..      B        0x54a4 ; __fpl_return_NaN + 32
        0x0000549a:    4611        .F      MOV      r1,r2
        0x0000549c:    2008        .       MOVS     r0,#8
        0x0000549e:    f7ffff23    ..#.    BL       __fpl_cmpreturn ; 0x52e8
        0x000054a2:    e006        ..      B        0x54b2 ; __fpl_return_NaN + 46
        0x000054a4:    0651        Q.      LSLS     r1,r2,#25
        0x000054a6:    d506        ..      BPL      0x54b6 ; __fpl_return_NaN + 50
        0x000054a8:    e001        ..      B        0x54ae ; __fpl_return_NaN + 42
        0x000054aa:    0651        Q.      LSLS     r1,r2,#25
        0x000054ac:    d501        ..      BPL      0x54b2 ; __fpl_return_NaN + 46
        0x000054ae:    2001        .       MOVS     r0,#1
        0x000054b0:    07c0        ..      LSLS     r0,r0,#31
        0x000054b2:    4621        !F      MOV      r1,r4
        0x000054b4:    bd10        ..      POP      {r4,pc}
        0x000054b6:    06d1        ..      LSLS     r1,r2,#27
        0x000054b8:    d507        ..      BPL      0x54ca ; __fpl_return_NaN + 70
        0x000054ba:    0101        ..      LSLS     r1,r0,#4
        0x000054bc:    0909        ..      LSRS     r1,r1,#4
        0x000054be:    08cc        ..      LSRS     r4,r1,#3
        0x000054c0:    0749        I.      LSLS     r1,r1,#29
        0x000054c2:    0e00        ..      LSRS     r0,r0,#24
        0x000054c4:    0600        ..      LSLS     r0,r0,#24
        0x000054c6:    4304        .C      ORRS     r4,r4,r0
        0x000054c8:    e009        ..      B        0x54de ; __fpl_return_NaN + 90
        0x000054ca:    0f41        A.      LSRS     r1,r0,#29
        0x000054cc:    0220         .      LSLS     r0,r4,#8
        0x000054ce:    0749        I.      LSLS     r1,r1,#29
        0x000054d0:    0a00        ..      LSRS     r0,r0,#8
        0x000054d2:    4301        .C      ORRS     r1,r1,r0
        0x000054d4:    0e20         .      LSRS     r0,r4,#24
        0x000054d6:    0600        ..      LSLS     r0,r0,#24
        0x000054d8:    221d        ."      MOVS     r2,#0x1d
        0x000054da:    41d1        .A      RORS     r1,r1,r2
        0x000054dc:    4301        .C      ORRS     r1,r1,r0
        0x000054de:    4608        .F      MOV      r0,r1
        0x000054e0:    e7e7        ..      B        0x54b2 ; __fpl_return_NaN + 46
        0x000054e2:    0000        ..      MOVS     r0,r0
    .text
    _sys_exit
        0x000054e4:    4901        .I      LDR      r1,[pc,#4] ; [0x54ec] = 0x20026
        0x000054e6:    2018        .       MOVS     r0,#0x18
        0x000054e8:    beab        ..      BKPT     #0xab
        0x000054ea:    e7fe        ..      B        0x54ea ; _sys_exit + 6
    $d
        0x000054ec:    00020026    &...    DCD    131110
    $t
    .text
    __I$use$semihosting
    __use_no_semihosting_swi
        0x000054f0:    4770        pG      BX       lr
    .text
    .text
    __decompress
    __decompress0
    __semihosting_library_function
        0x000054f2:    b530        0.      PUSH     {r4,r5,lr}
        0x000054f4:    188c        ..      ADDS     r4,r1,r2
        0x000054f6:    7802        .x      LDRB     r2,[r0,#0]
        0x000054f8:    1c40        @.      ADDS     r0,r0,#1
        0x000054fa:    0713        ..      LSLS     r3,r2,#28
        0x000054fc:    0f1b        ..      LSRS     r3,r3,#28
        0x000054fe:    d101        ..      BNE      0x5504 ; __decompress + 18
        0x00005500:    7803        .x      LDRB     r3,[r0,#0]
        0x00005502:    1c40        @.      ADDS     r0,r0,#1
        0x00005504:    0912        ..      LSRS     r2,r2,#4
        0x00005506:    d106        ..      BNE      0x5516 ; __decompress + 36
        0x00005508:    7802        .x      LDRB     r2,[r0,#0]
        0x0000550a:    1c40        @.      ADDS     r0,r0,#1
        0x0000550c:    e003        ..      B        0x5516 ; __decompress + 36
        0x0000550e:    7805        .x      LDRB     r5,[r0,#0]
        0x00005510:    1c40        @.      ADDS     r0,r0,#1
        0x00005512:    700d        .p      STRB     r5,[r1,#0]
        0x00005514:    1c49        I.      ADDS     r1,r1,#1
        0x00005516:    1e5b        [.      SUBS     r3,r3,#1
        0x00005518:    d1f9        ..      BNE      0x550e ; __decompress + 28
        0x0000551a:    e001        ..      B        0x5520 ; __decompress + 46
        0x0000551c:    700b        .p      STRB     r3,[r1,#0]
        0x0000551e:    1c49        I.      ADDS     r1,r1,#1
        0x00005520:    1e52        R.      SUBS     r2,r2,#1
        0x00005522:    d1fb        ..      BNE      0x551c ; __decompress + 42
        0x00005524:    42a1        .B      CMP      r1,r4
        0x00005526:    d3e6        ..      BCC      0x54f6 ; __decompress + 4
        0x00005528:    2000        .       MOVS     r0,#0
        0x0000552a:    bd30        0.      POP      {r4,r5,pc}
    i.__ARM_common_ll_muluu
    __ARM_common_ll_muluu
        0x0000552c:    b5f8        ..      PUSH     {r3-r7,lr}
        0x0000552e:    0c04        ..      LSRS     r4,r0,#16
        0x00005530:    b28b        ..      UXTH     r3,r1
        0x00005532:    4626        &F      MOV      r6,r4
        0x00005534:    b282        ..      UXTH     r2,r0
        0x00005536:    435e        ^C      MULS     r6,r3,r6
        0x00005538:    4610        .F      MOV      r0,r2
        0x0000553a:    4358        XC      MULS     r0,r3,r0
        0x0000553c:    0c0d        ..      LSRS     r5,r1,#16
        0x0000553e:    0c37        7.      LSRS     r7,r6,#16
        0x00005540:    0436        6.      LSLS     r6,r6,#16
        0x00005542:    2100        .!      MOVS     r1,#0
        0x00005544:    1980        ..      ADDS     r0,r0,r6
        0x00005546:    4616        .F      MOV      r6,r2
        0x00005548:    4179        yA      ADCS     r1,r1,r7
        0x0000554a:    436e        nC      MULS     r6,r5,r6
        0x0000554c:    0c37        7.      LSRS     r7,r6,#16
        0x0000554e:    0436        6.      LSLS     r6,r6,#16
        0x00005550:    1980        ..      ADDS     r0,r0,r6
        0x00005552:    4626        &F      MOV      r6,r4
        0x00005554:    4179        yA      ADCS     r1,r1,r7
        0x00005556:    436e        nC      MULS     r6,r5,r6
        0x00005558:    1989        ..      ADDS     r1,r1,r6
        0x0000555a:    bdf8        ..      POP      {r3-r7,pc}
    i.__ARM_common_switch8
    __ARM_common_switch8
        0x0000555c:    b430        0.      PUSH     {r4,r5}
        0x0000555e:    4674        tF      MOV      r4,lr
        0x00005560:    1e64        d.      SUBS     r4,r4,#1
        0x00005562:    7825        %x      LDRB     r5,[r4,#0]
        0x00005564:    1c64        d.      ADDS     r4,r4,#1
        0x00005566:    42ab        .B      CMP      r3,r5
        0x00005568:    d304        ..      BCC      0x5574 ; __ARM_common_switch8 + 24
        0x0000556a:    5d63        c]      LDRB     r3,[r4,r5]
        0x0000556c:    005b        [.      LSLS     r3,r3,#1
        0x0000556e:    18e3        ..      ADDS     r3,r4,r3
        0x00005570:    bc30        0.      POP      {r4,r5}
        0x00005572:    4718        .G      BX       r3
        0x00005574:    461d        .F      MOV      r5,r3
        0x00005576:    e7f8        ..      B        0x556a ; __ARM_common_switch8 + 14
    i.__ARM_fpclassify
    __ARM_fpclassify
        0x00005578:    0049        I.      LSLS     r1,r1,#1
        0x0000557a:    02ca        ..      LSLS     r2,r1,#11
        0x0000557c:    4310        .C      ORRS     r0,r0,r2
        0x0000557e:    d000        ..      BEQ      0x5582 ; __ARM_fpclassify + 10
        0x00005580:    2004        .       MOVS     r0,#4
        0x00005582:    0d4a        J.      LSRS     r2,r1,#21
        0x00005584:    d001        ..      BEQ      0x558a ; __ARM_fpclassify + 18
        0x00005586:    2201        ."      MOVS     r2,#1
        0x00005588:    4310        .C      ORRS     r0,r0,r2
        0x0000558a:    4a05        .J      LDR      r2,[pc,#20] ; [0x55a0] = 0x7ff
        0x0000558c:    0d49        I.      LSRS     r1,r1,#21
        0x0000558e:    4291        .B      CMP      r1,r2
        0x00005590:    d101        ..      BNE      0x5596 ; __ARM_fpclassify + 30
        0x00005592:    2102        .!      MOVS     r1,#2
        0x00005594:    4308        .C      ORRS     r0,r0,r1
        0x00005596:    2801        .(      CMP      r0,#1
        0x00005598:    d100        ..      BNE      0x559c ; __ARM_fpclassify + 36
        0x0000559a:    2005        .       MOVS     r0,#5
        0x0000559c:    4770        pG      BX       lr
    $d
        0x0000559e:    0000        ..      DCW    0
        0x000055a0:    000007ff    ....    DCD    2047
    $t
    i.__ieee754_rem_pio2
    __ieee754_rem_pio2
        0x000055a4:    b5f7        ..      PUSH     {r0-r2,r4-r7,lr}
        0x000055a6:    b096        ..      SUB      sp,sp,#0x58
        0x000055a8:    9b18        ..      LDR      r3,[sp,#0x60]
        0x000055aa:    2100        .!      MOVS     r1,#0
        0x000055ac:    6099        .`      STR      r1,[r3,#8]
        0x000055ae:    60d9        .`      STR      r1,[r3,#0xc]
        0x000055b0:    9917        ..      LDR      r1,[sp,#0x5c]
        0x000055b2:    9108        ..      STR      r1,[sp,#0x20]
        0x000055b4:    004c        L.      LSLS     r4,r1,#1
        0x000055b6:    49ce        .I      LDR      r1,[pc,#824] ; [0x58f0] = 0x3fe921fb
        0x000055b8:    0864        d.      LSRS     r4,r4,#1
        0x000055ba:    428c        .B      CMP      r4,r1
        0x000055bc:    dc06        ..      BGT      0x55cc ; __ieee754_rem_pio2 + 40
        0x000055be:    9a18        ..      LDR      r2,[sp,#0x60]
        0x000055c0:    9917        ..      LDR      r1,[sp,#0x5c]
        0x000055c2:    6051        Q`      STR      r1,[r2,#4]
        0x000055c4:    6010        .`      STR      r0,[r2,#0]
        0x000055c6:    2000        .       MOVS     r0,#0
        0x000055c8:    b019        ..      ADD      sp,sp,#0x64
        0x000055ca:    bdf0        ..      POP      {r4-r7,pc}
        0x000055cc:    49c9        .I      LDR      r1,[pc,#804] ; [0x58f4] = 0x4002d97c
        0x000055ce:    2700        .'      MOVS     r7,#0
        0x000055d0:    4dc9        .M      LDR      r5,[pc,#804] ; [0x58f8] = 0x3ff921fb
        0x000055d2:    43ff        .C      MVNS     r7,r7
        0x000055d4:    428c        .B      CMP      r4,r1
        0x000055d6:    da3b        ;.      BGE      0x5650 ; __ieee754_rem_pio2 + 172
        0x000055d8:    26d3        .&      MOVS     r6,#0xd3
        0x000055da:    9908        ..      LDR      r1,[sp,#0x20]
        0x000055dc:    0576        v.      LSLS     r6,r6,#21
        0x000055de:    2900        .)      CMP      r1,#0
        0x000055e0:    4ac6        .J      LDR      r2,[pc,#792] ; [0x58fc] = 0x54400000
        0x000055e2:    9917        ..      LDR      r1,[sp,#0x5c]
        0x000055e4:    462b        +F      MOV      r3,r5
        0x000055e6:    dd19        ..      BLE      0x561c ; __ieee754_rem_pio2 + 120
        0x000055e8:    f7fefb14    ....    BL       __aeabi_dsub ; 0x3c14
        0x000055ec:    42ac        .B      CMP      r4,r5
        0x000055ee:    d007        ..      BEQ      0x5600 ; __ieee754_rem_pio2 + 92
        0x000055f0:    4ac3        .J      LDR      r2,[pc,#780] ; [0x5900] = 0x1a626331
        0x000055f2:    4bc4        .K      LDR      r3,[pc,#784] ; [0x5904] = 0x3dd0b461
        0x000055f4:    f7fefb0e    ....    BL       __aeabi_dsub ; 0x3c14
        0x000055f8:    9a18        ..      LDR      r2,[sp,#0x60]
        0x000055fa:    6051        Q`      STR      r1,[r2,#4]
        0x000055fc:    6010        .`      STR      r0,[r2,#0]
        0x000055fe:    e00a        ..      B        0x5616 ; __ieee754_rem_pio2 + 114
        0x00005600:    4632        2F      MOV      r2,r6
        0x00005602:    4bc0        .K      LDR      r3,[pc,#768] ; [0x5904] = 0x3dd0b461
        0x00005604:    f7fefb06    ....    BL       __aeabi_dsub ; 0x3c14
        0x00005608:    4abf        .J      LDR      r2,[pc,#764] ; [0x5908] = 0x2e037073
        0x0000560a:    4bc0        .K      LDR      r3,[pc,#768] ; [0x590c] = 0x3ba3198a
        0x0000560c:    f7fefb02    ....    BL       __aeabi_dsub ; 0x3c14
        0x00005610:    9a18        ..      LDR      r2,[sp,#0x60]
        0x00005612:    6051        Q`      STR      r1,[r2,#4]
        0x00005614:    6010        .`      STR      r0,[r2,#0]
        0x00005616:    2001        .       MOVS     r0,#1
        0x00005618:    b019        ..      ADD      sp,sp,#0x64
        0x0000561a:    bdf0        ..      POP      {r4-r7,pc}
        0x0000561c:    f7fefaef    ....    BL       __aeabi_dadd ; 0x3bfe
        0x00005620:    42ac        .B      CMP      r4,r5
        0x00005622:    d007        ..      BEQ      0x5634 ; __ieee754_rem_pio2 + 144
        0x00005624:    4ab6        .J      LDR      r2,[pc,#728] ; [0x5900] = 0x1a626331
        0x00005626:    4bb7        .K      LDR      r3,[pc,#732] ; [0x5904] = 0x3dd0b461
        0x00005628:    f7fefae9    ....    BL       __aeabi_dadd ; 0x3bfe
        0x0000562c:    9a18        ..      LDR      r2,[sp,#0x60]
        0x0000562e:    6051        Q`      STR      r1,[r2,#4]
        0x00005630:    6010        .`      STR      r0,[r2,#0]
        0x00005632:    e00a        ..      B        0x564a ; __ieee754_rem_pio2 + 166
        0x00005634:    4632        2F      MOV      r2,r6
        0x00005636:    4bb3        .K      LDR      r3,[pc,#716] ; [0x5904] = 0x3dd0b461
        0x00005638:    f7fefae1    ....    BL       __aeabi_dadd ; 0x3bfe
        0x0000563c:    4ab2        .J      LDR      r2,[pc,#712] ; [0x5908] = 0x2e037073
        0x0000563e:    4bb3        .K      LDR      r3,[pc,#716] ; [0x590c] = 0x3ba3198a
        0x00005640:    f7fefadd    ....    BL       __aeabi_dadd ; 0x3bfe
        0x00005644:    9a18        ..      LDR      r2,[sp,#0x60]
        0x00005646:    6051        Q`      STR      r1,[r2,#4]
        0x00005648:    6010        .`      STR      r0,[r2,#0]
        0x0000564a:    4638        8F      MOV      r0,r7
        0x0000564c:    b019        ..      ADD      sp,sp,#0x64
        0x0000564e:    bdf0        ..      POP      {r4-r7,pc}
        0x00005650:    49af        .I      LDR      r1,[pc,#700] ; [0x5910] = 0x413921fb
        0x00005652:    428c        .B      CMP      r4,r1
        0x00005654:    9917        ..      LDR      r1,[sp,#0x5c]
        0x00005656:    dc7c        |.      BGT      0x5752 ; __ieee754_rem_pio2 + 430
        0x00005658:    0049        I.      LSLS     r1,r1,#1
        0x0000565a:    0849        I.      LSRS     r1,r1,#1
        0x0000565c:    4607        .F      MOV      r7,r0
        0x0000565e:    4aad        .J      LDR      r2,[pc,#692] ; [0x5914] = 0x6dc9c883
        0x00005660:    4bad        .K      LDR      r3,[pc,#692] ; [0x5918] = 0x3fe45f30
        0x00005662:    9103        ..      STR      r1,[sp,#0xc]
        0x00005664:    f7fefd4a    ..J.    BL       __aeabi_dmul ; 0x40fc
        0x00005668:    2200        ."      MOVS     r2,#0
        0x0000566a:    4bac        .K      LDR      r3,[pc,#688] ; [0x591c] = 0x3fe00000
        0x0000566c:    f7fefac7    ....    BL       __aeabi_dadd ; 0x3bfe
        0x00005670:    f7fffe52    ..R.    BL       __aeabi_d2iz ; 0x5318
        0x00005674:    9009        ..      STR      r0,[sp,#0x24]
        0x00005676:    f7fefd36    ..6.    BL       __aeabi_i2d ; 0x40e6
        0x0000567a:    4606        .F      MOV      r6,r0
        0x0000567c:    4a9f        .J      LDR      r2,[pc,#636] ; [0x58fc] = 0x54400000
        0x0000567e:    462b        +F      MOV      r3,r5
        0x00005680:    9107        ..      STR      r1,[sp,#0x1c]
        0x00005682:    f7fefd3b    ..;.    BL       __aeabi_dmul ; 0x40fc
        0x00005686:    463a        :F      MOV      r2,r7
        0x00005688:    9b03        ..      LDR      r3,[sp,#0xc]
        0x0000568a:    f7feface    ....    BL       __aeabi_drsub ; 0x3c2a
        0x0000568e:    4605        .F      MOV      r5,r0
        0x00005690:    460f        .F      MOV      r7,r1
        0x00005692:    4a9b        .J      LDR      r2,[pc,#620] ; [0x5900] = 0x1a626331
        0x00005694:    4b9b        .K      LDR      r3,[pc,#620] ; [0x5904] = 0x3dd0b461
        0x00005696:    4630        0F      MOV      r0,r6
        0x00005698:    9907        ..      LDR      r1,[sp,#0x1c]
        0x0000569a:    f7fefd2f    ../.    BL       __aeabi_dmul ; 0x40fc
        0x0000569e:    0d22        ".      LSRS     r2,r4,#20
        0x000056a0:    2401        .$      MOVS     r4,#1
        0x000056a2:    920b        ..      STR      r2,[sp,#0x2c]
        0x000056a4:    462a        *F      MOV      r2,r5
        0x000056a6:    463b        ;F      MOV      r3,r7
        0x000056a8:    f7fefabf    ....    BL       __aeabi_drsub ; 0x3c2a
        0x000056ac:    9a18        ..      LDR      r2,[sp,#0x60]
        0x000056ae:    2c03        .,      CMP      r4,#3
        0x000056b0:    6051        Q`      STR      r1,[r2,#4]
        0x000056b2:    6010        .`      STR      r0,[r2,#0]
        0x000056b4:    d039        9.      BEQ      0x572a ; __ieee754_rem_pio2 + 390
        0x000056b6:    9818        ..      LDR      r0,[sp,#0x60]
        0x000056b8:    6840        @h      LDR      r0,[r0,#4]
        0x000056ba:    0040        @.      LSLS     r0,r0,#1
        0x000056bc:    0d41        A.      LSRS     r1,r0,#21
        0x000056be:    980b        ..      LDR      r0,[sp,#0x2c]
        0x000056c0:    1a40        @.      SUBS     r0,r0,r1
        0x000056c2:    0161        a.      LSLS     r1,r4,#5
        0x000056c4:    1861        a.      ADDS     r1,r4,r1
        0x000056c6:    3911        .9      SUBS     r1,r1,#0x11
        0x000056c8:    4281        .B      CMP      r1,r0
        0x000056ca:    da2e        ..      BGE      0x572a ; __ieee754_rem_pio2 + 390
        0x000056cc:    4994        .I      LDR      r1,[pc,#592] ; [0x5920] = 0xf2c
        0x000056ce:    0120         .      LSLS     r0,r4,#4
        0x000056d0:    4479        yD      ADD      r1,r1,pc
        0x000056d2:    9502        ..      STR      r5,[sp,#8]
        0x000056d4:    900c        ..      STR      r0,[sp,#0x30]
        0x000056d6:    1808        ..      ADDS     r0,r1,r0
        0x000056d8:    9703        ..      STR      r7,[sp,#0xc]
        0x000056da:    6843        Ch      LDR      r3,[r0,#4]
        0x000056dc:    6802        .h      LDR      r2,[r0,#0]
        0x000056de:    4630        0F      MOV      r0,r6
        0x000056e0:    9907        ..      LDR      r1,[sp,#0x1c]
        0x000056e2:    f7fefd0b    ....    BL       __aeabi_dmul ; 0x40fc
        0x000056e6:    9101        ..      STR      r1,[sp,#4]
        0x000056e8:    9000        ..      STR      r0,[sp,#0]
        0x000056ea:    9b03        ..      LDR      r3,[sp,#0xc]
        0x000056ec:    9a02        ..      LDR      r2,[sp,#8]
        0x000056ee:    f7fefa9c    ....    BL       __aeabi_drsub ; 0x3c2a
        0x000056f2:    4605        .F      MOV      r5,r0
        0x000056f4:    460f        .F      MOV      r7,r1
        0x000056f6:    9b03        ..      LDR      r3,[sp,#0xc]
        0x000056f8:    9a02        ..      LDR      r2,[sp,#8]
        0x000056fa:    f7fefa96    ....    BL       __aeabi_drsub ; 0x3c2a
        0x000056fe:    9b01        ..      LDR      r3,[sp,#4]
        0x00005700:    9a00        ..      LDR      r2,[sp,#0]
        0x00005702:    f7fefa87    ....    BL       __aeabi_dsub ; 0x3c14
        0x00005706:    9101        ..      STR      r1,[sp,#4]
        0x00005708:    4986        .I      LDR      r1,[pc,#536] ; [0x5924] = 0xef0
        0x0000570a:    9000        ..      STR      r0,[sp,#0]
        0x0000570c:    4479        yD      ADD      r1,r1,pc
        0x0000570e:    980c        ..      LDR      r0,[sp,#0x30]
        0x00005710:    1840        @.      ADDS     r0,r0,r1
        0x00005712:    68c3        .h      LDR      r3,[r0,#0xc]
        0x00005714:    6882        .h      LDR      r2,[r0,#8]
        0x00005716:    4630        0F      MOV      r0,r6
        0x00005718:    9907        ..      LDR      r1,[sp,#0x1c]
        0x0000571a:    f7fefcef    ....    BL       __aeabi_dmul ; 0x40fc
        0x0000571e:    9b01        ..      LDR      r3,[sp,#4]
        0x00005720:    9a00        ..      LDR      r2,[sp,#0]
        0x00005722:    f7fefa77    ..w.    BL       __aeabi_dsub ; 0x3c14
        0x00005726:    1c64        d.      ADDS     r4,r4,#1
        0x00005728:    e7bc        ..      B        0x56a4 ; __ieee754_rem_pio2 + 256
        0x0000572a:    9808        ..      LDR      r0,[sp,#0x20]
        0x0000572c:    2800        .(      CMP      r0,#0
        0x0000572e:    da0d        ..      BGE      0x574c ; __ieee754_rem_pio2 + 424
        0x00005730:    9918        ..      LDR      r1,[sp,#0x60]
        0x00005732:    2201        ."      MOVS     r2,#1
        0x00005734:    6808        .h      LDR      r0,[r1,#0]
        0x00005736:    6849        Ih      LDR      r1,[r1,#4]
        0x00005738:    07d2        ..      LSLS     r2,r2,#31
        0x0000573a:    4051        Q@      EORS     r1,r1,r2
        0x0000573c:    9a18        ..      LDR      r2,[sp,#0x60]
        0x0000573e:    6051        Q`      STR      r1,[r2,#4]
        0x00005740:    6010        .`      STR      r0,[r2,#0]
        0x00005742:    9809        ..      LDR      r0,[sp,#0x24]
        0x00005744:    b019        ..      ADD      sp,sp,#0x64
        0x00005746:    4240        @B      RSBS     r0,r0,#0
        0x00005748:    bdf0        ..      POP      {r4-r7,pc}
        0x0000574a:    e002        ..      B        0x5752 ; __ieee754_rem_pio2 + 430
        0x0000574c:    9809        ..      LDR      r0,[sp,#0x24]
        0x0000574e:    b019        ..      ADD      sp,sp,#0x64
        0x00005750:    bdf0        ..      POP      {r4-r7,pc}
        0x00005752:    0309        ..      LSLS     r1,r1,#12
        0x00005754:    2201        ."      MOVS     r2,#1
        0x00005756:    0b09        ..      LSRS     r1,r1,#12
        0x00005758:    0512        ..      LSLS     r2,r2,#20
        0x0000575a:    900d        ..      STR      r0,[sp,#0x34]
        0x0000575c:    1889        ..      ADDS     r1,r1,r2
        0x0000575e:    9817        ..      LDR      r0,[sp,#0x5c]
        0x00005760:    9110        ..      STR      r1,[sp,#0x40]
        0x00005762:    0040        @.      LSLS     r0,r0,#1
        0x00005764:    4970        pI      LDR      r1,[pc,#448] ; [0x5928] = 0xfffffc0b
        0x00005766:    0d40        @.      LSRS     r0,r0,#21
        0x00005768:    1840        @.      ADDS     r0,r0,r1
        0x0000576a:    1141        A.      ASRS     r1,r0,#5
        0x0000576c:    06c0        ..      LSLS     r0,r0,#27
        0x0000576e:    0ec0        ..      LSRS     r0,r0,#27
        0x00005770:    2220         "      MOVS     r2,#0x20
        0x00005772:    9012        ..      STR      r0,[sp,#0x48]
        0x00005774:    1a10        ..      SUBS     r0,r2,r0
        0x00005776:    9013        ..      STR      r0,[sp,#0x4c]
        0x00005778:    2000        .       MOVS     r0,#0
        0x0000577a:    9006        ..      STR      r0,[sp,#0x18]
        0x0000577c:    9007        ..      STR      r0,[sp,#0x1c]
        0x0000577e:    0088        ..      LSLS     r0,r1,#2
        0x00005780:    496a        jI      LDR      r1,[pc,#424] ; [0x592c] = 0xeaa
        0x00005782:    4479        yD      ADD      r1,r1,pc
        0x00005784:    1845        E.      ADDS     r5,r0,r1
        0x00005786:    3514        .5      ADDS     r5,r5,#0x14
        0x00005788:    2006        .       MOVS     r0,#6
        0x0000578a:    ac07        ..      ADD      r4,sp,#0x1c
        0x0000578c:    9015        ..      STR      r0,[sp,#0x54]
        0x0000578e:    6828        (h      LDR      r0,[r5,#0]
        0x00005790:    9912        ..      LDR      r1,[sp,#0x48]
        0x00005792:    686a        jh      LDR      r2,[r5,#4]
        0x00005794:    4088        .@      LSLS     r0,r0,r1
        0x00005796:    9913        ..      LDR      r1,[sp,#0x4c]
        0x00005798:    40ca        .@      LSRS     r2,r2,r1
        0x0000579a:    4310        .C      ORRS     r0,r0,r2
        0x0000579c:    4607        .F      MOV      r7,r0
        0x0000579e:    9910        ..      LDR      r1,[sp,#0x40]
        0x000057a0:    f7fffec4    ....    BL       __ARM_common_ll_muluu ; 0x552c
        0x000057a4:    4606        .F      MOV      r6,r0
        0x000057a6:    9111        ..      STR      r1,[sp,#0x44]
        0x000057a8:    4638        8F      MOV      r0,r7
        0x000057aa:    990d        ..      LDR      r1,[sp,#0x34]
        0x000057ac:    f7fffebe    ....    BL       __ARM_common_ll_muluu ; 0x552c
        0x000057b0:    6823        #h      LDR      r3,[r4,#0]
        0x000057b2:    198a        ..      ADDS     r2,r1,r6
        0x000057b4:    181b        ..      ADDS     r3,r3,r0
        0x000057b6:    469c        .F      MOV      r12,r3
        0x000057b8:    4283        .B      CMP      r3,r0
        0x000057ba:    d201        ..      BCS      0x57c0 ; __ieee754_rem_pio2 + 540
        0x000057bc:    2601        .&      MOVS     r6,#1
        0x000057be:    e000        ..      B        0x57c2 ; __ieee754_rem_pio2 + 542
        0x000057c0:    2600        .&      MOVS     r6,#0
        0x000057c2:    4620         F      MOV      r0,r4
        0x000057c4:    3840        @8      SUBS     r0,r0,#0x40
        0x000057c6:    6bc3        .k      LDR      r3,[r0,#0x3c]
        0x000057c8:    1997        ..      ADDS     r7,r2,r6
        0x000057ca:    19db        ..      ADDS     r3,r3,r7
        0x000057cc:    428a        .B      CMP      r2,r1
        0x000057ce:    d201        ..      BCS      0x57d4 ; __ieee754_rem_pio2 + 560
        0x000057d0:    2701        .'      MOVS     r7,#1
        0x000057d2:    e000        ..      B        0x57d6 ; __ieee754_rem_pio2 + 562
        0x000057d4:    2700        .'      MOVS     r7,#0
        0x000057d6:    9911        ..      LDR      r1,[sp,#0x44]
        0x000057d8:    1879        y.      ADDS     r1,r7,r1
        0x000057da:    2e00        ..      CMP      r6,#0
        0x000057dc:    d002        ..      BEQ      0x57e4 ; __ieee754_rem_pio2 + 576
        0x000057de:    4293        .B      CMP      r3,r2
        0x000057e0:    d902        ..      BLS      0x57e8 ; __ieee754_rem_pio2 + 580
        0x000057e2:    e003        ..      B        0x57ec ; __ieee754_rem_pio2 + 584
        0x000057e4:    4293        .B      CMP      r3,r2
        0x000057e6:    d201        ..      BCS      0x57ec ; __ieee754_rem_pio2 + 584
        0x000057e8:    2201        ."      MOVS     r2,#1
        0x000057ea:    e000        ..      B        0x57ee ; __ieee754_rem_pio2 + 586
        0x000057ec:    2200        ."      MOVS     r2,#0
        0x000057ee:    1889        ..      ADDS     r1,r1,r2
        0x000057f0:    4662        bF      MOV      r2,r12
        0x000057f2:    6022        "`      STR      r2,[r4,#0]
        0x000057f4:    63c3        .c      STR      r3,[r0,#0x3c]
        0x000057f6:    6381        .c      STR      r1,[r0,#0x38]
        0x000057f8:    9815        ..      LDR      r0,[sp,#0x54]
        0x000057fa:    1f2d        -.      SUBS     r5,r5,#4
        0x000057fc:    1f24        $.      SUBS     r4,r4,#4
        0x000057fe:    1e40        @.      SUBS     r0,r0,#1
        0x00005800:    9015        ..      STR      r0,[sp,#0x54]
        0x00005802:    d1c4        ..      BNE      0x578e ; __ieee754_rem_pio2 + 490
        0x00005804:    2101        .!      MOVS     r1,#1
        0x00005806:    9802        ..      LDR      r0,[sp,#8]
        0x00005808:    0749        I.      LSLS     r1,r1,#29
        0x0000580a:    1840        @.      ADDS     r0,r0,r1
        0x0000580c:    0f80        ..      LSRS     r0,r0,#30
        0x0000580e:    9011        ..      STR      r0,[sp,#0x44]
        0x00005810:    9802        ..      LDR      r0,[sp,#8]
        0x00005812:    9905        ..      LDR      r1,[sp,#0x14]
        0x00005814:    0080        ..      LSLS     r0,r0,#2
        0x00005816:    9d03        ..      LDR      r5,[sp,#0xc]
        0x00005818:    9c04        ..      LDR      r4,[sp,#0x10]
        0x0000581a:    910b        ..      STR      r1,[sp,#0x2c]
        0x0000581c:    f7fefc63    ..c.    BL       __aeabi_i2d ; 0x40e6
        0x00005820:    4606        .F      MOV      r6,r0
        0x00005822:    460f        .F      MOV      r7,r1
        0x00005824:    4628        (F      MOV      r0,r5
        0x00005826:    f7fefc66    ..f.    BL       __aeabi_ui2d ; 0x40f6
        0x0000582a:    221d        ."      MOVS     r2,#0x1d
        0x0000582c:    43d2        .C      MVNS     r2,r2
        0x0000582e:    f7fff99f    ....    BL       __ARM_scalbn ; 0x4b70
        0x00005832:    900a        ..      STR      r0,[sp,#0x28]
        0x00005834:    910e        ..      STR      r1,[sp,#0x38]
        0x00005836:    4620         F      MOV      r0,r4
        0x00005838:    f7fefc5d    ..].    BL       __aeabi_ui2d ; 0x40f6
        0x0000583c:    223d        ="      MOVS     r2,#0x3d
        0x0000583e:    43d2        .C      MVNS     r2,r2
        0x00005840:    f7fff996    ....    BL       __ARM_scalbn ; 0x4b70
        0x00005844:    9012        ..      STR      r0,[sp,#0x48]
        0x00005846:    9109        ..      STR      r1,[sp,#0x24]
        0x00005848:    980b        ..      LDR      r0,[sp,#0x2c]
        0x0000584a:    f7fefc54    ..T.    BL       __aeabi_ui2d ; 0x40f6
        0x0000584e:    225d        ]"      MOVS     r2,#0x5d
        0x00005850:    43d2        .C      MVNS     r2,r2
        0x00005852:    f7fff98d    ....    BL       __ARM_scalbn ; 0x4b70
        0x00005856:    910d        ..      STR      r1,[sp,#0x34]
        0x00005858:    9008        ..      STR      r0,[sp,#0x20]
        0x0000585a:    9b09        ..      LDR      r3,[sp,#0x24]
        0x0000585c:    9a12        ..      LDR      r2,[sp,#0x48]
        0x0000585e:    f7fef9ce    ....    BL       __aeabi_dadd ; 0x3bfe
        0x00005862:    9b0e        ..      LDR      r3,[sp,#0x38]
        0x00005864:    9a0a        ..      LDR      r2,[sp,#0x28]
        0x00005866:    f7fef9ca    ....    BL       __aeabi_dadd ; 0x3bfe
        0x0000586a:    4632        2F      MOV      r2,r6
        0x0000586c:    463b        ;F      MOV      r3,r7
        0x0000586e:    f7fef9c6    ....    BL       __aeabi_dadd ; 0x3bfe
        0x00005872:    2400        .$      MOVS     r4,#0
        0x00005874:    460d        .F      MOV      r5,r1
        0x00005876:    4632        2F      MOV      r2,r6
        0x00005878:    463b        ;F      MOV      r3,r7
        0x0000587a:    4620         F      MOV      r0,r4
        0x0000587c:    f7fef9ca    ....    BL       __aeabi_dsub ; 0x3c14
        0x00005880:    9b0e        ..      LDR      r3,[sp,#0x38]
        0x00005882:    9a0a        ..      LDR      r2,[sp,#0x28]
        0x00005884:    f7fef9c6    ....    BL       __aeabi_dsub ; 0x3c14
        0x00005888:    9b09        ..      LDR      r3,[sp,#0x24]
        0x0000588a:    9a12        ..      LDR      r2,[sp,#0x48]
        0x0000588c:    f7fef9c2    ....    BL       __aeabi_dsub ; 0x3c14
        0x00005890:    9b0d        ..      LDR      r3,[sp,#0x34]
        0x00005892:    9a08        ..      LDR      r2,[sp,#0x20]
        0x00005894:    f7fef9c9    ....    BL       __aeabi_drsub ; 0x3c2a
        0x00005898:    4a25        %J      LDR      r2,[pc,#148] ; [0x5930] = 0x54442d18
        0x0000589a:    4b26        &K      LDR      r3,[pc,#152] ; [0x5934] = 0x3df921fb
        0x0000589c:    f7fefc2e    ....    BL       __aeabi_dmul ; 0x40fc
        0x000058a0:    4606        .F      MOV      r6,r0
        0x000058a2:    460f        .F      MOV      r7,r1
        0x000058a4:    4a24        $J      LDR      r2,[pc,#144] ; [0x5938] = 0x11a62633
        0x000058a6:    4b25        %K      LDR      r3,[pc,#148] ; [0x593c] = 0x3c110b46
        0x000058a8:    4629        )F      MOV      r1,r5
        0x000058aa:    4620         F      MOV      r0,r4
        0x000058ac:    f7fefc26    ..&.    BL       __aeabi_dmul ; 0x40fc
        0x000058b0:    4632        2F      MOV      r2,r6
        0x000058b2:    463b        ;F      MOV      r3,r7
        0x000058b4:    f7fef9a3    ....    BL       __aeabi_dadd ; 0x3bfe
        0x000058b8:    4606        .F      MOV      r6,r0
        0x000058ba:    460f        .F      MOV      r7,r1
        0x000058bc:    2215        ."      MOVS     r2,#0x15
        0x000058be:    0692        ..      LSLS     r2,r2,#26
        0x000058c0:    4b1c        .K      LDR      r3,[pc,#112] ; [0x5934] = 0x3df921fb
        0x000058c2:    4629        )F      MOV      r1,r5
        0x000058c4:    4620         F      MOV      r0,r4
        0x000058c6:    f7fefc19    ....    BL       __aeabi_dmul ; 0x40fc
        0x000058ca:    463b        ;F      MOV      r3,r7
        0x000058cc:    4632        2F      MOV      r2,r6
        0x000058ce:    f7fef996    ....    BL       __aeabi_dadd ; 0x3bfe
        0x000058d2:    9a17        ..      LDR      r2,[sp,#0x5c]
        0x000058d4:    2a00        .*      CMP      r2,#0
        0x000058d6:    da05        ..      BGE      0x58e4 ; __ieee754_rem_pio2 + 832
        0x000058d8:    9a11        ..      LDR      r2,[sp,#0x44]
        0x000058da:    4252        RB      RSBS     r2,r2,#0
        0x000058dc:    9211        ..      STR      r2,[sp,#0x44]
        0x000058de:    2201        ."      MOVS     r2,#1
        0x000058e0:    07d2        ..      LSLS     r2,r2,#31
        0x000058e2:    4051        Q@      EORS     r1,r1,r2
        0x000058e4:    9a18        ..      LDR      r2,[sp,#0x60]
        0x000058e6:    6051        Q`      STR      r1,[r2,#4]
        0x000058e8:    6010        .`      STR      r0,[r2,#0]
        0x000058ea:    9811        ..      LDR      r0,[sp,#0x44]
        0x000058ec:    b019        ..      ADD      sp,sp,#0x64
        0x000058ee:    bdf0        ..      POP      {r4-r7,pc}
    $d
        0x000058f0:    3fe921fb    .!.?    DCD    1072243195
        0x000058f4:    4002d97c    |..@    DCD    1073928572
        0x000058f8:    3ff921fb    .!.?    DCD    1073291771
        0x000058fc:    54400000    ..@T    DCD    1413480448
        0x00005900:    1a626331    1cb.    DCD    442655537
        0x00005904:    3dd0b461    a..=    DCD    1037087841
        0x00005908:    2e037073    sp..    DCD    771977331
        0x0000590c:    3ba3198a    ...;    DCD    1000544650
        0x00005910:    413921fb    .!9A    DCD    1094263291
        0x00005914:    6dc9c883    ...m    DCD    1841940611
        0x00005918:    3fe45f30    0_.?    DCD    1071931184
        0x0000591c:    3fe00000    ...?    DCD    1071644672
        0x00005920:    00000f2c    ,...    DCD    3884
        0x00005924:    00000ef0    ....    DCD    3824
        0x00005928:    fffffc0b    ....    DCD    4294966283
        0x0000592c:    00000eaa    ....    DCD    3754
        0x00005930:    54442d18    .-DT    DCD    1413754136
        0x00005934:    3df921fb    .!.=    DCD    1039737339
        0x00005938:    11a62633    3&..    DCD    296101427
        0x0000593c:    3c110b46    F..<    DCD    1007749958
    $t
    i.__kernel_cos
    __kernel_cos
        0x00005940:    b5f0        ..      PUSH     {r4-r7,lr}
        0x00005942:    b41f        ..      PUSH     {r0-r4}
        0x00005944:    004e        N.      LSLS     r6,r1,#1
        0x00005946:    20f9        .       MOVS     r0,#0xf9
        0x00005948:    0876        v.      LSRS     r6,r6,#1
        0x0000594a:    0580        ..      LSLS     r0,r0,#22
        0x0000594c:    b084        ..      SUB      sp,sp,#0x10
        0x0000594e:    460f        .F      MOV      r7,r1
        0x00005950:    4286        .B      CMP      r6,r0
        0x00005952:    da04        ..      BGE      0x595e ; __kernel_cos + 30
        0x00005954:    9804        ..      LDR      r0,[sp,#0x10]
        0x00005956:    f7fffcdf    ....    BL       __aeabi_d2iz ; 0x5318
        0x0000595a:    2800        .(      CMP      r0,#0
        0x0000595c:    d038        8.      BEQ      0x59d0 ; __kernel_cos + 144
        0x0000595e:    9a04        ..      LDR      r2,[sp,#0x10]
        0x00005960:    463b        ;F      MOV      r3,r7
        0x00005962:    4610        .F      MOV      r0,r2
        0x00005964:    4619        .F      MOV      r1,r3
        0x00005966:    f7fefbc9    ....    BL       __aeabi_dmul ; 0x40fc
        0x0000596a:    4604        .F      MOV      r4,r0
        0x0000596c:    4602        .F      MOV      r2,r0
        0x0000596e:    482c        ,H      LDR      r0,[pc,#176] ; [0x5a20] = 0xc4e
        0x00005970:    460d        .F      MOV      r5,r1
        0x00005972:    460b        .F      MOV      r3,r1
        0x00005974:    2106        .!      MOVS     r1,#6
        0x00005976:    4478        xD      ADD      r0,r0,pc
        0x00005978:    f000f85c    ..\.    BL       __kernel_poly ; 0x5a34
        0x0000597c:    4622        "F      MOV      r2,r4
        0x0000597e:    462b        +F      MOV      r3,r5
        0x00005980:    f7fefbbc    ....    BL       __aeabi_dmul ; 0x40fc
        0x00005984:    9101        ..      STR      r1,[sp,#4]
        0x00005986:    9000        ..      STR      r0,[sp,#0]
        0x00005988:    4639        9F      MOV      r1,r7
        0x0000598a:    9b07        ..      LDR      r3,[sp,#0x1c]
        0x0000598c:    9a06        ..      LDR      r2,[sp,#0x18]
        0x0000598e:    9804        ..      LDR      r0,[sp,#0x10]
        0x00005990:    f7fefbb4    ....    BL       __aeabi_dmul ; 0x40fc
        0x00005994:    4607        .F      MOV      r7,r0
        0x00005996:    9102        ..      STR      r1,[sp,#8]
        0x00005998:    4620         F      MOV      r0,r4
        0x0000599a:    4629        )F      MOV      r1,r5
        0x0000599c:    9b01        ..      LDR      r3,[sp,#4]
        0x0000599e:    9a00        ..      LDR      r2,[sp,#0]
        0x000059a0:    f7fefbac    ....    BL       __aeabi_dmul ; 0x40fc
        0x000059a4:    463a        :F      MOV      r2,r7
        0x000059a6:    9b02        ..      LDR      r3,[sp,#8]
        0x000059a8:    f7fef934    ..4.    BL       __aeabi_dsub ; 0x3c14
        0x000059ac:    4607        .F      MOV      r7,r0
        0x000059ae:    2200        ."      MOVS     r2,#0
        0x000059b0:    9100        ..      STR      r1,[sp,#0]
        0x000059b2:    43d2        .C      MVNS     r2,r2
        0x000059b4:    4620         F      MOV      r0,r4
        0x000059b6:    4629        )F      MOV      r1,r5
        0x000059b8:    f7fff8da    ....    BL       __ARM_scalbn ; 0x4b70
        0x000059bc:    4a19        .J      LDR      r2,[pc,#100] ; [0x5a24] = 0x3fd33333
        0x000059be:    4296        .B      CMP      r6,r2
        0x000059c0:    da0a        ..      BGE      0x59d8 ; __kernel_cos + 152
        0x000059c2:    463a        :F      MOV      r2,r7
        0x000059c4:    9b00        ..      LDR      r3,[sp,#0]
        0x000059c6:    f7fef925    ..%.    BL       __aeabi_dsub ; 0x3c14
        0x000059ca:    2200        ."      MOVS     r2,#0
        0x000059cc:    4b16        .K      LDR      r3,[pc,#88] ; [0x5a28] = 0x3ff00000
        0x000059ce:    e023        #.      B        0x5a18 ; __kernel_cos + 216
        0x000059d0:    2000        .       MOVS     r0,#0
        0x000059d2:    4915        .I      LDR      r1,[pc,#84] ; [0x5a28] = 0x3ff00000
        0x000059d4:    b009        ..      ADD      sp,sp,#0x24
        0x000059d6:    bdf0        ..      POP      {r4-r7,pc}
        0x000059d8:    4a14        .J      LDR      r2,[pc,#80] ; [0x5a2c] = 0x3fe90000
        0x000059da:    4296        .B      CMP      r6,r2
        0x000059dc:    dd02        ..      BLE      0x59e4 ; __kernel_cos + 164
        0x000059de:    2400        .$      MOVS     r4,#0
        0x000059e0:    4d13        .M      LDR      r5,[pc,#76] ; [0x5a30] = 0x3fd20000
        0x000059e2:    e003        ..      B        0x59ec ; __kernel_cos + 172
        0x000059e4:    2201        ."      MOVS     r2,#1
        0x000059e6:    0552        R.      LSLS     r2,r2,#21
        0x000059e8:    1ab5        ..      SUBS     r5,r6,r2
        0x000059ea:    2400        .$      MOVS     r4,#0
        0x000059ec:    4622        "F      MOV      r2,r4
        0x000059ee:    462b        +F      MOV      r3,r5
        0x000059f0:    f7fef910    ....    BL       __aeabi_dsub ; 0x3c14
        0x000059f4:    4606        .F      MOV      r6,r0
        0x000059f6:    9101        ..      STR      r1,[sp,#4]
        0x000059f8:    4622        "F      MOV      r2,r4
        0x000059fa:    462b        +F      MOV      r3,r5
        0x000059fc:    2000        .       MOVS     r0,#0
        0x000059fe:    490a        .I      LDR      r1,[pc,#40] ; [0x5a28] = 0x3ff00000
        0x00005a00:    f7fef908    ....    BL       __aeabi_dsub ; 0x3c14
        0x00005a04:    460d        .F      MOV      r5,r1
        0x00005a06:    4604        .F      MOV      r4,r0
        0x00005a08:    463a        :F      MOV      r2,r7
        0x00005a0a:    4630        0F      MOV      r0,r6
        0x00005a0c:    9b00        ..      LDR      r3,[sp,#0]
        0x00005a0e:    9901        ..      LDR      r1,[sp,#4]
        0x00005a10:    f7fef900    ....    BL       __aeabi_dsub ; 0x3c14
        0x00005a14:    4622        "F      MOV      r2,r4
        0x00005a16:    462b        +F      MOV      r3,r5
        0x00005a18:    f7fef907    ....    BL       __aeabi_drsub ; 0x3c2a
        0x00005a1c:    b009        ..      ADD      sp,sp,#0x24
        0x00005a1e:    bdf0        ..      POP      {r4-r7,pc}
    $d
        0x00005a20:    00000c4e    N...    DCD    3150
        0x00005a24:    3fd33333    33.?    DCD    1070805811
        0x00005a28:    3ff00000    ...?    DCD    1072693248
        0x00005a2c:    3fe90000    ...?    DCD    1072234496
        0x00005a30:    3fd20000    ...?    DCD    1070727168
    $t
    i.__kernel_poly
    __kernel_poly
        0x00005a34:    b5f8        ..      PUSH     {r3-r7,lr}
        0x00005a36:    4604        .F      MOV      r4,r0
        0x00005a38:    1e4f        O.      SUBS     r7,r1,#1
        0x00005a3a:    00c8        ..      LSLS     r0,r1,#3
        0x00005a3c:    3808        .8      SUBS     r0,r0,#8
        0x00005a3e:    1821        !.      ADDS     r1,r4,r0
        0x00005a40:    4615        .F      MOV      r5,r2
        0x00005a42:    461e        .F      MOV      r6,r3
        0x00005a44:    6808        .h      LDR      r0,[r1,#0]
        0x00005a46:    6849        Ih      LDR      r1,[r1,#4]
        0x00005a48:    463a        :F      MOV      r2,r7
        0x00005a4a:    2306        .#      MOVS     r3,#6
        0x00005a4c:    439a        .C      BICS     r2,r2,r3
        0x00005a4e:    d010        ..      BEQ      0x5a72 ; __kernel_poly + 62
        0x00005a50:    462a        *F      MOV      r2,r5
        0x00005a52:    4633        3F      MOV      r3,r6
        0x00005a54:    f7fefb52    ..R.    BL       __aeabi_dmul ; 0x40fc
        0x00005a58:    463a        :F      MOV      r2,r7
        0x00005a5a:    00d2        ..      LSLS     r2,r2,#3
        0x00005a5c:    3a08        .:      SUBS     r2,r2,#8
        0x00005a5e:    18a3        ..      ADDS     r3,r4,r2
        0x00005a60:    681a        .h      LDR      r2,[r3,#0]
        0x00005a62:    1e7f        ..      SUBS     r7,r7,#1
        0x00005a64:    685b        [h      LDR      r3,[r3,#4]
        0x00005a66:    f7fef8ca    ....    BL       __aeabi_dadd ; 0x3bfe
        0x00005a6a:    2206        ."      MOVS     r2,#6
        0x00005a6c:    463b        ;F      MOV      r3,r7
        0x00005a6e:    4393        .C      BICS     r3,r3,r2
        0x00005a70:    d1ee        ..      BNE      0x5a50 ; __kernel_poly + 28
        0x00005a72:    2f02        ./      CMP      r7,#2
        0x00005a74:    d023        #.      BEQ      0x5abe ; __kernel_poly + 138
        0x00005a76:    2f04        ./      CMP      r7,#4
        0x00005a78:    d011        ..      BEQ      0x5a9e ; __kernel_poly + 106
        0x00005a7a:    2f06        ./      CMP      r7,#6
        0x00005a7c:    d12f        /.      BNE      0x5ade ; __kernel_poly + 170
        0x00005a7e:    462a        *F      MOV      r2,r5
        0x00005a80:    4633        3F      MOV      r3,r6
        0x00005a82:    f7fefb3b    ..;.    BL       __aeabi_dmul ; 0x40fc
        0x00005a86:    6ae3        .j      LDR      r3,[r4,#0x2c]
        0x00005a88:    6aa2        .j      LDR      r2,[r4,#0x28]
        0x00005a8a:    f7fef8b8    ....    BL       __aeabi_dadd ; 0x3bfe
        0x00005a8e:    462a        *F      MOV      r2,r5
        0x00005a90:    4633        3F      MOV      r3,r6
        0x00005a92:    f7fefb33    ..3.    BL       __aeabi_dmul ; 0x40fc
        0x00005a96:    6a63        cj      LDR      r3,[r4,#0x24]
        0x00005a98:    6a22        "j      LDR      r2,[r4,#0x20]
        0x00005a9a:    f7fef8b0    ....    BL       __aeabi_dadd ; 0x3bfe
        0x00005a9e:    462a        *F      MOV      r2,r5
        0x00005aa0:    4633        3F      MOV      r3,r6
        0x00005aa2:    f7fefb2b    ..+.    BL       __aeabi_dmul ; 0x40fc
        0x00005aa6:    69e3        .i      LDR      r3,[r4,#0x1c]
        0x00005aa8:    69a2        .i      LDR      r2,[r4,#0x18]
        0x00005aaa:    f7fef8a8    ....    BL       __aeabi_dadd ; 0x3bfe
        0x00005aae:    462a        *F      MOV      r2,r5
        0x00005ab0:    4633        3F      MOV      r3,r6
        0x00005ab2:    f7fefb23    ..#.    BL       __aeabi_dmul ; 0x40fc
        0x00005ab6:    6963        ci      LDR      r3,[r4,#0x14]
        0x00005ab8:    6922        "i      LDR      r2,[r4,#0x10]
        0x00005aba:    f7fef8a0    ....    BL       __aeabi_dadd ; 0x3bfe
        0x00005abe:    462a        *F      MOV      r2,r5
        0x00005ac0:    4633        3F      MOV      r3,r6
        0x00005ac2:    f7fefb1b    ....    BL       __aeabi_dmul ; 0x40fc
        0x00005ac6:    68e3        .h      LDR      r3,[r4,#0xc]
        0x00005ac8:    68a2        .h      LDR      r2,[r4,#8]
        0x00005aca:    f7fef898    ....    BL       __aeabi_dadd ; 0x3bfe
        0x00005ace:    462a        *F      MOV      r2,r5
        0x00005ad0:    4633        3F      MOV      r3,r6
        0x00005ad2:    f7fefb13    ....    BL       __aeabi_dmul ; 0x40fc
        0x00005ad6:    6863        ch      LDR      r3,[r4,#4]
        0x00005ad8:    6822        "h      LDR      r2,[r4,#0]
        0x00005ada:    f7fef890    ....    BL       __aeabi_dadd ; 0x3bfe
        0x00005ade:    bdf8        ..      POP      {r3-r7,pc}
    i.__kernel_sin
    __kernel_sin
        0x00005ae0:    b5f0        ..      PUSH     {r4-r7,lr}
        0x00005ae2:    b41f        ..      PUSH     {r0-r4}
        0x00005ae4:    4605        .F      MOV      r5,r0
        0x00005ae6:    0048        H.      LSLS     r0,r1,#1
        0x00005ae8:    460c        .F      MOV      r4,r1
        0x00005aea:    21f9        .!      MOVS     r1,#0xf9
        0x00005aec:    0840        @.      LSRS     r0,r0,#1
        0x00005aee:    0589        ..      LSLS     r1,r1,#22
        0x00005af0:    b086        ..      SUB      sp,sp,#0x18
        0x00005af2:    4288        .B      CMP      r0,r1
        0x00005af4:    da0b        ..      BGE      0x5b0e ; __kernel_sin + 46
        0x00005af6:    4628        (F      MOV      r0,r5
        0x00005af8:    4621        !F      MOV      r1,r4
        0x00005afa:    f7fffd3d    ..=.    BL       __ARM_fpclassify ; 0x5578
        0x00005afe:    2804        .(      CMP      r0,#4
        0x00005b00:    d101        ..      BNE      0x5b06 ; __kernel_sin + 38
        0x00005b02:    f000f863    ..c.    BL       __mathlib_dbl_underflow ; 0x5bcc
        0x00005b06:    4628        (F      MOV      r0,r5
        0x00005b08:    4621        !F      MOV      r1,r4
        0x00005b0a:    b00b        ..      ADD      sp,sp,#0x2c
        0x00005b0c:    bdf0        ..      POP      {r4-r7,pc}
        0x00005b0e:    462a        *F      MOV      r2,r5
        0x00005b10:    4623        #F      MOV      r3,r4
        0x00005b12:    4610        .F      MOV      r0,r2
        0x00005b14:    4619        .F      MOV      r1,r3
        0x00005b16:    f7fefaf1    ....    BL       __aeabi_dmul ; 0x40fc
        0x00005b1a:    4606        .F      MOV      r6,r0
        0x00005b1c:    460f        .F      MOV      r7,r1
        0x00005b1e:    462a        *F      MOV      r2,r5
        0x00005b20:    4623        #F      MOV      r3,r4
        0x00005b22:    f7fefaeb    ....    BL       __aeabi_dmul ; 0x40fc
        0x00005b26:    9000        ..      STR      r0,[sp,#0]
        0x00005b28:    4825        %H      LDR      r0,[pc,#148] ; [0x5bc0] = 0xb92
        0x00005b2a:    9101        ..      STR      r1,[sp,#4]
        0x00005b2c:    4632        2F      MOV      r2,r6
        0x00005b2e:    463b        ;F      MOV      r3,r7
        0x00005b30:    2105        .!      MOVS     r1,#5
        0x00005b32:    4478        xD      ADD      r0,r0,pc
        0x00005b34:    f7ffff7e    ..~.    BL       __kernel_poly ; 0x5a34
        0x00005b38:    9002        ..      STR      r0,[sp,#8]
        0x00005b3a:    9810        ..      LDR      r0,[sp,#0x40]
        0x00005b3c:    9103        ..      STR      r1,[sp,#0xc]
        0x00005b3e:    2800        .(      CMP      r0,#0
        0x00005b40:    d029        ).      BEQ      0x5b96 ; __kernel_sin + 182
        0x00005b42:    4a20         J      LDR      r2,[pc,#128] ; [0x5bc4] = 0x55555549
        0x00005b44:    4b20         K      LDR      r3,[pc,#128] ; [0x5bc8] = 0xbfc55555
        0x00005b46:    9901        ..      LDR      r1,[sp,#4]
        0x00005b48:    9800        ..      LDR      r0,[sp,#0]
        0x00005b4a:    f7fefad7    ....    BL       __aeabi_dmul ; 0x40fc
        0x00005b4e:    9004        ..      STR      r0,[sp,#0x10]
        0x00005b50:    9105        ..      STR      r1,[sp,#0x14]
        0x00005b52:    4668        hF      MOV      r0,sp
        0x00005b54:    c80f        ..      LDM      r0,{r0-r3}
        0x00005b56:    f7fefad1    ....    BL       __aeabi_dmul ; 0x40fc
        0x00005b5a:    2200        ."      MOVS     r2,#0
        0x00005b5c:    9101        ..      STR      r1,[sp,#4]
        0x00005b5e:    9000        ..      STR      r0,[sp,#0]
        0x00005b60:    43d2        .C      MVNS     r2,r2
        0x00005b62:    9909        ..      LDR      r1,[sp,#0x24]
        0x00005b64:    9808        ..      LDR      r0,[sp,#0x20]
        0x00005b66:    f7fff803    ....    BL       __ARM_scalbn ; 0x4b70
        0x00005b6a:    9b01        ..      LDR      r3,[sp,#4]
        0x00005b6c:    9a00        ..      LDR      r2,[sp,#0]
        0x00005b6e:    f7fef851    ..Q.    BL       __aeabi_dsub ; 0x3c14
        0x00005b72:    4632        2F      MOV      r2,r6
        0x00005b74:    463b        ;F      MOV      r3,r7
        0x00005b76:    f7fefac1    ....    BL       __aeabi_dmul ; 0x40fc
        0x00005b7a:    9b09        ..      LDR      r3,[sp,#0x24]
        0x00005b7c:    9a08        ..      LDR      r2,[sp,#0x20]
        0x00005b7e:    f7fef849    ..I.    BL       __aeabi_dsub ; 0x3c14
        0x00005b82:    9b05        ..      LDR      r3,[sp,#0x14]
        0x00005b84:    9a04        ..      LDR      r2,[sp,#0x10]
        0x00005b86:    f7fef845    ..E.    BL       __aeabi_dsub ; 0x3c14
        0x00005b8a:    462a        *F      MOV      r2,r5
        0x00005b8c:    4623        #F      MOV      r3,r4
        0x00005b8e:    f7fef84c    ..L.    BL       __aeabi_drsub ; 0x3c2a
        0x00005b92:    b00b        ..      ADD      sp,sp,#0x2c
        0x00005b94:    bdf0        ..      POP      {r4-r7,pc}
        0x00005b96:    460b        .F      MOV      r3,r1
        0x00005b98:    4630        0F      MOV      r0,r6
        0x00005b9a:    4639        9F      MOV      r1,r7
        0x00005b9c:    9a02        ..      LDR      r2,[sp,#8]
        0x00005b9e:    f7fefaad    ....    BL       __aeabi_dmul ; 0x40fc
        0x00005ba2:    4a08        .J      LDR      r2,[pc,#32] ; [0x5bc4] = 0x55555549
        0x00005ba4:    4b08        .K      LDR      r3,[pc,#32] ; [0x5bc8] = 0xbfc55555
        0x00005ba6:    f7fef82a    ..*.    BL       __aeabi_dadd ; 0x3bfe
        0x00005baa:    9b01        ..      LDR      r3,[sp,#4]
        0x00005bac:    9a00        ..      LDR      r2,[sp,#0]
        0x00005bae:    f7fefaa5    ....    BL       __aeabi_dmul ; 0x40fc
        0x00005bb2:    462a        *F      MOV      r2,r5
        0x00005bb4:    4623        #F      MOV      r3,r4
        0x00005bb6:    f7fef822    ..".    BL       __aeabi_dadd ; 0x3bfe
        0x00005bba:    b00b        ..      ADD      sp,sp,#0x2c
        0x00005bbc:    bdf0        ..      POP      {r4-r7,pc}
    $d
        0x00005bbe:    0000        ..      DCW    0
        0x00005bc0:    00000b92    ....    DCD    2962
        0x00005bc4:    55555549    IUUU    DCD    1431655753
        0x00005bc8:    bfc55555    UU..    DCD    3217380693
    $t
    i.__mathlib_dbl_underflow
    __mathlib_dbl_underflow
        0x00005bcc:    4a03        .J      LDR      r2,[pc,#12] ; [0x5bdc] = 0xfffffd01
        0x00005bce:    b510        ..      PUSH     {r4,lr}
        0x00005bd0:    2000        .       MOVS     r0,#0
        0x00005bd2:    0711        ..      LSLS     r1,r2,#28
        0x00005bd4:    f7feffcc    ....    BL       __ARM_scalbn ; 0x4b70
        0x00005bd8:    bd10        ..      POP      {r4,pc}
    $d
        0x00005bda:    0000        ..      DCW    0
        0x00005bdc:    fffffd01    ....    DCD    4294966529
    $t
    i._is_digit
    _is_digit
        0x00005be0:    3830        08      SUBS     r0,r0,#0x30
        0x00005be2:    280a        .(      CMP      r0,#0xa
        0x00005be4:    d201        ..      BCS      0x5bea ; _is_digit + 10
        0x00005be6:    2001        .       MOVS     r0,#1
        0x00005be8:    4770        pG      BX       lr
        0x00005bea:    2000        .       MOVS     r0,#0
        0x00005bec:    4770        pG      BX       lr
        0x00005bee:    0000        ..      MOVS     r0,r0
    i.atan
    atan
        0x00005bf0:    b5f0        ..      PUSH     {r4-r7,lr}
        0x00005bf2:    b089        ..      SUB      sp,sp,#0x24
        0x00005bf4:    4604        .F      MOV      r4,r0
        0x00005bf6:    460d        .F      MOV      r5,r1
        0x00005bf8:    0048        H.      LSLS     r0,r1,#1
        0x00005bfa:    9106        ..      STR      r1,[sp,#0x18]
        0x00005bfc:    4973        sI      LDR      r1,[pc,#460] ; [0x5dcc] = 0x44100000
        0x00005bfe:    0840        @.      LSRS     r0,r0,#1
        0x00005c00:    4288        .B      CMP      r0,r1
        0x00005c02:    db16        ..      BLT      0x5c32 ; atan + 66
        0x00005c04:    4972        rI      LDR      r1,[pc,#456] ; [0x5dd0] = 0x7ff00000
        0x00005c06:    4288        .B      CMP      r0,r1
        0x00005c08:    dc03        ..      BGT      0x5c12 ; atan + 34
        0x00005c0a:    4288        .B      CMP      r0,r1
        0x00005c0c:    d108        ..      BNE      0x5c20 ; atan + 48
        0x00005c0e:    2c00        .,      CMP      r4,#0
        0x00005c10:    d006        ..      BEQ      0x5c20 ; atan + 48
        0x00005c12:    2201        ."      MOVS     r2,#1
        0x00005c14:    4620         F      MOV      r0,r4
        0x00005c16:    4629        )F      MOV      r1,r5
        0x00005c18:    f7feffaa    ....    BL       __ARM_scalbn ; 0x4b70
        0x00005c1c:    b009        ..      ADD      sp,sp,#0x24
        0x00005c1e:    bdf0        ..      POP      {r4-r7,pc}
        0x00005c20:    486c        lH      LDR      r0,[pc,#432] ; [0x5dd4] = 0x54442d18
        0x00005c22:    2d00        .-      CMP      r5,#0
        0x00005c24:    dd02        ..      BLE      0x5c2c ; atan + 60
        0x00005c26:    496c        lI      LDR      r1,[pc,#432] ; [0x5dd8] = 0x3ff921fb
        0x00005c28:    b009        ..      ADD      sp,sp,#0x24
        0x00005c2a:    bdf0        ..      POP      {r4-r7,pc}
        0x00005c2c:    496b        kI      LDR      r1,[pc,#428] ; [0x5ddc] = 0xbff921fb
        0x00005c2e:    b009        ..      ADD      sp,sp,#0x24
        0x00005c30:    bdf0        ..      POP      {r4-r7,pc}
        0x00005c32:    496b        kI      LDR      r1,[pc,#428] ; [0x5de0] = 0x3fdc0000
        0x00005c34:    4288        .B      CMP      r0,r1
        0x00005c36:    da11        ..      BGE      0x5c5c ; atan + 108
        0x00005c38:    496a        jI      LDR      r1,[pc,#424] ; [0x5de4] = 0x3e200000
        0x00005c3a:    4288        .B      CMP      r0,r1
        0x00005c3c:    da0b        ..      BGE      0x5c56 ; atan + 102
        0x00005c3e:    4620         F      MOV      r0,r4
        0x00005c40:    4629        )F      MOV      r1,r5
        0x00005c42:    f7fffc99    ....    BL       __ARM_fpclassify ; 0x5578
        0x00005c46:    2804        .(      CMP      r0,#4
        0x00005c48:    d101        ..      BNE      0x5c4e ; atan + 94
        0x00005c4a:    f7ffffbf    ....    BL       __mathlib_dbl_underflow ; 0x5bcc
        0x00005c4e:    4620         F      MOV      r0,r4
        0x00005c50:    4629        )F      MOV      r1,r5
        0x00005c52:    b009        ..      ADD      sp,sp,#0x24
        0x00005c54:    bdf0        ..      POP      {r4-r7,pc}
        0x00005c56:    2600        .&      MOVS     r6,#0
        0x00005c58:    43f6        .C      MVNS     r6,r6
        0x00005c5a:    e05d        ].      B        0x5d18 ; atan + 296
        0x00005c5c:    006d        m.      LSLS     r5,r5,#1
        0x00005c5e:    4962        bI      LDR      r1,[pc,#392] ; [0x5de8] = 0x3ff30000
        0x00005c60:    086d        m.      LSRS     r5,r5,#1
        0x00005c62:    4288        .B      CMP      r0,r1
        0x00005c64:    da32        2.      BGE      0x5ccc ; atan + 220
        0x00005c66:    4961        aI      LDR      r1,[pc,#388] ; [0x5dec] = 0x3fe60000
        0x00005c68:    4288        .B      CMP      r0,r1
        0x00005c6a:    da19        ..      BGE      0x5ca0 ; atan + 176
        0x00005c6c:    2600        .&      MOVS     r6,#0
        0x00005c6e:    2301        .#      MOVS     r3,#1
        0x00005c70:    4632        2F      MOV      r2,r6
        0x00005c72:    079b        ..      LSLS     r3,r3,#30
        0x00005c74:    4620         F      MOV      r0,r4
        0x00005c76:    4629        )F      MOV      r1,r5
        0x00005c78:    f7fdffc1    ....    BL       __aeabi_dadd ; 0x3bfe
        0x00005c7c:    4607        .F      MOV      r7,r0
        0x00005c7e:    9101        ..      STR      r1,[sp,#4]
        0x00005c80:    2201        ."      MOVS     r2,#1
        0x00005c82:    4620         F      MOV      r0,r4
        0x00005c84:    4629        )F      MOV      r1,r5
        0x00005c86:    f7feff73    ..s.    BL       __ARM_scalbn ; 0x4b70
        0x00005c8a:    2200        ."      MOVS     r2,#0
        0x00005c8c:    4b58        XK      LDR      r3,[pc,#352] ; [0x5df0] = 0x3ff00000
        0x00005c8e:    f7fdffc1    ....    BL       __aeabi_dsub ; 0x3c14
        0x00005c92:    463a        :F      MOV      r2,r7
        0x00005c94:    9b01        ..      LDR      r3,[sp,#4]
        0x00005c96:    f7fdffdf    ....    BL       __aeabi_ddiv ; 0x3c58
        0x00005c9a:    4604        .F      MOV      r4,r0
        0x00005c9c:    460d        .F      MOV      r5,r1
        0x00005c9e:    e03b        ;.      B        0x5d18 ; atan + 296
        0x00005ca0:    2601        .&      MOVS     r6,#1
        0x00005ca2:    2200        ."      MOVS     r2,#0
        0x00005ca4:    4b52        RK      LDR      r3,[pc,#328] ; [0x5df0] = 0x3ff00000
        0x00005ca6:    4620         F      MOV      r0,r4
        0x00005ca8:    4629        )F      MOV      r1,r5
        0x00005caa:    f7fdffa8    ....    BL       __aeabi_dadd ; 0x3bfe
        0x00005cae:    4607        .F      MOV      r7,r0
        0x00005cb0:    9100        ..      STR      r1,[sp,#0]
        0x00005cb2:    2200        ."      MOVS     r2,#0
        0x00005cb4:    4b4e        NK      LDR      r3,[pc,#312] ; [0x5df0] = 0x3ff00000
        0x00005cb6:    4620         F      MOV      r0,r4
        0x00005cb8:    4629        )F      MOV      r1,r5
        0x00005cba:    f7fdffab    ....    BL       __aeabi_dsub ; 0x3c14
        0x00005cbe:    463a        :F      MOV      r2,r7
        0x00005cc0:    9b00        ..      LDR      r3,[sp,#0]
        0x00005cc2:    f7fdffc9    ....    BL       __aeabi_ddiv ; 0x3c58
        0x00005cc6:    4604        .F      MOV      r4,r0
        0x00005cc8:    460d        .F      MOV      r5,r1
        0x00005cca:    e025        %.      B        0x5d18 ; atan + 296
        0x00005ccc:    4949        II      LDR      r1,[pc,#292] ; [0x5df4] = 0x40038000
        0x00005cce:    4288        .B      CMP      r0,r1
        0x00005cd0:    da19        ..      BGE      0x5d06 ; atan + 278
        0x00005cd2:    2602        .&      MOVS     r6,#2
        0x00005cd4:    2200        ."      MOVS     r2,#0
        0x00005cd6:    4b48        HK      LDR      r3,[pc,#288] ; [0x5df8] = 0x3ff80000
        0x00005cd8:    4620         F      MOV      r0,r4
        0x00005cda:    4629        )F      MOV      r1,r5
        0x00005cdc:    f7fefa0e    ....    BL       __aeabi_dmul ; 0x40fc
        0x00005ce0:    2200        ."      MOVS     r2,#0
        0x00005ce2:    4b43        CK      LDR      r3,[pc,#268] ; [0x5df0] = 0x3ff00000
        0x00005ce4:    f7fdff8b    ....    BL       __aeabi_dadd ; 0x3bfe
        0x00005ce8:    4607        .F      MOV      r7,r0
        0x00005cea:    9102        ..      STR      r1,[sp,#8]
        0x00005cec:    2200        ."      MOVS     r2,#0
        0x00005cee:    4b42        BK      LDR      r3,[pc,#264] ; [0x5df8] = 0x3ff80000
        0x00005cf0:    4620         F      MOV      r0,r4
        0x00005cf2:    4629        )F      MOV      r1,r5
        0x00005cf4:    f7fdff8e    ....    BL       __aeabi_dsub ; 0x3c14
        0x00005cf8:    463a        :F      MOV      r2,r7
        0x00005cfa:    9b02        ..      LDR      r3,[sp,#8]
        0x00005cfc:    f7fdffac    ....    BL       __aeabi_ddiv ; 0x3c58
        0x00005d00:    4604        .F      MOV      r4,r0
        0x00005d02:    460d        .F      MOV      r5,r1
        0x00005d04:    e008        ..      B        0x5d18 ; atan + 296
        0x00005d06:    2603        .&      MOVS     r6,#3
        0x00005d08:    4622        "F      MOV      r2,r4
        0x00005d0a:    462b        +F      MOV      r3,r5
        0x00005d0c:    2000        .       MOVS     r0,#0
        0x00005d0e:    493b        ;I      LDR      r1,[pc,#236] ; [0x5dfc] = 0xbff00000
        0x00005d10:    f7fdffa2    ....    BL       __aeabi_ddiv ; 0x3c58
        0x00005d14:    4604        .F      MOV      r4,r0
        0x00005d16:    460d        .F      MOV      r5,r1
        0x00005d18:    4622        "F      MOV      r2,r4
        0x00005d1a:    462b        +F      MOV      r3,r5
        0x00005d1c:    4610        .F      MOV      r0,r2
        0x00005d1e:    4619        .F      MOV      r1,r3
        0x00005d20:    f7fef9ec    ....    BL       __aeabi_dmul ; 0x40fc
        0x00005d24:    4607        .F      MOV      r7,r0
        0x00005d26:    460b        .F      MOV      r3,r1
        0x00005d28:    4602        .F      MOV      r2,r0
        0x00005d2a:    9101        ..      STR      r1,[sp,#4]
        0x00005d2c:    f7fef9e6    ....    BL       __aeabi_dmul ; 0x40fc
        0x00005d30:    4602        .F      MOV      r2,r0
        0x00005d32:    9002        ..      STR      r0,[sp,#8]
        0x00005d34:    4832        2H      LDR      r0,[pc,#200] ; [0x5e00] = 0x858
        0x00005d36:    460b        .F      MOV      r3,r1
        0x00005d38:    9103        ..      STR      r1,[sp,#0xc]
        0x00005d3a:    2106        .!      MOVS     r1,#6
        0x00005d3c:    4478        xD      ADD      r0,r0,pc
        0x00005d3e:    f7fffe79    ..y.    BL       __kernel_poly ; 0x5a34
        0x00005d42:    463a        :F      MOV      r2,r7
        0x00005d44:    9b01        ..      LDR      r3,[sp,#4]
        0x00005d46:    f7fef9d9    ....    BL       __aeabi_dmul ; 0x40fc
        0x00005d4a:    9000        ..      STR      r0,[sp,#0]
        0x00005d4c:    482d        -H      LDR      r0,[pc,#180] ; [0x5e04] = 0x81a
        0x00005d4e:    9101        ..      STR      r1,[sp,#4]
        0x00005d50:    2105        .!      MOVS     r1,#5
        0x00005d52:    4478        xD      ADD      r0,r0,pc
        0x00005d54:    9b03        ..      LDR      r3,[sp,#0xc]
        0x00005d56:    9a02        ..      LDR      r2,[sp,#8]
        0x00005d58:    f7fffe6c    ..l.    BL       __kernel_poly ; 0x5a34
        0x00005d5c:    9b03        ..      LDR      r3,[sp,#0xc]
        0x00005d5e:    9a02        ..      LDR      r2,[sp,#8]
        0x00005d60:    f7fef9cc    ....    BL       __aeabi_dmul ; 0x40fc
        0x00005d64:    4602        .F      MOV      r2,r0
        0x00005d66:    460b        .F      MOV      r3,r1
        0x00005d68:    9901        ..      LDR      r1,[sp,#4]
        0x00005d6a:    9800        ..      LDR      r0,[sp,#0]
        0x00005d6c:    2e00        ..      CMP      r6,#0
        0x00005d6e:    da0b        ..      BGE      0x5d88 ; atan + 408
        0x00005d70:    f7fdff45    ..E.    BL       __aeabi_dadd ; 0x3bfe
        0x00005d74:    4622        "F      MOV      r2,r4
        0x00005d76:    462b        +F      MOV      r3,r5
        0x00005d78:    f7fef9c0    ....    BL       __aeabi_dmul ; 0x40fc
        0x00005d7c:    4622        "F      MOV      r2,r4
        0x00005d7e:    462b        +F      MOV      r3,r5
        0x00005d80:    f7fdff53    ..S.    BL       __aeabi_drsub ; 0x3c2a
        0x00005d84:    b009        ..      ADD      sp,sp,#0x24
        0x00005d86:    bdf0        ..      POP      {r4-r7,pc}
        0x00005d88:    f7fdff39    ..9.    BL       __aeabi_dadd ; 0x3bfe
        0x00005d8c:    4622        "F      MOV      r2,r4
        0x00005d8e:    462b        +F      MOV      r3,r5
        0x00005d90:    f7fef9b4    ....    BL       __aeabi_dmul ; 0x40fc
        0x00005d94:    4a1c        .J      LDR      r2,[pc,#112] ; [0x5e08] = 0x7b4
        0x00005d96:    00f6        ..      LSLS     r6,r6,#3
        0x00005d98:    447a        zD      ADD      r2,r2,pc
        0x00005d9a:    1993        ..      ADDS     r3,r2,r6
        0x00005d9c:    681a        .h      LDR      r2,[r3,#0]
        0x00005d9e:    685b        [h      LDR      r3,[r3,#4]
        0x00005da0:    f7fdff38    ..8.    BL       __aeabi_dsub ; 0x3c14
        0x00005da4:    4622        "F      MOV      r2,r4
        0x00005da6:    462b        +F      MOV      r3,r5
        0x00005da8:    f7fdff34    ..4.    BL       __aeabi_dsub ; 0x3c14
        0x00005dac:    4a17        .J      LDR      r2,[pc,#92] ; [0x5e0c] = 0x77e
        0x00005dae:    447a        zD      ADD      r2,r2,pc
        0x00005db0:    1993        ..      ADDS     r3,r2,r6
        0x00005db2:    681a        .h      LDR      r2,[r3,#0]
        0x00005db4:    685b        [h      LDR      r3,[r3,#4]
        0x00005db6:    f7fdff38    ..8.    BL       __aeabi_drsub ; 0x3c2a
        0x00005dba:    9a06        ..      LDR      r2,[sp,#0x18]
        0x00005dbc:    2a00        .*      CMP      r2,#0
        0x00005dbe:    dae1        ..      BGE      0x5d84 ; atan + 404
        0x00005dc0:    2201        ."      MOVS     r2,#1
        0x00005dc2:    07d2        ..      LSLS     r2,r2,#31
        0x00005dc4:    4051        Q@      EORS     r1,r1,r2
        0x00005dc6:    b009        ..      ADD      sp,sp,#0x24
        0x00005dc8:    bdf0        ..      POP      {r4-r7,pc}
    $d
        0x00005dca:    0000        ..      DCW    0
        0x00005dcc:    44100000    ...D    DCD    1141899264
        0x00005dd0:    7ff00000    ....    DCD    2146435072
        0x00005dd4:    54442d18    .-DT    DCD    1413754136
        0x00005dd8:    3ff921fb    .!.?    DCD    1073291771
        0x00005ddc:    bff921fb    .!..    DCD    3220775419
        0x00005de0:    3fdc0000    ...?    DCD    1071382528
        0x00005de4:    3e200000    .. >    DCD    1042284544
        0x00005de8:    3ff30000    ...?    DCD    1072889856
        0x00005dec:    3fe60000    ...?    DCD    1072037888
        0x00005df0:    3ff00000    ...?    DCD    1072693248
        0x00005df4:    40038000    ...@    DCD    1073971200
        0x00005df8:    3ff80000    ...?    DCD    1073217536
        0x00005dfc:    bff00000    ....    DCD    3220176896
        0x00005e00:    00000858    X...    DCD    2136
        0x00005e04:    0000081a    ....    DCD    2074
        0x00005e08:    000007b4    ....    DCD    1972
        0x00005e0c:    0000077e    ~...    DCD    1918
    $t
    i.atan2
    atan2
        0x00005e10:    b5f0        ..      PUSH     {r4-r7,lr}
        0x00005e12:    b41f        ..      PUSH     {r0-r4}
        0x00005e14:    9b03        ..      LDR      r3,[sp,#0xc]
        0x00005e16:    4254        TB      RSBS     r4,r2,#0
        0x00005e18:    005d        ].      LSLS     r5,r3,#1
        0x00005e1a:    4616        .F      MOV      r6,r2
        0x00005e1c:    4326        &C      ORRS     r6,r6,r4
        0x00005e1e:    469c        .F      MOV      r12,r3
        0x00005e20:    0ff4        ..      LSRS     r4,r6,#31
        0x00005e22:    086d        m.      LSRS     r5,r5,#1
        0x00005e24:    004b        K.      LSLS     r3,r1,#1
        0x00005e26:    4e4e        NN      LDR      r6,[pc,#312] ; [0x5f60] = 0x7ff00000
        0x00005e28:    085b        [.      LSRS     r3,r3,#1
        0x00005e2a:    432c        ,C      ORRS     r4,r4,r5
        0x00005e2c:    468e        .F      MOV      lr,r1
        0x00005e2e:    42b4        .B      CMP      r4,r6
        0x00005e30:    d805        ..      BHI      0x5e3e ; atan2 + 46
        0x00005e32:    4247        GB      RSBS     r7,r0,#0
        0x00005e34:    4307        .C      ORRS     r7,r7,r0
        0x00005e36:    0ffc        ..      LSRS     r4,r7,#31
        0x00005e38:    431c        .C      ORRS     r4,r4,r3
        0x00005e3a:    42b4        .B      CMP      r4,r6
        0x00005e3c:    d904        ..      BLS      0x5e48 ; atan2 + 56
        0x00005e3e:    4663        cF      MOV      r3,r12
        0x00005e40:    f7fdfedd    ....    BL       __aeabi_dadd ; 0x3bfe
        0x00005e44:    b005        ..      ADD      sp,sp,#0x14
        0x00005e46:    bdf0        ..      POP      {r4-r7,pc}
        0x00005e48:    4e46        FN      LDR      r6,[pc,#280] ; [0x5f64] = 0xc0100000
        0x00005e4a:    4466        fD      ADD      r6,r6,r12
        0x00005e4c:    4316        .C      ORRS     r6,r6,r2
        0x00005e4e:    d009        ..      BEQ      0x5e64 ; atan2 + 84
        0x00005e50:    0fcc        ..      LSRS     r4,r1,#31
        0x00005e52:    4666        fF      MOV      r6,r12
        0x00005e54:    17b6        ..      ASRS     r6,r6,#30
        0x00005e56:    2702        .'      MOVS     r7,#2
        0x00005e58:    403e        >@      ANDS     r6,r6,r7
        0x00005e5a:    4326        &C      ORRS     r6,r6,r4
        0x00005e5c:    4604        .F      MOV      r4,r0
        0x00005e5e:    431c        .C      ORRS     r4,r4,r3
        0x00005e60:    d004        ..      BEQ      0x5e6c ; atan2 + 92
        0x00005e62:    e00b        ..      B        0x5e7c ; atan2 + 108
        0x00005e64:    f7fffec4    ....    BL       atan ; 0x5bf0
        0x00005e68:    b005        ..      ADD      sp,sp,#0x14
        0x00005e6a:    bdf0        ..      POP      {r4-r7,pc}
        0x00005e6c:    2e00        ..      CMP      r6,#0
        0x00005e6e:    d0fb        ..      BEQ      0x5e68 ; atan2 + 88
        0x00005e70:    2e01        ..      CMP      r6,#1
        0x00005e72:    d0f9        ..      BEQ      0x5e68 ; atan2 + 88
        0x00005e74:    2e02        ..      CMP      r6,#2
        0x00005e76:    d032        2.      BEQ      0x5ede ; atan2 + 206
        0x00005e78:    2e03        ..      CMP      r6,#3
        0x00005e7a:    d034        4.      BEQ      0x5ee6 ; atan2 + 214
        0x00005e7c:    4614        .F      MOV      r4,r2
        0x00005e7e:    432c        ,C      ORRS     r4,r4,r5
        0x00005e80:    d00b        ..      BEQ      0x5e9a ; atan2 + 138
        0x00005e82:    4c37        7L      LDR      r4,[pc,#220] ; [0x5f60] = 0x7ff00000
        0x00005e84:    42a5        .B      CMP      r5,r4
        0x00005e86:    d116        ..      BNE      0x5eb6 ; atan2 + 166
        0x00005e88:    42a3        .B      CMP      r3,r4
        0x00005e8a:    d10a        ..      BNE      0x5ea2 ; atan2 + 146
        0x00005e8c:    2101        .!      MOVS     r1,#1
        0x00005e8e:    0789        ..      LSLS     r1,r1,#30
        0x00005e90:    438d        .C      BICS     r5,r5,r1
        0x00005e92:    438b        .C      BICS     r3,r3,r1
        0x00005e94:    4619        .F      MOV      r1,r3
        0x00005e96:    9503        ..      STR      r5,[sp,#0xc]
        0x00005e98:    e00d        ..      B        0x5eb6 ; atan2 + 166
        0x00005e9a:    4670        pF      MOV      r0,lr
        0x00005e9c:    2800        .(      CMP      r0,#0
        0x00005e9e:    db0f        ..      BLT      0x5ec0 ; atan2 + 176
        0x00005ea0:    e025        %.      B        0x5eee ; atan2 + 222
        0x00005ea2:    4f31        1O      LDR      r7,[pc,#196] ; [0x5f68] = 0x750
        0x00005ea4:    447f        .D      ADD      r7,r7,pc
        0x00005ea6:    2e00        ..      CMP      r6,#0
        0x00005ea8:    d00e        ..      BEQ      0x5ec8 ; atan2 + 184
        0x00005eaa:    2e01        ..      CMP      r6,#1
        0x00005eac:    d010        ..      BEQ      0x5ed0 ; atan2 + 192
        0x00005eae:    2e02        ..      CMP      r6,#2
        0x00005eb0:    d015        ..      BEQ      0x5ede ; atan2 + 206
        0x00005eb2:    2e03        ..      CMP      r6,#3
        0x00005eb4:    d017        ..      BEQ      0x5ee6 ; atan2 + 214
        0x00005eb6:    42a3        .B      CMP      r3,r4
        0x00005eb8:    d11d        ..      BNE      0x5ef6 ; atan2 + 230
        0x00005eba:    4670        pF      MOV      r0,lr
        0x00005ebc:    2800        .(      CMP      r0,#0
        0x00005ebe:    da16        ..      BGE      0x5eee ; atan2 + 222
        0x00005ec0:    482a        *H      LDR      r0,[pc,#168] ; [0x5f6c] = 0x54442d18
        0x00005ec2:    492b        +I      LDR      r1,[pc,#172] ; [0x5f70] = 0xbff921fb
        0x00005ec4:    b005        ..      ADD      sp,sp,#0x14
        0x00005ec6:    bdf0        ..      POP      {r4-r7,pc}
        0x00005ec8:    6879        yh      LDR      r1,[r7,#4]
        0x00005eca:    6838        8h      LDR      r0,[r7,#0]
        0x00005ecc:    b005        ..      ADD      sp,sp,#0x14
        0x00005ece:    bdf0        ..      POP      {r4-r7,pc}
        0x00005ed0:    2201        ."      MOVS     r2,#1
        0x00005ed2:    6879        yh      LDR      r1,[r7,#4]
        0x00005ed4:    07d2        ..      LSLS     r2,r2,#31
        0x00005ed6:    6838        8h      LDR      r0,[r7,#0]
        0x00005ed8:    4051        Q@      EORS     r1,r1,r2
        0x00005eda:    b005        ..      ADD      sp,sp,#0x14
        0x00005edc:    bdf0        ..      POP      {r4-r7,pc}
        0x00005ede:    4823        #H      LDR      r0,[pc,#140] ; [0x5f6c] = 0x54442d18
        0x00005ee0:    4924        $I      LDR      r1,[pc,#144] ; [0x5f74] = 0x400921fb
        0x00005ee2:    b005        ..      ADD      sp,sp,#0x14
        0x00005ee4:    bdf0        ..      POP      {r4-r7,pc}
        0x00005ee6:    4821        !H      LDR      r0,[pc,#132] ; [0x5f6c] = 0x54442d18
        0x00005ee8:    4923        #I      LDR      r1,[pc,#140] ; [0x5f78] = 0xc00921fb
        0x00005eea:    b005        ..      ADD      sp,sp,#0x14
        0x00005eec:    bdf0        ..      POP      {r4-r7,pc}
        0x00005eee:    481f        .H      LDR      r0,[pc,#124] ; [0x5f6c] = 0x54442d18
        0x00005ef0:    4922        "I      LDR      r1,[pc,#136] ; [0x5f7c] = 0x3ff921fb
        0x00005ef2:    b005        ..      ADD      sp,sp,#0x14
        0x00005ef4:    bdf0        ..      POP      {r4-r7,pc}
        0x00005ef6:    1b5b        [.      SUBS     r3,r3,r5
        0x00005ef8:    151b        ..      ASRS     r3,r3,#20
        0x00005efa:    2b3c        <+      CMP      r3,#0x3c
        0x00005efc:    dd02        ..      BLE      0x5f04 ; atan2 + 244
        0x00005efe:    481b        .H      LDR      r0,[pc,#108] ; [0x5f6c] = 0x54442d18
        0x00005f00:    491e        .I      LDR      r1,[pc,#120] ; [0x5f7c] = 0x3ff921fb
        0x00005f02:    e010        ..      B        0x5f26 ; atan2 + 278
        0x00005f04:    4664        dF      MOV      r4,r12
        0x00005f06:    2c00        .,      CMP      r4,#0
        0x00005f08:    da06        ..      BGE      0x5f18 ; atan2 + 264
        0x00005f0a:    243b        ;$      MOVS     r4,#0x3b
        0x00005f0c:    43e4        .C      MVNS     r4,r4
        0x00005f0e:    42a3        .B      CMP      r3,r4
        0x00005f10:    da02        ..      BGE      0x5f18 ; atan2 + 264
        0x00005f12:    2000        .       MOVS     r0,#0
        0x00005f14:    4601        .F      MOV      r1,r0
        0x00005f16:    e006        ..      B        0x5f26 ; atan2 + 278
        0x00005f18:    9b03        ..      LDR      r3,[sp,#0xc]
        0x00005f1a:    f7fdfe9d    ....    BL       __aeabi_ddiv ; 0x3c58
        0x00005f1e:    0049        I.      LSLS     r1,r1,#1
        0x00005f20:    0849        I.      LSRS     r1,r1,#1
        0x00005f22:    f7fffe65    ..e.    BL       atan ; 0x5bf0
        0x00005f26:    2e00        ..      CMP      r6,#0
        0x00005f28:    d0e3        ..      BEQ      0x5ef2 ; atan2 + 226
        0x00005f2a:    2e01        ..      CMP      r6,#1
        0x00005f2c:    d00b        ..      BEQ      0x5f46 ; atan2 + 310
        0x00005f2e:    4a14        .J      LDR      r2,[pc,#80] ; [0x5f80] = 0x33145c07
        0x00005f30:    4b14        .K      LDR      r3,[pc,#80] ; [0x5f84] = 0x3ca1a626
        0x00005f32:    2e02        ..      CMP      r6,#2
        0x00005f34:    d00c        ..      BEQ      0x5f50 ; atan2 + 320
        0x00005f36:    f7fdfe6d    ..m.    BL       __aeabi_dsub ; 0x3c14
        0x00005f3a:    4a0c        .J      LDR      r2,[pc,#48] ; [0x5f6c] = 0x54442d18
        0x00005f3c:    4b0d        .K      LDR      r3,[pc,#52] ; [0x5f74] = 0x400921fb
        0x00005f3e:    f7fdfe69    ..i.    BL       __aeabi_dsub ; 0x3c14
        0x00005f42:    b005        ..      ADD      sp,sp,#0x14
        0x00005f44:    bdf0        ..      POP      {r4-r7,pc}
        0x00005f46:    2201        ."      MOVS     r2,#1
        0x00005f48:    07d2        ..      LSLS     r2,r2,#31
        0x00005f4a:    4051        Q@      EORS     r1,r1,r2
        0x00005f4c:    b005        ..      ADD      sp,sp,#0x14
        0x00005f4e:    bdf0        ..      POP      {r4-r7,pc}
        0x00005f50:    f7fdfe60    ..`.    BL       __aeabi_dsub ; 0x3c14
        0x00005f54:    4a05        .J      LDR      r2,[pc,#20] ; [0x5f6c] = 0x54442d18
        0x00005f56:    4b07        .K      LDR      r3,[pc,#28] ; [0x5f74] = 0x400921fb
        0x00005f58:    f7fdfe67    ..g.    BL       __aeabi_drsub ; 0x3c2a
        0x00005f5c:    b005        ..      ADD      sp,sp,#0x14
        0x00005f5e:    bdf0        ..      POP      {r4-r7,pc}
    $d
        0x00005f60:    7ff00000    ....    DCD    2146435072
        0x00005f64:    c0100000    ....    DCD    3222274048
        0x00005f68:    00000750    P...    DCD    1872
        0x00005f6c:    54442d18    .-DT    DCD    1413754136
        0x00005f70:    bff921fb    .!..    DCD    3220775419
        0x00005f74:    400921fb    .!.@    DCD    1074340347
        0x00005f78:    c00921fb    .!..    DCD    3221823995
        0x00005f7c:    3ff921fb    .!.?    DCD    1073291771
        0x00005f80:    33145c07    .\.3    DCD    856972295
        0x00005f84:    3ca1a626    &..<    DCD    1017226790
    $t
    i.cos
    cos
        0x00005f88:    b500        ..      PUSH     {lr}
        0x00005f8a:    004a        J.      LSLS     r2,r1,#1
        0x00005f8c:    4b24        $K      LDR      r3,[pc,#144] ; [0x6020] = 0x3fe921fb
        0x00005f8e:    0852        R.      LSRS     r2,r2,#1
        0x00005f90:    b087        ..      SUB      sp,sp,#0x1c
        0x00005f92:    429a        .B      CMP      r2,r3
        0x00005f94:    dc02        ..      BGT      0x5f9c ; cos + 20
        0x00005f96:    2200        ."      MOVS     r2,#0
        0x00005f98:    4613        .F      MOV      r3,r2
        0x00005f9a:    e02a        *.      B        0x5ff2 ; cos + 106
        0x00005f9c:    4b21        !K      LDR      r3,[pc,#132] ; [0x6024] = 0x7ff00000
        0x00005f9e:    429a        .B      CMP      r2,r3
        0x00005fa0:    d10c        ..      BNE      0x5fbc ; cos + 52
        0x00005fa2:    2800        .(      CMP      r0,#0
        0x00005fa4:    d10c        ..      BNE      0x5fc0 ; cos + 56
        0x00005fa6:    2001        .       MOVS     r0,#1
        0x00005fa8:    f7fefb0a    ....    BL       __set_errno ; 0x45c0
        0x00005fac:    2200        ."      MOVS     r2,#0
        0x00005fae:    4613        .F      MOV      r3,r2
        0x00005fb0:    4610        .F      MOV      r0,r2
        0x00005fb2:    4611        .F      MOV      r1,r2
        0x00005fb4:    f7fdfe50    ..P.    BL       __aeabi_ddiv ; 0x3c58
        0x00005fb8:    b007        ..      ADD      sp,sp,#0x1c
        0x00005fba:    bd00        ..      POP      {pc}
        0x00005fbc:    429a        .B      CMP      r2,r3
        0x00005fbe:    db04        ..      BLT      0x5fca ; cos + 66
        0x00005fc0:    2201        ."      MOVS     r2,#1
        0x00005fc2:    f7fefdd5    ....    BL       __ARM_scalbn ; 0x4b70
        0x00005fc6:    b007        ..      ADD      sp,sp,#0x1c
        0x00005fc8:    bd00        ..      POP      {pc}
        0x00005fca:    aa02        ..      ADD      r2,sp,#8
        0x00005fcc:    f7fffaea    ....    BL       __ieee754_rem_pio2 ; 0x55a4
        0x00005fd0:    0781        ..      LSLS     r1,r0,#30
        0x00005fd2:    0f89        ..      LSRS     r1,r1,#30
        0x00005fd4:    d00b        ..      BEQ      0x5fee ; cos + 102
        0x00005fd6:    2001        .       MOVS     r0,#1
        0x00005fd8:    2901        .)      CMP      r1,#1
        0x00005fda:    d00e        ..      BEQ      0x5ffa ; cos + 114
        0x00005fdc:    2902        .)      CMP      r1,#2
        0x00005fde:    d016        ..      BEQ      0x600e ; cos + 134
        0x00005fe0:    9000        ..      STR      r0,[sp,#0]
        0x00005fe2:    a802        ..      ADD      r0,sp,#8
        0x00005fe4:    c80f        ..      LDM      r0,{r0-r3}
        0x00005fe6:    f7fffd7b    ..{.    BL       __kernel_sin ; 0x5ae0
        0x00005fea:    b007        ..      ADD      sp,sp,#0x1c
        0x00005fec:    bd00        ..      POP      {pc}
        0x00005fee:    a802        ..      ADD      r0,sp,#8
        0x00005ff0:    c80f        ..      LDM      r0,{r0-r3}
        0x00005ff2:    f7fffca5    ....    BL       __kernel_cos ; 0x5940
        0x00005ff6:    b007        ..      ADD      sp,sp,#0x1c
        0x00005ff8:    bd00        ..      POP      {pc}
        0x00005ffa:    9000        ..      STR      r0,[sp,#0]
        0x00005ffc:    a802        ..      ADD      r0,sp,#8
        0x00005ffe:    c80f        ..      LDM      r0,{r0-r3}
        0x00006000:    f7fffd6e    ..n.    BL       __kernel_sin ; 0x5ae0
        0x00006004:    2201        ."      MOVS     r2,#1
        0x00006006:    07d2        ..      LSLS     r2,r2,#31
        0x00006008:    4051        Q@      EORS     r1,r1,r2
        0x0000600a:    b007        ..      ADD      sp,sp,#0x1c
        0x0000600c:    bd00        ..      POP      {pc}
        0x0000600e:    a802        ..      ADD      r0,sp,#8
        0x00006010:    c80f        ..      LDM      r0,{r0-r3}
        0x00006012:    f7fffc95    ....    BL       __kernel_cos ; 0x5940
        0x00006016:    2201        ."      MOVS     r2,#1
        0x00006018:    07d2        ..      LSLS     r2,r2,#31
        0x0000601a:    4051        Q@      EORS     r1,r1,r2
        0x0000601c:    b007        ..      ADD      sp,sp,#0x1c
        0x0000601e:    bd00        ..      POP      {pc}
    $d
        0x00006020:    3fe921fb    .!.?    DCD    1072243195
        0x00006024:    7ff00000    ....    DCD    2146435072
    $t
    locale$$code
    _get_lc_numeric
        0x00006028:    b510        ..      PUSH     {r4,lr}
        0x0000602a:    2900        .)      CMP      r1,#0
        0x0000602c:    d00a        ..      BEQ      0x6044 ; _get_lc_numeric + 28
        0x0000602e:    7808        .x      LDRB     r0,[r1,#0]
        0x00006030:    2800        .(      CMP      r0,#0
        0x00006032:    d007        ..      BEQ      0x6044 ; _get_lc_numeric + 28
        0x00006034:    4805        .H      LDR      r0,[pc,#20] ; [0x604c] = 0x76e
        0x00006036:    4478        xD      ADD      r0,r0,pc
        0x00006038:    f7fff9e0    ....    BL       strcmp ; 0x53fc
        0x0000603c:    2800        .(      CMP      r0,#0
        0x0000603e:    d001        ..      BEQ      0x6044 ; _get_lc_numeric + 28
        0x00006040:    2000        .       MOVS     r0,#0
        0x00006042:    bd10        ..      POP      {r4,pc}
        0x00006044:    4802        .H      LDR      r0,[pc,#8] ; [0x6050] = 0x766
        0x00006046:    4478        xD      ADD      r0,r0,pc
        0x00006048:    bd10        ..      POP      {r4,pc}
    $d
        0x0000604a:    0000        ..      DCW    0
        0x0000604c:    0000076e    n...    DCD    1902
        0x00006050:    00000766    f...    DCD    1894
    $t
    x$fpl$dleqf
    __aeabi_cdcmple
    _dcmple
        0x00006054:    b570        p.      PUSH     {r4-r6,lr}
        0x00006056:    2501        .%      MOVS     r5,#1
        0x00006058:    000c        ..      MOVS     r4,r1
        0x0000605a:    052d        -.      LSLS     r5,r5,#20
        0x0000605c:    431c        .C      ORRS     r4,r4,r3
        0x0000605e:    d410        ..      BMI      0x6082 ; __aeabi_cdcmple + 46
        0x00006060:    42ec        .B      CMN      r4,r5
        0x00006062:    d406        ..      BMI      0x6072 ; __aeabi_cdcmple + 30
        0x00006064:    42ac        .B      CMP      r4,r5
        0x00006066:    d40a        ..      BMI      0x607e ; __aeabi_cdcmple + 42
        0x00006068:    4299        .B      CMP      r1,r3
        0x0000606a:    d000        ..      BEQ      0x606e ; __aeabi_cdcmple + 26
        0x0000606c:    bd70        p.      POP      {r4-r6,pc}
        0x0000606e:    4290        .B      CMP      r0,r2
        0x00006070:    bd70        p.      POP      {r4-r6,pc}
        0x00006072:    42e9        .B      CMN      r1,r5
        0x00006074:    d417        ..      BMI      0x60a6 ; __aeabi_cdcmple + 82
        0x00006076:    42eb        .B      CMN      r3,r5
        0x00006078:    d415        ..      BMI      0x60a6 ; __aeabi_cdcmple + 82
        0x0000607a:    4299        .B      CMP      r1,r3
        0x0000607c:    bd70        p.      POP      {r4-r6,pc}
        0x0000607e:    4289        .B      CMP      r1,r1
        0x00006080:    bd70        p.      POP      {r4-r6,pc}
        0x00006082:    42ec        .B      CMN      r4,r5
        0x00006084:    d506        ..      BPL      0x6094 ; __aeabi_cdcmple + 64
        0x00006086:    42ac        .B      CMP      r4,r5
        0x00006088:    d5f9        ..      BPL      0x607e ; __aeabi_cdcmple + 42
        0x0000608a:    428b        .B      CMP      r3,r1
        0x0000608c:    d000        ..      BEQ      0x6090 ; __aeabi_cdcmple + 60
        0x0000608e:    bd70        p.      POP      {r4-r6,pc}
        0x00006090:    4282        .B      CMP      r2,r0
        0x00006092:    bd70        p.      POP      {r4-r6,pc}
        0x00006094:    006d        m.      LSLS     r5,r5,#1
        0x00006096:    004c        L.      LSLS     r4,r1,#1
        0x00006098:    42ec        .B      CMN      r4,r5
        0x0000609a:    d204        ..      BCS      0x60a6 ; __aeabi_cdcmple + 82
        0x0000609c:    005c        \.      LSLS     r4,r3,#1
        0x0000609e:    42ec        .B      CMN      r4,r5
        0x000060a0:    d201        ..      BCS      0x60a6 ; __aeabi_cdcmple + 82
        0x000060a2:    428b        .B      CMP      r3,r1
        0x000060a4:    bd70        p.      POP      {r4-r6,pc}
        0x000060a6:    4c03        .L      LDR      r4,[pc,#12] ; [0x60b4] = 0x4160019
        0x000060a8:    b430        0.      PUSH     {r4,r5}
        0x000060aa:    f7fefd19    ....    BL       __fpl_dcmp_InfNaN ; 0x4ae0
        0x000060ae:    bc30        0.      POP      {r4,r5}
        0x000060b0:    bd70        p.      POP      {r4-r6,pc}
        0x000060b2:    bf00        ..      NOP      
    $d
        0x000060b4:    04160019    ....    DCD    68550681
    $t
    x$fpl$drleqf
    __aeabi_cdrcmple
    _drcmple
        0x000060b8:    b570        p.      PUSH     {r4-r6,lr}
        0x000060ba:    2501        .%      MOVS     r5,#1
        0x000060bc:    001c        ..      MOVS     r4,r3
        0x000060be:    052d        -.      LSLS     r5,r5,#20
        0x000060c0:    430c        .C      ORRS     r4,r4,r1
        0x000060c2:    d410        ..      BMI      0x60e6 ; __aeabi_cdrcmple + 46
        0x000060c4:    42ec        .B      CMN      r4,r5
        0x000060c6:    d406        ..      BMI      0x60d6 ; __aeabi_cdrcmple + 30
        0x000060c8:    42ac        .B      CMP      r4,r5
        0x000060ca:    d40a        ..      BMI      0x60e2 ; __aeabi_cdrcmple + 42
        0x000060cc:    428b        .B      CMP      r3,r1
        0x000060ce:    d000        ..      BEQ      0x60d2 ; __aeabi_cdrcmple + 26
        0x000060d0:    bd70        p.      POP      {r4-r6,pc}
        0x000060d2:    4282        .B      CMP      r2,r0
        0x000060d4:    bd70        p.      POP      {r4-r6,pc}
        0x000060d6:    42eb        .B      CMN      r3,r5
        0x000060d8:    d417        ..      BMI      0x610a ; __aeabi_cdrcmple + 82
        0x000060da:    42e9        .B      CMN      r1,r5
        0x000060dc:    d415        ..      BMI      0x610a ; __aeabi_cdrcmple + 82
        0x000060de:    428b        .B      CMP      r3,r1
        0x000060e0:    bd70        p.      POP      {r4-r6,pc}
        0x000060e2:    429b        .B      CMP      r3,r3
        0x000060e4:    bd70        p.      POP      {r4-r6,pc}
        0x000060e6:    42ec        .B      CMN      r4,r5
        0x000060e8:    d506        ..      BPL      0x60f8 ; __aeabi_cdrcmple + 64
        0x000060ea:    42ac        .B      CMP      r4,r5
        0x000060ec:    d5f9        ..      BPL      0x60e2 ; __aeabi_cdrcmple + 42
        0x000060ee:    4299        .B      CMP      r1,r3
        0x000060f0:    d000        ..      BEQ      0x60f4 ; __aeabi_cdrcmple + 60
        0x000060f2:    bd70        p.      POP      {r4-r6,pc}
        0x000060f4:    4290        .B      CMP      r0,r2
        0x000060f6:    bd70        p.      POP      {r4-r6,pc}
        0x000060f8:    006d        m.      LSLS     r5,r5,#1
        0x000060fa:    005c        \.      LSLS     r4,r3,#1
        0x000060fc:    42ec        .B      CMN      r4,r5
        0x000060fe:    d204        ..      BCS      0x610a ; __aeabi_cdrcmple + 82
        0x00006100:    004c        L.      LSLS     r4,r1,#1
        0x00006102:    42ec        .B      CMN      r4,r5
        0x00006104:    d201        ..      BCS      0x610a ; __aeabi_cdrcmple + 82
        0x00006106:    4299        .B      CMP      r1,r3
        0x00006108:    bd70        p.      POP      {r4-r6,pc}
        0x0000610a:    b40f        ..      PUSH     {r0-r3}
        0x0000610c:    4c03        .L      LDR      r4,[pc,#12] ; [0x611c] = 0x4160019
        0x0000610e:    bc0c        ..      POP      {r2,r3}
        0x00006110:    bc03        ..      POP      {r0,r1}
        0x00006112:    b430        0.      PUSH     {r4,r5}
        0x00006114:    f7fefce4    ....    BL       __fpl_dcmp_InfNaN ; 0x4ae0
        0x00006118:    bc30        0.      POP      {r4,r5}
        0x0000611a:    bd70        p.      POP      {r4-r6,pc}
    $d
        0x0000611c:    04160019    ....    DCD    68550681
    $t
    x$fpl$fadd
    __aeabi_fadd
    _fadd
        0x00006120:    b570        p.      PUSH     {r4-r6,lr}
        0x00006122:    2501        .%      MOVS     r5,#1
        0x00006124:    0004        ..      MOVS     r4,r0
        0x00006126:    07ed        ..      LSLS     r5,r5,#31
        0x00006128:    404c        L@      EORS     r4,r4,r1
        0x0000612a:    d420         .      BMI      0x616e ; _fadd1 + 66
    _fadd1
        0x0000612c:    1a44        D.      SUBS     r4,r0,r1
        0x0000612e:    d201        ..      BCS      0x6134 ; _fadd1 + 8
        0x00006130:    1b00        ..      SUBS     r0,r0,r4
        0x00006132:    1909        ..      ADDS     r1,r1,r4
        0x00006134:    0dc6        ..      LSRS     r6,r0,#23
        0x00006136:    004b        K.      LSLS     r3,r1,#1
        0x00006138:    b2f2        ..      UXTB     r2,r6
        0x0000613a:    2aff        .*      CMP      r2,#0xff
        0x0000613c:    d029        ).      BEQ      0x6192 ; _fadd1 + 102
        0x0000613e:    0e1b        ..      LSRS     r3,r3,#24
        0x00006140:    d02c        ,.      BEQ      0x619c ; _fadd1 + 112
        0x00006142:    0200        ..      LSLS     r0,r0,#8
        0x00006144:    020c        ..      LSLS     r4,r1,#8
        0x00006146:    1ad3        ..      SUBS     r3,r2,r3
        0x00006148:    432c        ,C      ORRS     r4,r4,r5
        0x0000614a:    40dc        .@      LSRS     r4,r4,r3
        0x0000614c:    4328        (C      ORRS     r0,r0,r5
        0x0000614e:    1905        ..      ADDS     r5,r0,r4
        0x00006150:    d210        ..      BCS      0x6174 ; _fadd1 + 72
        0x00006152:    0a28        (.      LSRS     r0,r5,#8
        0x00006154:    d302        ..      BCC      0x615c ; _fadd1 + 48
        0x00006156:    1c40        @.      ADDS     r0,r0,#1
        0x00006158:    066d        m.      LSLS     r5,r5,#25
        0x0000615a:    d011        ..      BEQ      0x6180 ; _fadd1 + 84
        0x0000615c:    1e76        v.      SUBS     r6,r6,#1
        0x0000615e:    05f6        ..      LSLS     r6,r6,#23
        0x00006160:    1980        ..      ADDS     r0,r0,r6
        0x00006162:    2aff        .*      CMP      r2,#0xff
        0x00006164:    da00        ..      BGE      0x6168 ; _fadd1 + 60
        0x00006166:    bd70        p.      POP      {r4-r6,pc}
        0x00006168:    0dc0        ..      LSRS     r0,r0,#23
        0x0000616a:    05c0        ..      LSLS     r0,r0,#23
        0x0000616c:    bd70        p.      POP      {r4-r6,pc}
        0x0000616e:    4069        i@      EORS     r1,r1,r5
        0x00006170:    f000f8fa    ....    BL       _fsub1 ; 0x6368
        0x00006174:    2001        .       MOVS     r0,#1
        0x00006176:    4305        .C      ORRS     r5,r5,r0
        0x00006178:    41c5        .A      RORS     r5,r5,r0
        0x0000617a:    1c52        R.      ADDS     r2,r2,#1
        0x0000617c:    1c76        v.      ADDS     r6,r6,#1
        0x0000617e:    e7e8        ..      B        0x6152 ; _fadd1 + 38
        0x00006180:    0864        d.      LSRS     r4,r4,#1
        0x00006182:    409c        .@      LSLS     r4,r4,r3
        0x00006184:    01c9        ..      LSLS     r1,r1,#7
        0x00006186:    4061        a@      EORS     r1,r1,r4
        0x00006188:    0089        ..      LSLS     r1,r1,#2
        0x0000618a:    d1e7        ..      BNE      0x615c ; _fadd1 + 48
        0x0000618c:    2401        .$      MOVS     r4,#1
        0x0000618e:    43a0        .C      BICS     r0,r0,r4
        0x00006190:    e7e4        ..      B        0x615c ; _fadd1 + 48
        0x00006192:    0e1b        ..      LSRS     r3,r3,#24
        0x00006194:    0244        D.      LSLS     r4,r0,#9
        0x00006196:    d000        ..      BEQ      0x619a ; _fadd1 + 110
        0x00006198:    4803        .H      LDR      r0,[pc,#12] ; [0x61a8] = 0x7fc00000
        0x0000619a:    bd70        p.      POP      {r4-r6,pc}
        0x0000619c:    2a00        .*      CMP      r2,#0
        0x0000619e:    d1fc        ..      BNE      0x619a ; _fadd1 + 110
        0x000061a0:    0fc0        ..      LSRS     r0,r0,#31
        0x000061a2:    07c0        ..      LSLS     r0,r0,#31
        0x000061a4:    bd70        p.      POP      {r4-r6,pc}
        0x000061a6:    bf00        ..      NOP      
    $d
        0x000061a8:    7fc00000    ....    DCD    2143289344
    $t
    x$fpl$feqf
    __aeabi_cfcmpeq
    _fcmpeq
        0x000061ac:    2301        .#      MOVS     r3,#1
        0x000061ae:    0002        ..      MOVS     r2,r0
        0x000061b0:    05db        ..      LSLS     r3,r3,#23
        0x000061b2:    430a        .C      ORRS     r2,r2,r1
        0x000061b4:    d40d        ..      BMI      0x61d2 ; __aeabi_cfcmpeq + 38
        0x000061b6:    42da        .B      CMN      r2,r3
        0x000061b8:    d403        ..      BMI      0x61c2 ; __aeabi_cfcmpeq + 22
        0x000061ba:    429a        .B      CMP      r2,r3
        0x000061bc:    d407        ..      BMI      0x61ce ; __aeabi_cfcmpeq + 34
        0x000061be:    4288        .B      CMP      r0,r1
        0x000061c0:    4770        pG      BX       lr
        0x000061c2:    42d8        .B      CMN      r0,r3
        0x000061c4:    d414        ..      BMI      0x61f0 ; __aeabi_cfcmpeq + 68
        0x000061c6:    42d9        .B      CMN      r1,r3
        0x000061c8:    d412        ..      BMI      0x61f0 ; __aeabi_cfcmpeq + 68
        0x000061ca:    4288        .B      CMP      r0,r1
        0x000061cc:    4770        pG      BX       lr
        0x000061ce:    4280        .B      CMP      r0,r0
        0x000061d0:    4770        pG      BX       lr
        0x000061d2:    42da        .B      CMN      r2,r3
        0x000061d4:    d503        ..      BPL      0x61de ; __aeabi_cfcmpeq + 50
        0x000061d6:    429a        .B      CMP      r2,r3
        0x000061d8:    d5f9        ..      BPL      0x61ce ; __aeabi_cfcmpeq + 34
        0x000061da:    4281        .B      CMP      r1,r0
        0x000061dc:    4770        pG      BX       lr
        0x000061de:    005b        [.      LSLS     r3,r3,#1
        0x000061e0:    0042        B.      LSLS     r2,r0,#1
        0x000061e2:    42da        .B      CMN      r2,r3
        0x000061e4:    d204        ..      BCS      0x61f0 ; __aeabi_cfcmpeq + 68
        0x000061e6:    004a        J.      LSLS     r2,r1,#1
        0x000061e8:    42da        .B      CMN      r2,r3
        0x000061ea:    d201        ..      BCS      0x61f0 ; __aeabi_cfcmpeq + 68
        0x000061ec:    4281        .B      CMP      r1,r0
        0x000061ee:    4770        pG      BX       lr
        0x000061f0:    b510        ..      PUSH     {r4,lr}
        0x000061f2:    4a02        .J      LDR      r2,[pc,#8] ; [0x61fc] = 0x4120009
        0x000061f4:    f7fefcea    ....    BL       __fpl_fcmp_InfNaN ; 0x4bcc
        0x000061f8:    bd10        ..      POP      {r4,pc}
        0x000061fa:    bf00        ..      NOP      
    $d
        0x000061fc:    04120009    ....    DCD    68288521
    $t
    x$fpl$fleqf
    __aeabi_cfcmple
    _fcmple
        0x00006200:    2301        .#      MOVS     r3,#1
        0x00006202:    0002        ..      MOVS     r2,r0
        0x00006204:    05db        ..      LSLS     r3,r3,#23
        0x00006206:    430a        .C      ORRS     r2,r2,r1
        0x00006208:    d40d        ..      BMI      0x6226 ; __aeabi_cfcmple + 38
        0x0000620a:    42da        .B      CMN      r2,r3
        0x0000620c:    d403        ..      BMI      0x6216 ; __aeabi_cfcmple + 22
        0x0000620e:    429a        .B      CMP      r2,r3
        0x00006210:    d407        ..      BMI      0x6222 ; __aeabi_cfcmple + 34
        0x00006212:    4288        .B      CMP      r0,r1
        0x00006214:    4770        pG      BX       lr
        0x00006216:    42d8        .B      CMN      r0,r3
        0x00006218:    d414        ..      BMI      0x6244 ; __aeabi_cfcmple + 68
        0x0000621a:    42d9        .B      CMN      r1,r3
        0x0000621c:    d412        ..      BMI      0x6244 ; __aeabi_cfcmple + 68
        0x0000621e:    4288        .B      CMP      r0,r1
        0x00006220:    4770        pG      BX       lr
        0x00006222:    4280        .B      CMP      r0,r0
        0x00006224:    4770        pG      BX       lr
        0x00006226:    42da        .B      CMN      r2,r3
        0x00006228:    d503        ..      BPL      0x6232 ; __aeabi_cfcmple + 50
        0x0000622a:    429a        .B      CMP      r2,r3
        0x0000622c:    d5f9        ..      BPL      0x6222 ; __aeabi_cfcmple + 34
        0x0000622e:    4281        .B      CMP      r1,r0
        0x00006230:    4770        pG      BX       lr
        0x00006232:    005b        [.      LSLS     r3,r3,#1
        0x00006234:    0042        B.      LSLS     r2,r0,#1
        0x00006236:    42da        .B      CMN      r2,r3
        0x00006238:    d204        ..      BCS      0x6244 ; __aeabi_cfcmple + 68
        0x0000623a:    004a        J.      LSLS     r2,r1,#1
        0x0000623c:    42da        .B      CMN      r2,r3
        0x0000623e:    d201        ..      BCS      0x6244 ; __aeabi_cfcmple + 68
        0x00006240:    4281        .B      CMP      r1,r0
        0x00006242:    4770        pG      BX       lr
        0x00006244:    b510        ..      PUSH     {r4,lr}
        0x00006246:    4a02        .J      LDR      r2,[pc,#8] ; [0x6250] = 0x4160009
        0x00006248:    f7fefcc0    ....    BL       __fpl_fcmp_InfNaN ; 0x4bcc
        0x0000624c:    bd10        ..      POP      {r4,pc}
        0x0000624e:    bf00        ..      NOP      
    $d
        0x00006250:    04160009    ....    DCD    68550665
    $t
    x$fpl$fmul
    __aeabi_fmul
    _fmul
        0x00006254:    b570        p.      PUSH     {r4-r6,lr}
        0x00006256:    0042        B.      LSLS     r2,r0,#1
        0x00006258:    4164        dA      ADCS     r4,r4,r4
        0x0000625a:    004b        K.      LSLS     r3,r1,#1
        0x0000625c:    415c        \A      ADCS     r4,r4,r3
        0x0000625e:    0e12        ..      LSRS     r2,r2,#24
        0x00006260:    d039        9.      BEQ      0x62d6 ; __aeabi_fmul + 130
        0x00006262:    0e1b        ..      LSRS     r3,r3,#24
        0x00006264:    d038        8.      BEQ      0x62d8 ; __aeabi_fmul + 132
        0x00006266:    2aff        .*      CMP      r2,#0xff
        0x00006268:    d03c        <.      BEQ      0x62e4 ; __aeabi_fmul + 144
        0x0000626a:    2bff        .+      CMP      r3,#0xff
        0x0000626c:    d03a        :.      BEQ      0x62e4 ; __aeabi_fmul + 144
        0x0000626e:    0240        @.      LSLS     r0,r0,#9
        0x00006270:    0249        I.      LSLS     r1,r1,#9
        0x00006272:    0a40        @.      LSRS     r0,r0,#9
        0x00006274:    0a49        I.      LSRS     r1,r1,#9
        0x00006276:    0006        ..      MOVS     r6,r0
        0x00006278:    1845        E.      ADDS     r5,r0,r1
        0x0000627a:    434e        NC      MULS     r6,r1,r6
        0x0000627c:    0a00        ..      LSRS     r0,r0,#8
        0x0000627e:    0a09        ..      LSRS     r1,r1,#8
        0x00006280:    18d2        ..      ADDS     r2,r2,r3
        0x00006282:    4348        HC      MULS     r0,r1,r0
        0x00006284:    01ed        ..      LSLS     r5,r5,#7
        0x00006286:    3a7f        .:      SUBS     r2,r2,#0x7f
        0x00006288:    0401        ..      LSLS     r1,r0,#16
        0x0000628a:    1a73        s.      SUBS     r3,r6,r1
        0x0000628c:    1940        @.      ADDS     r0,r0,r5
        0x0000628e:    0c19        ..      LSRS     r1,r3,#16
        0x00006290:    1843        C.      ADDS     r3,r0,r1
        0x00006292:    0f99        ..      LSRS     r1,r3,#30
        0x00006294:    d004        ..      BEQ      0x62a0 ; __aeabi_fmul + 76
        0x00006296:    2101        .!      MOVS     r1,#1
        0x00006298:    085b        [.      LSRS     r3,r3,#1
        0x0000629a:    0749        I.      LSLS     r1,r1,#29
        0x0000629c:    1a5b        [.      SUBS     r3,r3,r1
        0x0000629e:    1c52        R.      ADDS     r2,r2,#1
        0x000062a0:    09d8        ..      LSRS     r0,r3,#7
        0x000062a2:    d304        ..      BCC      0x62ae ; __aeabi_fmul + 90
        0x000062a4:    1c40        @.      ADDS     r0,r0,#1
        0x000062a6:    03f5        ..      LSLS     r5,r6,#15
        0x000062a8:    d101        ..      BNE      0x62ae ; __aeabi_fmul + 90
        0x000062aa:    069d        ..      LSLS     r5,r3,#26
        0x000062ac:    d007        ..      BEQ      0x62be ; __aeabi_fmul + 106
        0x000062ae:    2aff        .*      CMP      r2,#0xff
        0x000062b0:    d208        ..      BCS      0x62c4 ; __aeabi_fmul + 112
        0x000062b2:    05d5        ..      LSLS     r5,r2,#23
        0x000062b4:    d006        ..      BEQ      0x62c4 ; __aeabi_fmul + 112
        0x000062b6:    07e4        ..      LSLS     r4,r4,#31
        0x000062b8:    4320         C      ORRS     r0,r0,r4
        0x000062ba:    1940        @.      ADDS     r0,r0,r5
        0x000062bc:    bd70        p.      POP      {r4-r6,pc}
        0x000062be:    2501        .%      MOVS     r5,#1
        0x000062c0:    43a8        .C      BICS     r0,r0,r5
        0x000062c2:    e7f4        ..      B        0x62ae ; __aeabi_fmul + 90
        0x000062c4:    2a00        .*      CMP      r2,#0
        0x000062c6:    dc01        ..      BGT      0x62cc ; __aeabi_fmul + 120
        0x000062c8:    07e0        ..      LSLS     r0,r4,#31
        0x000062ca:    bd70        p.      POP      {r4-r6,pc}
        0x000062cc:    0224        $.      LSLS     r4,r4,#8
        0x000062ce:    20ff        .       MOVS     r0,#0xff
        0x000062d0:    4320         C      ORRS     r0,r0,r4
        0x000062d2:    05c0        ..      LSLS     r0,r0,#23
        0x000062d4:    bd70        p.      POP      {r4-r6,pc}
        0x000062d6:    0e1b        ..      LSRS     r3,r3,#24
        0x000062d8:    2aff        .*      CMP      r2,#0xff
        0x000062da:    d003        ..      BEQ      0x62e4 ; __aeabi_fmul + 144
        0x000062dc:    2bff        .+      CMP      r3,#0xff
        0x000062de:    d001        ..      BEQ      0x62e4 ; __aeabi_fmul + 144
        0x000062e0:    07e0        ..      LSLS     r0,r4,#31
        0x000062e2:    bd70        p.      POP      {r4-r6,pc}
        0x000062e4:    26ff        .&      MOVS     r6,#0xff
        0x000062e6:    0045        E.      LSLS     r5,r0,#1
        0x000062e8:    0636        6.      LSLS     r6,r6,#24
        0x000062ea:    42b5        .B      CMP      r5,r6
        0x000062ec:    d806        ..      BHI      0x62fc ; __aeabi_fmul + 168
        0x000062ee:    004d        M.      LSLS     r5,r1,#1
        0x000062f0:    42b5        .B      CMP      r5,r6
        0x000062f2:    d803        ..      BHI      0x62fc ; __aeabi_fmul + 168
        0x000062f4:    18d2        ..      ADDS     r2,r2,r3
        0x000062f6:    2aff        .*      CMP      r2,#0xff
        0x000062f8:    d000        ..      BEQ      0x62fc ; __aeabi_fmul + 168
        0x000062fa:    e7e7        ..      B        0x62cc ; __aeabi_fmul + 120
        0x000062fc:    4800        .H      LDR      r0,[pc,#0] ; [0x6300] = 0x7fc00000
        0x000062fe:    bd70        p.      POP      {r4-r6,pc}
    $d
        0x00006300:    7fc00000    ....    DCD    2143289344
    $t
    x$fpl$frleqf
    __aeabi_cfrcmple
    _frcmple
        0x00006304:    2301        .#      MOVS     r3,#1
        0x00006306:    000a        ..      MOVS     r2,r1
        0x00006308:    05db        ..      LSLS     r3,r3,#23
        0x0000630a:    4302        .C      ORRS     r2,r2,r0
        0x0000630c:    d40d        ..      BMI      0x632a ; __aeabi_cfrcmple + 38
        0x0000630e:    42da        .B      CMN      r2,r3
        0x00006310:    d403        ..      BMI      0x631a ; __aeabi_cfrcmple + 22
        0x00006312:    429a        .B      CMP      r2,r3
        0x00006314:    d407        ..      BMI      0x6326 ; __aeabi_cfrcmple + 34
        0x00006316:    4281        .B      CMP      r1,r0
        0x00006318:    4770        pG      BX       lr
        0x0000631a:    42d9        .B      CMN      r1,r3
        0x0000631c:    d414        ..      BMI      0x6348 ; __aeabi_cfrcmple + 68
        0x0000631e:    42d8        .B      CMN      r0,r3
        0x00006320:    d412        ..      BMI      0x6348 ; __aeabi_cfrcmple + 68
        0x00006322:    4281        .B      CMP      r1,r0
        0x00006324:    4770        pG      BX       lr
        0x00006326:    4289        .B      CMP      r1,r1
        0x00006328:    4770        pG      BX       lr
        0x0000632a:    42da        .B      CMN      r2,r3
        0x0000632c:    d503        ..      BPL      0x6336 ; __aeabi_cfrcmple + 50
        0x0000632e:    429a        .B      CMP      r2,r3
        0x00006330:    d5f9        ..      BPL      0x6326 ; __aeabi_cfrcmple + 34
        0x00006332:    4288        .B      CMP      r0,r1
        0x00006334:    4770        pG      BX       lr
        0x00006336:    005b        [.      LSLS     r3,r3,#1
        0x00006338:    004a        J.      LSLS     r2,r1,#1
        0x0000633a:    42da        .B      CMN      r2,r3
        0x0000633c:    d204        ..      BCS      0x6348 ; __aeabi_cfrcmple + 68
        0x0000633e:    0042        B.      LSLS     r2,r0,#1
        0x00006340:    42da        .B      CMN      r2,r3
        0x00006342:    d201        ..      BCS      0x6348 ; __aeabi_cfrcmple + 68
        0x00006344:    4288        .B      CMP      r0,r1
        0x00006346:    4770        pG      BX       lr
        0x00006348:    4048        H@      EORS     r0,r0,r1
        0x0000634a:    4041        A@      EORS     r1,r1,r0
        0x0000634c:    b510        ..      PUSH     {r4,lr}
        0x0000634e:    4a02        .J      LDR      r2,[pc,#8] ; [0x6358] = 0x4160009
        0x00006350:    4048        H@      EORS     r0,r0,r1
        0x00006352:    f7fefc3b    ..;.    BL       __fpl_fcmp_InfNaN ; 0x4bcc
        0x00006356:    bd10        ..      POP      {r4,pc}
    $d
        0x00006358:    04160009    ....    DCD    68550665
    $t
    x$fpl$fsub
    __aeabi_fsub
    _fsub
        0x0000635c:    b570        p.      PUSH     {r4-r6,lr}
        0x0000635e:    2501        .%      MOVS     r5,#1
        0x00006360:    0004        ..      MOVS     r4,r0
        0x00006362:    07ed        ..      LSLS     r5,r5,#31
        0x00006364:    404c        L@      EORS     r4,r4,r1
        0x00006366:    d422        ".      BMI      0x63ae ; _fsub1 + 70
    _fsub1
        0x00006368:    1a44        D.      SUBS     r4,r0,r1
        0x0000636a:    d202        ..      BCS      0x6372 ; _fsub1 + 10
        0x0000636c:    406c        l@      EORS     r4,r4,r5
        0x0000636e:    1b00        ..      SUBS     r0,r0,r4
        0x00006370:    1909        ..      ADDS     r1,r1,r4
        0x00006372:    0dc6        ..      LSRS     r6,r0,#23
        0x00006374:    004b        K.      LSLS     r3,r1,#1
        0x00006376:    b2f2        ..      UXTB     r2,r6
        0x00006378:    2aff        .*      CMP      r2,#0xff
        0x0000637a:    d04b        K.      BEQ      0x6414 ; _fsub1 + 172
        0x0000637c:    0e1b        ..      LSRS     r3,r3,#24
        0x0000637e:    d050        P.      BEQ      0x6422 ; _fsub1 + 186
        0x00006380:    0200        ..      LSLS     r0,r0,#8
        0x00006382:    020c        ..      LSLS     r4,r1,#8
        0x00006384:    1ad3        ..      SUBS     r3,r2,r3
        0x00006386:    432c        ,C      ORRS     r4,r4,r5
        0x00006388:    40dc        .@      LSRS     r4,r4,r3
        0x0000638a:    43a8        .C      BICS     r0,r0,r5
        0x0000638c:    1b05        ..      SUBS     r5,r0,r4
        0x0000638e:    d505        ..      BPL      0x639c ; _fsub1 + 52
        0x00006390:    00ad        ..      LSLS     r5,r5,#2
        0x00006392:    d319        ..      BCC      0x63c8 ; _fsub1 + 96
        0x00006394:    086d        m.      LSRS     r5,r5,#1
        0x00006396:    1e76        v.      SUBS     r6,r6,#1
        0x00006398:    1e52        R.      SUBS     r2,r2,#1
        0x0000639a:    d037        7.      BEQ      0x640c ; _fsub1 + 164
        0x0000639c:    05f6        ..      LSLS     r6,r6,#23
        0x0000639e:    0a28        (.      LSRS     r0,r5,#8
        0x000063a0:    d201        ..      BCS      0x63a6 ; _fsub1 + 62
        0x000063a2:    1980        ..      ADDS     r0,r0,r6
        0x000063a4:    bd70        p.      POP      {r4-r6,pc}
        0x000063a6:    4170        pA      ADCS     r0,r0,r6
        0x000063a8:    066d        m.      LSLS     r5,r5,#25
        0x000063aa:    d003        ..      BEQ      0x63b4 ; _fsub1 + 76
        0x000063ac:    bd70        p.      POP      {r4-r6,pc}
        0x000063ae:    4069        i@      EORS     r1,r1,r5
        0x000063b0:    f7fffebc    ....    BL       _fadd1 ; 0x612c
        0x000063b4:    409c        .@      LSLS     r4,r4,r3
        0x000063b6:    0209        ..      LSLS     r1,r1,#8
        0x000063b8:    4061        a@      EORS     r1,r1,r4
        0x000063ba:    0049        I.      LSLS     r1,r1,#1
        0x000063bc:    d001        ..      BEQ      0x63c2 ; _fsub1 + 90
        0x000063be:    1e40        @.      SUBS     r0,r0,#1
        0x000063c0:    bd70        p.      POP      {r4-r6,pc}
        0x000063c2:    2401        .$      MOVS     r4,#1
        0x000063c4:    43a0        .C      BICS     r0,r0,r4
        0x000063c6:    bd70        p.      POP      {r4-r6,pc}
        0x000063c8:    086d        m.      LSRS     r5,r5,#1
        0x000063ca:    d01d        ..      BEQ      0x6408 ; _fsub1 + 160
        0x000063cc:    2001        .       MOVS     r0,#1
        0x000063ce:    0c2b        +.      LSRS     r3,r5,#16
        0x000063d0:    d101        ..      BNE      0x63d6 ; _fsub1 + 110
        0x000063d2:    042d        -.      LSLS     r5,r5,#16
        0x000063d4:    3010        .0      ADDS     r0,r0,#0x10
        0x000063d6:    0e2b        +.      LSRS     r3,r5,#24
        0x000063d8:    d101        ..      BNE      0x63de ; _fsub1 + 118
        0x000063da:    022d        -.      LSLS     r5,r5,#8
        0x000063dc:    3008        .0      ADDS     r0,r0,#8
        0x000063de:    0f2b        +.      LSRS     r3,r5,#28
        0x000063e0:    d101        ..      BNE      0x63e6 ; _fsub1 + 126
        0x000063e2:    012d        -.      LSLS     r5,r5,#4
        0x000063e4:    1d00        ..      ADDS     r0,r0,#4
        0x000063e6:    0fab        ..      LSRS     r3,r5,#30
        0x000063e8:    d101        ..      BNE      0x63ee ; _fsub1 + 134
        0x000063ea:    00ad        ..      LSLS     r5,r5,#2
        0x000063ec:    1c80        ..      ADDS     r0,r0,#2
        0x000063ee:    0feb        ..      LSRS     r3,r5,#31
        0x000063f0:    d101        ..      BNE      0x63f6 ; _fsub1 + 142
        0x000063f2:    006d        m.      LSLS     r5,r5,#1
        0x000063f4:    1c40        @.      ADDS     r0,r0,#1
        0x000063f6:    006d        m.      LSLS     r5,r5,#1
        0x000063f8:    1a36        6.      SUBS     r6,r6,r0
        0x000063fa:    1a12        ..      SUBS     r2,r2,r0
        0x000063fc:    0a68        h.      LSRS     r0,r5,#9
        0x000063fe:    05f5        ..      LSLS     r5,r6,#23
        0x00006400:    1940        @.      ADDS     r0,r0,r5
        0x00006402:    2a01        .*      CMP      r2,#1
        0x00006404:    db02        ..      BLT      0x640c ; _fsub1 + 164
        0x00006406:    bd70        p.      POP      {r4-r6,pc}
        0x00006408:    2000        .       MOVS     r0,#0
        0x0000640a:    bd70        p.      POP      {r4-r6,pc}
        0x0000640c:    36c0        .6      ADDS     r6,r6,#0xc0
        0x0000640e:    0a30        0.      LSRS     r0,r6,#8
        0x00006410:    07c0        ..      LSLS     r0,r0,#31
        0x00006412:    bd70        p.      POP      {r4-r6,pc}
        0x00006414:    0e1b        ..      LSRS     r3,r3,#24
        0x00006416:    0244        D.      LSLS     r4,r0,#9
        0x00006418:    d101        ..      BNE      0x641e ; _fsub1 + 182
        0x0000641a:    2bff        .+      CMP      r3,#0xff
        0x0000641c:    d100        ..      BNE      0x6420 ; _fsub1 + 184
        0x0000641e:    4802        .H      LDR      r0,[pc,#8] ; [0x6428] = 0x7fc00000
        0x00006420:    bd70        p.      POP      {r4-r6,pc}
        0x00006422:    2a00        .*      CMP      r2,#0
        0x00006424:    d0f0        ..      BEQ      0x6408 ; _fsub1 + 160
        0x00006426:    bd70        p.      POP      {r4-r6,pc}
    $d
        0x00006428:    7fc00000    ....    DCD    2143289344
    $t
    x$fpl$printf1
    _printf_fp_dec
        0x0000642c:    b403        ..      PUSH     {r0,r1}
        0x0000642e:    4802        .H      LDR      r0,[pc,#8] ; [0x6438] = 0xffffe3e7
        0x00006430:    4478        xD      ADD      r0,r0,pc
        0x00006432:    4684        .F      MOV      r12,r0
        0x00006434:    bc03        ..      POP      {r0,r1}
        0x00006436:    4760        `G      BX       r12
    $d
        0x00006438:    ffffe3e7    ....    DCD    4294960103
    x$fpl$usenofp
    __I$use$fp
        0x0000643c:    00000000    ....    DCD    0
    $d.realdata
    .constdata
    UDIR
        0x00006440:    00000000    ....    DCD    0
        0x00006444:    3ff00000    ...?    DCD    1072693248
        0x00006448:    00000000    ....    DCD    0
        0x0000644c:    bff00000    ....    DCD    3220176896
        0x00006450:    00000000    ....    DCD    0
        0x00006454:    bff00000    ....    DCD    3220176896
        0x00006458:    00000000    ....    DCD    0
        0x0000645c:    bff00000    ....    DCD    3220176896
        0x00006460:    00000000    ....    DCD    0
        0x00006464:    3ff00000    ...?    DCD    1072693248
        0x00006468:    00000000    ....    DCD    0
        0x0000646c:    bff00000    ....    DCD    3220176896
    .constdata
    ddiv_reciptbl
        0x00006470:    7e7f8080    ...~    DCD    2122285184
        0x00006474:    7a7b7c7d    }|{z    DCD    2054913149
        0x00006478:    76777879    yxwv    DCD    1987541113
        0x0000647c:    73747576    vuts    DCD    1937012086
        0x00006480:    70717172    rqqp    DCD    1886482802
        0x00006484:    6d6e6e6f    onnm    DCD    1835953775
        0x00006488:    6a6b6c6c    llkj    DCD    1785425004
        0x0000648c:    6868696a    jihh    DCD    1751673194
        0x00006490:    65666667    gffe    DCD    1701209703
        0x00006494:    63636464    ddcc    DCD    1667458148
        0x00006498:    60616162    baa`    DCD    1616994658
        0x0000649c:    5e5f5f60    `__^    DCD    1583308640
        0x000064a0:    5c5d5d5e    ^]]\    DCD    1549622622
        0x000064a4:    5a5b5b5c    \[[Z    DCD    1515936604
        0x000064a8:    5859595a    ZYYX    DCD    1482250586
        0x000064ac:    56575758    XWWV    DCD    1448564568
        0x000064b0:    55555556    VUUU    DCD    1431655766
        0x000064b4:    53535454    TTSS    DCD    1397970004
        0x000064b8:    51525252    RRRQ    DCD    1364349522
        0x000064bc:    50505051    QPPP    DCD    1347440721
        0x000064c0:    4e4f4f4f    OOON    DCD    1313820495
        0x000064c4:    4d4d4d4e    NMMM    DCD    1296911694
        0x000064c8:    4b4c4c4c    LLLK    DCD    1263291468
        0x000064cc:    4a4a4b4b    KKJJ    DCD    1246382923
        0x000064d0:    4949494a    JIII    DCD    1229539658
        0x000064d4:    47484848    HHHG    DCD    1195919432
        0x000064d8:    46474747    GGGF    DCD    1179076423
        0x000064dc:    45454646    FFEE    DCD    1162167878
        0x000064e0:    44444445    EDDD    DCD    1145324613
        0x000064e4:    43434344    DCCC    DCD    1128481604
        0x000064e8:    42424243    CBBB    DCD    1111638595
        0x000064ec:    41414142    BAAA    DCD    1094795586
    .constdata
    fdiv_tab
        0x000064f0:    84838281    ....    DCD    2223211137
        0x000064f4:    88878685    ....    DCD    2290583173
        0x000064f8:    8d8c8b89    ....    DCD    2374798217
        0x000064fc:    92918f8e    ....    DCD    2459013006
        0x00006500:    97969593    ....    DCD    2543228307
        0x00006504:    9d9c9a99    ....    DCD    2644286105
        0x00006508:    a3a2a09f    ....    DCD    2745344159
        0x0000650c:    aaa8a7a5    ....    DCD    2863179685
        0x00006510:    b2b0aeac    ....    DCD    2997923500
        0x00006514:    b9b7b5b3    ....    DCD    3115824563
        0x00006518:    c2c0bebc    ....    DCD    3267411644
        0x0000651c:    ccc9c7c5    ....    DCD    3435775941
        0x00006520:    d7d4d1ce    ....    DCD    3621048782
        0x00006524:    e2dfdcd9    ....    DCD    3806321881
        0x00006528:    f0ece9e6    ....    DCD    4042058214
        0x0000652c:    fefaf7f3    ....    DCD    4277860339
    .constdata
    atanhi
        0x00006530:    0561bb4f    O.a.    DCD    90291023
        0x00006534:    3fddac67    g..?    DCD    1071492199
        0x00006538:    54442d18    .-DT    DCD    1413754136
        0x0000653c:    3fe921fb    .!.?    DCD    1072243195
        0x00006540:    d281f69b    ....    DCD    3531732635
        0x00006544:    3fef730b    .s.?    DCD    1072657163
        0x00006548:    54442d18    .-DT    DCD    1413754136
        0x0000654c:    3ff921fb    .!.?    DCD    1073291771
    atanlo
        0x00006550:    222f65e2    .e/"    DCD    573531618
        0x00006554:    3c7a2b7f    .+z<    DCD    1014639487
        0x00006558:    33145c07    .\.3    DCD    856972295
        0x0000655c:    3c81a626    &..<    DCD    1015129638
        0x00006560:    7af0cbbd    ...z    DCD    2062601149
        0x00006564:    3c700788    ..p<    DCD    1013974920
        0x00006568:    33145c07    .\.3    DCD    856972295
        0x0000656c:    3c91a626    &..<    DCD    1016178214
    aTodd
        0x00006570:    9998ebc4    ....    DCD    2576935876
        0x00006574:    bfc99999    ....    DCD    3217660313
        0x00006578:    fe231671    q.#.    DCD    4263712369
        0x0000657c:    bfbc71c6    .q..    DCD    3216798150
        0x00006580:    af749a6d    m.t.    DCD    2943654509
        0x00006584:    bfb3b0f2    ....    DCD    3216224498
        0x00006588:    52defd9a    ...R    DCD    1390345626
        0x0000658c:    bfadde2d    -...    DCD    3215842861
        0x00006590:    2c6a6c2f    /lj,    DCD    745172015
        0x00006594:    bfa2b444    D...    DCD    3215111236
    aTeven
        0x00006598:    5555550d    .UUU    DCD    1431655693
        0x0000659c:    3fd55555    UU.?    DCD    1070945621
        0x000065a0:    920083ff    ....    DCD    2449507327
        0x000065a4:    3fc24924    $I.?    DCD    1069697316
        0x000065a8:    c54c206e    n L.    DCD    3310100590
        0x000065ac:    3fb745cd    .E.?    DCD    1068975565
        0x000065b0:    a0d03d51    Q=..    DCD    2698001745
        0x000065b4:    3fb10d66    f..?    DCD    1068567910
        0x000065b8:    24760deb    ..v$    DCD    611716587
        0x000065bc:    3fa97b4b    K{.?    DCD    1068071755
        0x000065c0:    e322da11    ..".    DCD    3810712081
        0x000065c4:    3f90ad3a    :..?    DCD    1066446138
    .constdata
    C
        0x000065c8:    5555554c    LUUU    DCD    1431655756
        0x000065cc:    3fa55555    UU.?    DCD    1067799893
        0x000065d0:    16c15177    wQ..    DCD    381768055
        0x000065d4:    bf56c16c    l.V.    DCD    3210133868
        0x000065d8:    19cb1590    ....    DCD    432739728
        0x000065dc:    3efa01a0    ...>    DCD    1056571808
        0x000065e0:    809c52ad    .R..    DCD    2157728429
        0x000065e4:    be927e4f    O~..    DCD    3197271631
        0x000065e8:    bdb4b1c4    ....    DCD    3182735812
        0x000065ec:    3e21ee9e    ..!>    DCD    1042411166
        0x000065f0:    be8838d4    .8..    DCD    3196598484
        0x000065f4:    bda8fae9    ....    DCD    3181968105
    .constdata
    __mathlib_zero
        0x000065f8:    00000000    ....    DCD    0
        0x000065fc:    00000000    ....    DCD    0
    .constdata
    pio2s
        0x00006600:    54400000    ..@T    DCD    1413480448
        0x00006604:    3ff921fb    .!.?    DCD    1073291771
        0x00006608:    1a626331    1cb.    DCD    442655537
        0x0000660c:    3dd0b461    a..=    DCD    1037087841
        0x00006610:    1a600000    ..`.    DCD    442499072
        0x00006614:    3dd0b461    a..=    DCD    1037087841
        0x00006618:    2e037073    sp..    DCD    771977331
        0x0000661c:    3ba3198a    ...;    DCD    1000544650
        0x00006620:    2e000000    ....    DCD    771751936
        0x00006624:    3ba3198a    ...;    DCD    1000544650
        0x00006628:    252049c1    .I %    DCD    622873025
        0x0000662c:    397b839a    ..{9    DCD    964395930
    twooverpi
        0x00006630:    00000000    ....    DCD    0
        0x00006634:    00000000    ....    DCD    0
        0x00006638:    a2f9836e    n...    DCD    2734261102
        0x0000663c:    4e441529    ).DN    DCD    1313084713
        0x00006640:    fc2757d1    .W'.    DCD    4230436817
        0x00006644:    f534ddc0    ..4.    DCD    4113882560
        0x00006648:    db629599    ..b.    DCD    3680671129
        0x0000664c:    3c439041    A.C<    DCD    1011060801
        0x00006650:    fe5163ab    .cQ.    DCD    4266746795
        0x00006654:    debbc561    a...    DCD    3736847713
        0x00006658:    b7246e3a    :n$.    DCD    3072618042
        0x0000665c:    424dd2e0    ..MB    DCD    1112396512
        0x00006660:    06492eea    ..I.    DCD    105459434
        0x00006664:    09d1921c    ....    DCD    164729372
        0x00006668:    fe1deb1c    ....    DCD    4263373596
        0x0000666c:    b129a73e    >.).    DCD    2972297022
        0x00006670:    e88235f5    .5..    DCD    3900847605
        0x00006674:    2ebb4484    .D..    DCD    784024708
        0x00006678:    e99c7026    &p..    DCD    3919343654
        0x0000667c:    b45f7e41    A~_.    DCD    3026157121
        0x00006680:    3991d639    9..9    DCD    965858873
        0x00006684:    835339f4    .9S.    DCD    2203269620
        0x00006688:    9c845f8b    ._..    DCD    2625920907
        0x0000668c:    bdf9283b    ;(..    DCD    3187222587
        0x00006690:    1ff897ff    ....    DCD    536385535
        0x00006694:    de05980f    ....    DCD    3724908559
        0x00006698:    ef2f118b    ../.    DCD    4012839307
        0x0000669c:    5a0a6d1f    .m.Z    DCD    1510632735
        0x000066a0:    6d367ecf    .~6m    DCD    1832287951
        0x000066a4:    27cb09b7    ...'    DCD    667617719
        0x000066a8:    4f463f66    f?FO    DCD    1330003814
        0x000066ac:    9e5fea2d    -._.    DCD    2657085997
        0x000066b0:    7527bac7    ..'u    DCD    1965537991
        0x000066b4:    ebe5f17b    {...    DCD    3957715323
        0x000066b8:    3d0739f7    .9.=    DCD    1023883767
        0x000066bc:    8a5292ea    ..R.    DCD    2320667370
        0x000066c0:    6bfb5fb1    ._.k    DCD    1811636145
        0x000066c4:    1f8d5d08    .]..    DCD    529358088
    .constdata
    S
        0x000066c8:    1110f8a6    ....    DCD    286324902
        0x000066cc:    3f811111    ...?    DCD    1065423121
        0x000066d0:    19c161d5    .a..    DCD    432103893
        0x000066d4:    bf2a01a0    ..*.    DCD    3207201184
        0x000066d8:    57b1fe7d    }..W    DCD    1471282813
        0x000066dc:    3ec71de3    ...>    DCD    1053236707
        0x000066e0:    8a2b9ceb    ..+.    DCD    2318114027
        0x000066e4:    be5ae5e6    ..Z.    DCD    3193628134
        0x000066e8:    5acfd57c    |..Z    DCD    1523570044
        0x000066ec:    3de5d93a    :..=    DCD    1038473530
    .constdata
    tenpwrs_x
        0x000066f0:    00004002    .@..    DCD    16386
        0x000066f4:    a0000000    ....    DCD    2684354560
        0x000066f8:    00000000    ....    DCD    0
        0x000066fc:    00004005    .@..    DCD    16389
        0x00006700:    c8000000    ....    DCD    3355443200
        0x00006704:    00000000    ....    DCD    0
        0x00006708:    0000400c    .@..    DCD    16396
        0x0000670c:    9c400000    ..@.    DCD    2621440000
        0x00006710:    00000000    ....    DCD    0
        0x00006714:    00004019    .@..    DCD    16409
        0x00006718:    bebc2000    . ..    DCD    3200000000
        0x0000671c:    00000000    ....    DCD    0
        0x00006720:    00004034    4@..    DCD    16436
        0x00006724:    8e1bc9bf    ....    DCD    2384185791
        0x00006728:    04000000    ....    DCD    67108864
    tenpwrs_i
        0x0000672c:    000040b5    .@..    DCD    16565
        0x00006730:    d0cf4b50    PK..    DCD    3503246160
        0x00006734:    cfe20766    f...    DCD    3487696742
        0x00006738:    00000001    ....    DCD    1
        0x0000673c:    0000416c    lA..    DCD    16748
        0x00006740:    aa51823e    >.Q.    DCD    2857468478
        0x00006744:    34a7eedf    ...4    DCD    883420895
        0x00006748:    00000001    ....    DCD    1
        0x0000674c:    000042d9    .B..    DCD    17113
        0x00006750:    e2a0b5dc    ....    DCD    3802183132
        0x00006754:    971f303a    :0..    DCD    2535403578
        0x00006758:    ffffffff    ....    DCD    4294967295
        0x0000675c:    000045b4    .E..    DCD    17844
        0x00006760:    c8a025fd    .%..    DCD    3365938685
        0x00006764:    4fc1a3e9    ...O    DCD    1338090473
        0x00006768:    ffffffff    ....    DCD    4294967295
        0x0000676c:    00003fff    .?..    DCD    16383
        0x00006770:    80000000    ....    DCD    2147483648
        0x00006774:    00000000    ....    DCD    0
        0x00006778:    00003fff    .?..    DCD    16383
        0x0000677c:    80000000    ....    DCD    2147483648
        0x00006780:    00000000    ....    DCD    0
    Region$$Table$$Base
        0x00006784:    000067c0    .g..    DCD    26560
        0x00006788:    20000000    ...     DCD    536870912
        0x0000678c:    00000158    X...    DCD    344
        0x00006790:    000054f2    .T..    DCD    21746
        0x00006794:    000067f8    .g..    DCD    26616
        0x00006798:    20000158    X..     DCD    536871256
        0x0000679c:    000006d0    ....    DCD    1744
        0x000067a0:    00000104    ....    DCD    260
    locale$$data
    Region$$Table$$Limit
        0x000067a4:    0000001c    ....    DCD    28
    __lcnum_c_name
        0x000067a8:    00000043    C...    DCD    67
        0x000067ac:    fffffff8    ....    DCD    4294967288
    __lcnum_c_start
        0x000067b0:    0000000c    ....    DCD    12
        0x000067b4:    0000000e    ....    DCD    14
        0x000067b8:    0000000f    ....    DCD    15
    __lcnum_c_point
        0x000067bc:    002e        ..      DCW    46
    __lcnum_c_thousands
        0x000067be:    00          .       DCB    0
    __lcnum_c_grouping
        0x000067bf:    00          .       DCB    0
    __lcnum_c_end

** Section #2 'ER_RW' (SHT_PROGBITS) [SHF_ALLOC + SHF_WRITE]
    Size   : 56 bytes (alignment 8)
    Address: 0x20000000


** Section #3 'ER_ZI' (SHT_NOBITS) [SHF_ALLOC + SHF_WRITE]
    Size   : 1744 bytes (alignment 8)
    Address: 0x20000158


** Section #4 '.debug_abbrev' (SHT_PROGBITS)
    Size   : 1476 bytes


** Section #5 '.debug_frame' (SHT_PROGBITS)
    Size   : 4832 bytes


** Section #6 '.debug_info' (SHT_PROGBITS)
    Size   : 13672 bytes


** Section #7 '.debug_line' (SHT_PROGBITS)
    Size   : 8508 bytes


** Section #8 '.debug_loc' (SHT_PROGBITS)
    Size   : 4224 bytes


** Section #9 '.debug_macinfo' (SHT_PROGBITS)
    Size   : 2832 bytes


** Section #10 '.debug_pubnames' (SHT_PROGBITS)
    Size   : 3141 bytes


** Section #11 '.symtab' (SHT_SYMTAB)
    Size   : 13872 bytes (alignment 4)
    String table #12 '.strtab'
    Last local symbol no. 489


** Section #12 '.strtab' (SHT_STRTAB)
    Size   : 9488 bytes


** Section #13 '.note' (SHT_NOTE)
    Size   : 28 bytes (alignment 4)


** Section #14 '.comment' (SHT_PROGBITS)
    Size   : 5752 bytes


** Section #15 '.shstrtab' (SHT_STRTAB)
    Size   : 156 bytes


